
bin/bleed-kernel:     file format elf64-x86-64


Disassembly of section .text:

ffffffff80001000 <PS2_Keyboard_callback>:
ffffffff80001000:	55                   	push   rbp
ffffffff80001001:	48 89 e5             	mov    rbp,rsp
ffffffff80001004:	53                   	push   rbx
ffffffff80001005:	89 fb                	mov    ebx,edi
ffffffff80001007:	48 83 ec 08          	sub    rsp,0x8
ffffffff8000100b:	e8 d0 4c 00 00       	call   ffffffff80005ce0 <console_get_active_console>
ffffffff80001010:	0f be f3             	movsx  esi,bl
ffffffff80001013:	48 8b 5d f8          	mov    rbx,QWORD PTR [rbp-0x8]
ffffffff80001017:	48 8b 78 20          	mov    rdi,QWORD PTR [rax+0x20]
ffffffff8000101b:	c9                   	leave
ffffffff8000101c:	e9 5f 34 00 00       	jmp    ffffffff80004480 <tty_process_input>
ffffffff80001021:	66 2e 0f 1f 84 00 00 	cs nop WORD PTR [rax+rax*1+0x0]
ffffffff80001028:	00 00 00 
ffffffff8000102b:	0f 1f 44 00 00       	nop    DWORD PTR [rax+rax*1+0x0]

ffffffff80001030 <PS2_Keyboard_Interrupt>:
ffffffff80001030:	e4 60                	in     al,0x60
ffffffff80001032:	84 c0                	test   al,al
ffffffff80001034:	0f 88 ce 00 00 00    	js     ffffffff80001108 <PS2_Keyboard_Interrupt+0xd8>
ffffffff8000103a:	3c 2a                	cmp    al,0x2a
ffffffff8000103c:	0f 84 ae 00 00 00    	je     ffffffff800010f0 <PS2_Keyboard_Interrupt+0xc0>
ffffffff80001042:	3c 36                	cmp    al,0x36
ffffffff80001044:	0f 84 a6 00 00 00    	je     ffffffff800010f0 <PS2_Keyboard_Interrupt+0xc0>
ffffffff8000104a:	3c 3a                	cmp    al,0x3a
ffffffff8000104c:	0f 84 16 01 00 00    	je     ffffffff80001168 <PS2_Keyboard_Interrupt+0x138>
ffffffff80001052:	55                   	push   rbp
ffffffff80001053:	0f b6 c0             	movzx  eax,al
ffffffff80001056:	48 89 e5             	mov    rbp,rsp
ffffffff80001059:	48 83 ec 10          	sub    rsp,0x10
ffffffff8000105d:	0f b6 35 9d a0 00 00 	movzx  esi,BYTE PTR [rip+0xa09d]        # ffffffff8000b101 <shift>
ffffffff80001064:	40 84 f6             	test   sil,sil
ffffffff80001067:	0f 85 bb 00 00 00    	jne    ffffffff80001128 <PS2_Keyboard_Interrupt+0xf8>
ffffffff8000106d:	0f b6 88 80 80 00 80 	movzx  ecx,BYTE PTR [rax-0x7fff7f80]
ffffffff80001074:	89 fa                	mov    edx,edi
ffffffff80001076:	8d 41 9f             	lea    eax,[rcx-0x61]
ffffffff80001079:	3c 19                	cmp    al,0x19
ffffffff8000107b:	0f 87 bb 00 00 00    	ja     ffffffff8000113c <PS2_Keyboard_Interrupt+0x10c>
ffffffff80001081:	8d 41 e0             	lea    eax,[rcx-0x20]
ffffffff80001084:	40 3a 35 75 a0 00 00 	cmp    sil,BYTE PTR [rip+0xa075]        # ffffffff8000b100 <caps>
ffffffff8000108b:	0f 45 c8             	cmovne ecx,eax
ffffffff8000108e:	48 8b 05 cb 9f 00 00 	mov    rax,QWORD PTR [rip+0x9fcb]        # ffffffff8000b060 <kb_callback>
ffffffff80001095:	48 85 c0             	test   rax,rax
ffffffff80001098:	74 12                	je     ffffffff800010ac <PS2_Keyboard_Interrupt+0x7c>
ffffffff8000109a:	89 55 f8             	mov    DWORD PTR [rbp-0x8],edx
ffffffff8000109d:	0f be f9             	movsx  edi,cl
ffffffff800010a0:	88 4d ff             	mov    BYTE PTR [rbp-0x1],cl
ffffffff800010a3:	ff d0                	call   rax
ffffffff800010a5:	8b 55 f8             	mov    edx,DWORD PTR [rbp-0x8]
ffffffff800010a8:	0f b6 4d ff          	movzx  ecx,BYTE PTR [rbp-0x1]
ffffffff800010ac:	8b 05 ba 9f 00 00    	mov    eax,DWORD PTR [rip+0x9fba]        # ffffffff8000b06c <head>
ffffffff800010b2:	8d 70 01             	lea    esi,[rax+0x1]
ffffffff800010b5:	c1 fe 1f             	sar    esi,0x1f
ffffffff800010b8:	c1 ee 19             	shr    esi,0x19
ffffffff800010bb:	8d 44 30 01          	lea    eax,[rax+rsi*1+0x1]
ffffffff800010bf:	83 e0 7f             	and    eax,0x7f
ffffffff800010c2:	29 f0                	sub    eax,esi
ffffffff800010c4:	8b 35 9e 9f 00 00    	mov    esi,DWORD PTR [rip+0x9f9e]        # ffffffff8000b068 <tail>
ffffffff800010ca:	39 f0                	cmp    eax,esi
ffffffff800010cc:	74 13                	je     ffffffff800010e1 <PS2_Keyboard_Interrupt+0xb1>
ffffffff800010ce:	48 63 35 97 9f 00 00 	movsxd rsi,DWORD PTR [rip+0x9f97]        # ffffffff8000b06c <head>
ffffffff800010d5:	88 8e 80 b0 00 80    	mov    BYTE PTR [rsi-0x7fff4f80],cl
ffffffff800010db:	89 05 8b 9f 00 00    	mov    DWORD PTR [rip+0x9f8b],eax        # ffffffff8000b06c <head>
ffffffff800010e1:	b8 20 00 00 00       	mov    eax,0x20
ffffffff800010e6:	80 fa 07             	cmp    dl,0x7
ffffffff800010e9:	76 63                	jbe    ffffffff8000114e <PS2_Keyboard_Interrupt+0x11e>
ffffffff800010eb:	e6 a0                	out    0xa0,al
ffffffff800010ed:	c9                   	leave
ffffffff800010ee:	c3                   	ret
ffffffff800010ef:	90                   	nop
ffffffff800010f0:	c6 05 0a a0 00 00 01 	mov    BYTE PTR [rip+0xa00a],0x1        # ffffffff8000b101 <shift>
ffffffff800010f7:	b8 20 00 00 00       	mov    eax,0x20
ffffffff800010fc:	40 80 ff 07          	cmp    dil,0x7
ffffffff80001100:	76 1c                	jbe    ffffffff8000111e <PS2_Keyboard_Interrupt+0xee>
ffffffff80001102:	e6 a0                	out    0xa0,al
ffffffff80001104:	c3                   	ret
ffffffff80001105:	0f 1f 00             	nop    DWORD PTR [rax]
ffffffff80001108:	83 e0 7f             	and    eax,0x7f
ffffffff8000110b:	3c 2a                	cmp    al,0x2a
ffffffff8000110d:	74 49                	je     ffffffff80001158 <PS2_Keyboard_Interrupt+0x128>
ffffffff8000110f:	3c 36                	cmp    al,0x36
ffffffff80001111:	74 45                	je     ffffffff80001158 <PS2_Keyboard_Interrupt+0x128>
ffffffff80001113:	b8 20 00 00 00       	mov    eax,0x20
ffffffff80001118:	40 80 ff 07          	cmp    dil,0x7
ffffffff8000111c:	77 e4                	ja     ffffffff80001102 <PS2_Keyboard_Interrupt+0xd2>
ffffffff8000111e:	e6 20                	out    0x20,al
ffffffff80001120:	c3                   	ret
ffffffff80001121:	0f 1f 80 00 00 00 00 	nop    DWORD PTR [rax+0x0]
ffffffff80001128:	0f b6 88 00 80 00 80 	movzx  ecx,BYTE PTR [rax-0x7fff8000]
ffffffff8000112f:	89 fa                	mov    edx,edi
ffffffff80001131:	8d 41 9f             	lea    eax,[rcx-0x61]
ffffffff80001134:	3c 19                	cmp    al,0x19
ffffffff80001136:	0f 86 45 ff ff ff    	jbe    ffffffff80001081 <PS2_Keyboard_Interrupt+0x51>
ffffffff8000113c:	84 c9                	test   cl,cl
ffffffff8000113e:	0f 85 4a ff ff ff    	jne    ffffffff8000108e <PS2_Keyboard_Interrupt+0x5e>
ffffffff80001144:	b8 20 00 00 00       	mov    eax,0x20
ffffffff80001149:	80 fa 07             	cmp    dl,0x7
ffffffff8000114c:	77 9d                	ja     ffffffff800010eb <PS2_Keyboard_Interrupt+0xbb>
ffffffff8000114e:	e6 20                	out    0x20,al
ffffffff80001150:	c9                   	leave
ffffffff80001151:	c3                   	ret
ffffffff80001152:	66 0f 1f 44 00 00    	nop    WORD PTR [rax+rax*1+0x0]
ffffffff80001158:	c6 05 a2 9f 00 00 00 	mov    BYTE PTR [rip+0x9fa2],0x0        # ffffffff8000b101 <shift>
ffffffff8000115f:	eb b2                	jmp    ffffffff80001113 <PS2_Keyboard_Interrupt+0xe3>
ffffffff80001161:	0f 1f 80 00 00 00 00 	nop    DWORD PTR [rax+0x0]
ffffffff80001168:	80 35 91 9f 00 00 01 	xor    BYTE PTR [rip+0x9f91],0x1        # ffffffff8000b100 <caps>
ffffffff8000116f:	eb a2                	jmp    ffffffff80001113 <PS2_Keyboard_Interrupt+0xe3>
ffffffff80001171:	66 2e 0f 1f 84 00 00 	cs nop WORD PTR [rax+rax*1+0x0]
ffffffff80001178:	00 00 00 
ffffffff8000117b:	0f 1f 44 00 00       	nop    DWORD PTR [rax+rax*1+0x0]

ffffffff80001180 <PS2_Keyboard_init>:
ffffffff80001180:	eb 08                	jmp    ffffffff8000118a <PS2_Keyboard_init+0xa>
ffffffff80001182:	66 0f 1f 44 00 00    	nop    WORD PTR [rax+rax*1+0x0]
ffffffff80001188:	e4 60                	in     al,0x60
ffffffff8000118a:	e4 64                	in     al,0x64
ffffffff8000118c:	a8 01                	test   al,0x1
ffffffff8000118e:	75 f8                	jne    ffffffff80001188 <PS2_Keyboard_init+0x8>
ffffffff80001190:	48 c7 05 c5 9e 00 00 	mov    QWORD PTR [rip+0x9ec5],0xffffffff80001000        # ffffffff8000b060 <kb_callback>
ffffffff80001197:	00 10 00 80 
ffffffff8000119b:	c3                   	ret
ffffffff8000119c:	0f 1f 40 00          	nop    DWORD PTR [rax+0x0]

ffffffff800011a0 <pit_init>:
ffffffff800011a0:	55                   	push   rbp
ffffffff800011a1:	8d 47 ff             	lea    eax,[rdi-0x1]
ffffffff800011a4:	89 fe                	mov    esi,edi
ffffffff800011a6:	48 89 e5             	mov    rbp,rsp
ffffffff800011a9:	48 83 ec 10          	sub    rsp,0x10
ffffffff800011ad:	3d dd 34 12 00       	cmp    eax,0x1234dd
ffffffff800011b2:	77 2c                	ja     ffffffff800011e0 <pit_init+0x40>
ffffffff800011b4:	31 d2                	xor    edx,edx
ffffffff800011b6:	b8 de 34 12 00       	mov    eax,0x1234de
ffffffff800011bb:	f7 f6                	div    esi
ffffffff800011bd:	89 c1                	mov    ecx,eax
ffffffff800011bf:	b8 36 00 00 00       	mov    eax,0x36
ffffffff800011c4:	e6 43                	out    0x43,al
ffffffff800011c6:	89 c8                	mov    eax,ecx
ffffffff800011c8:	e6 40                	out    0x40,al
ffffffff800011ca:	89 c8                	mov    eax,ecx
ffffffff800011cc:	c1 e8 08             	shr    eax,0x8
ffffffff800011cf:	e6 40                	out    0x40,al
ffffffff800011d1:	c9                   	leave
ffffffff800011d2:	48 c7 c7 30 86 00 80 	mov    rdi,0xffffffff80008630
ffffffff800011d9:	31 c0                	xor    eax,eax
ffffffff800011db:	e9 00 6c 00 00       	jmp    ffffffff80007de0 <kprintf>
ffffffff800011e0:	89 7d fc             	mov    DWORD PTR [rbp-0x4],edi
ffffffff800011e3:	48 c7 c7 00 81 00 80 	mov    rdi,0xffffffff80008100
ffffffff800011ea:	e8 f1 25 00 00       	call   ffffffff800037e0 <ke_panic>
ffffffff800011ef:	8b 75 fc             	mov    esi,DWORD PTR [rbp-0x4]
ffffffff800011f2:	eb c0                	jmp    ffffffff800011b4 <pit_init+0x14>
ffffffff800011f4:	66 2e 0f 1f 84 00 00 	cs nop WORD PTR [rax+rax*1+0x0]
ffffffff800011fb:	00 00 00 
ffffffff800011fe:	66 90                	xchg   ax,ax

ffffffff80001200 <pit_read_interval_remaining>:
ffffffff80001200:	fa                   	cli
ffffffff80001201:	31 c0                	xor    eax,eax
ffffffff80001203:	e6 43                	out    0x43,al
ffffffff80001205:	e4 40                	in     al,0x40
ffffffff80001207:	0f b6 d0             	movzx  edx,al
ffffffff8000120a:	e4 40                	in     al,0x40
ffffffff8000120c:	0f b6 c0             	movzx  eax,al
ffffffff8000120f:	c1 e0 08             	shl    eax,0x8
ffffffff80001212:	09 d0                	or     eax,edx
ffffffff80001214:	c3                   	ret
ffffffff80001215:	66 2e 0f 1f 84 00 00 	cs nop WORD PTR [rax+rax*1+0x0]
ffffffff8000121c:	00 00 00 
ffffffff8000121f:	90                   	nop

ffffffff80001220 <pit_wait_ticks>:
ffffffff80001220:	85 ff                	test   edi,edi
ffffffff80001222:	74 4a                	je     ffffffff8000126e <pit_wait_ticks+0x4e>
ffffffff80001224:	31 f6                	xor    esi,esi
ffffffff80001226:	66 2e 0f 1f 84 00 00 	cs nop WORD PTR [rax+rax*1+0x0]
ffffffff8000122d:	00 00 00 
ffffffff80001230:	fa                   	cli
ffffffff80001231:	89 f0                	mov    eax,esi
ffffffff80001233:	e6 43                	out    0x43,al
ffffffff80001235:	e4 40                	in     al,0x40
ffffffff80001237:	0f b6 d0             	movzx  edx,al
ffffffff8000123a:	e4 40                	in     al,0x40
ffffffff8000123c:	89 c1                	mov    ecx,eax
ffffffff8000123e:	c1 e1 08             	shl    ecx,0x8
ffffffff80001241:	09 d1                	or     ecx,edx
ffffffff80001243:	66 90                	xchg   ax,ax
ffffffff80001245:	66 66 2e 0f 1f 84 00 	data16 cs nop WORD PTR [rax+rax*1+0x0]
ffffffff8000124c:	00 00 00 00 
ffffffff80001250:	fa                   	cli
ffffffff80001251:	89 f0                	mov    eax,esi
ffffffff80001253:	e6 43                	out    0x43,al
ffffffff80001255:	e4 40                	in     al,0x40
ffffffff80001257:	0f b6 d0             	movzx  edx,al
ffffffff8000125a:	e4 40                	in     al,0x40
ffffffff8000125c:	0f b6 c0             	movzx  eax,al
ffffffff8000125f:	c1 e0 08             	shl    eax,0x8
ffffffff80001262:	09 d0                	or     eax,edx
ffffffff80001264:	66 39 c1             	cmp    cx,ax
ffffffff80001267:	74 e7                	je     ffffffff80001250 <pit_wait_ticks+0x30>
ffffffff80001269:	83 ef 01             	sub    edi,0x1
ffffffff8000126c:	75 c2                	jne    ffffffff80001230 <pit_wait_ticks+0x10>
ffffffff8000126e:	c3                   	ret
ffffffff8000126f:	90                   	nop

ffffffff80001270 <serial_put_char.part.0>:
ffffffff80001270:	b9 a0 86 01 00       	mov    ecx,0x186a0
ffffffff80001275:	40 80 ff 0a          	cmp    dil,0xa
ffffffff80001279:	74 25                	je     ffffffff800012a0 <serial_put_char.part.0+0x30>
ffffffff8000127b:	ba fd 03 00 00       	mov    edx,0x3fd
ffffffff80001280:	eb 0b                	jmp    ffffffff8000128d <serial_put_char.part.0+0x1d>
ffffffff80001282:	66 0f 1f 44 00 00    	nop    WORD PTR [rax+rax*1+0x0]
ffffffff80001288:	83 e9 01             	sub    ecx,0x1
ffffffff8000128b:	72 09                	jb     ffffffff80001296 <serial_put_char.part.0+0x26>
ffffffff8000128d:	ec                   	in     al,dx
ffffffff8000128e:	a8 20                	test   al,0x20
ffffffff80001290:	74 f6                	je     ffffffff80001288 <serial_put_char.part.0+0x18>
ffffffff80001292:	85 c9                	test   ecx,ecx
ffffffff80001294:	74 08                	je     ffffffff8000129e <serial_put_char.part.0+0x2e>
ffffffff80001296:	ba f8 03 00 00       	mov    edx,0x3f8
ffffffff8000129b:	89 f8                	mov    eax,edi
ffffffff8000129d:	ee                   	out    dx,al
ffffffff8000129e:	c3                   	ret
ffffffff8000129f:	90                   	nop
ffffffff800012a0:	8b 05 5e 9e 00 00    	mov    eax,DWORD PTR [rip+0x9e5e]        # ffffffff8000b104 <serial_available>
ffffffff800012a6:	85 c0                	test   eax,eax
ffffffff800012a8:	74 d1                	je     ffffffff8000127b <serial_put_char.part.0+0xb>
ffffffff800012aa:	be a0 86 01 00       	mov    esi,0x186a0
ffffffff800012af:	ba fd 03 00 00       	mov    edx,0x3fd
ffffffff800012b4:	eb 0f                	jmp    ffffffff800012c5 <serial_put_char.part.0+0x55>
ffffffff800012b6:	66 2e 0f 1f 84 00 00 	cs nop WORD PTR [rax+rax*1+0x0]
ffffffff800012bd:	00 00 00 
ffffffff800012c0:	83 ee 01             	sub    esi,0x1
ffffffff800012c3:	72 0e                	jb     ffffffff800012d3 <serial_put_char.part.0+0x63>
ffffffff800012c5:	ec                   	in     al,dx
ffffffff800012c6:	a8 20                	test   al,0x20
ffffffff800012c8:	74 f6                	je     ffffffff800012c0 <serial_put_char.part.0+0x50>
ffffffff800012ca:	b9 a0 86 01 00       	mov    ecx,0x186a0
ffffffff800012cf:	85 f6                	test   esi,esi
ffffffff800012d1:	74 a8                	je     ffffffff8000127b <serial_put_char.part.0+0xb>
ffffffff800012d3:	b8 0d 00 00 00       	mov    eax,0xd
ffffffff800012d8:	ba f8 03 00 00       	mov    edx,0x3f8
ffffffff800012dd:	ee                   	out    dx,al
ffffffff800012de:	b9 a0 86 01 00       	mov    ecx,0x186a0
ffffffff800012e3:	eb 96                	jmp    ffffffff8000127b <serial_put_char.part.0+0xb>
ffffffff800012e5:	66 2e 0f 1f 84 00 00 	cs nop WORD PTR [rax+rax*1+0x0]
ffffffff800012ec:	00 00 00 
ffffffff800012ef:	90                   	nop

ffffffff800012f0 <serial_init>:
ffffffff800012f0:	b8 0f 00 00 00       	mov    eax,0xf
ffffffff800012f5:	ba fc 03 00 00       	mov    edx,0x3fc
ffffffff800012fa:	ee                   	out    dx,al
ffffffff800012fb:	ec                   	in     al,dx
ffffffff800012fc:	89 c7                	mov    edi,eax
ffffffff800012fe:	3c 0f                	cmp    al,0xf
ffffffff80001300:	75 76                	jne    ffffffff80001378 <serial_init+0x88>
ffffffff80001302:	31 c0                	xor    eax,eax
ffffffff80001304:	ba f9 03 00 00       	mov    edx,0x3f9
ffffffff80001309:	ee                   	out    dx,al
ffffffff8000130a:	b8 80 ff ff ff       	mov    eax,0xffffff80
ffffffff8000130f:	ba fb 03 00 00       	mov    edx,0x3fb
ffffffff80001314:	ee                   	out    dx,al
ffffffff80001315:	b8 03 00 00 00       	mov    eax,0x3
ffffffff8000131a:	ba f8 03 00 00       	mov    edx,0x3f8
ffffffff8000131f:	ee                   	out    dx,al
ffffffff80001320:	31 c0                	xor    eax,eax
ffffffff80001322:	ba f9 03 00 00       	mov    edx,0x3f9
ffffffff80001327:	ee                   	out    dx,al
ffffffff80001328:	b8 03 00 00 00       	mov    eax,0x3
ffffffff8000132d:	ba fb 03 00 00       	mov    edx,0x3fb
ffffffff80001332:	ee                   	out    dx,al
ffffffff80001333:	b8 c7 ff ff ff       	mov    eax,0xffffffc7
ffffffff80001338:	ba fa 03 00 00       	mov    edx,0x3fa
ffffffff8000133d:	ee                   	out    dx,al
ffffffff8000133e:	b8 0b 00 00 00       	mov    eax,0xb
ffffffff80001343:	ba fc 03 00 00       	mov    edx,0x3fc
ffffffff80001348:	ee                   	out    dx,al
ffffffff80001349:	b8 1e 00 00 00       	mov    eax,0x1e
ffffffff8000134e:	ee                   	out    dx,al
ffffffff8000134f:	b8 ae ff ff ff       	mov    eax,0xffffffae
ffffffff80001354:	ba f8 03 00 00       	mov    edx,0x3f8
ffffffff80001359:	ee                   	out    dx,al
ffffffff8000135a:	ec                   	in     al,dx
ffffffff8000135b:	3c ae                	cmp    al,0xae
ffffffff8000135d:	75 19                	jne    ffffffff80001378 <serial_init+0x88>
ffffffff8000135f:	89 f8                	mov    eax,edi
ffffffff80001361:	ba fc 03 00 00       	mov    edx,0x3fc
ffffffff80001366:	ee                   	out    dx,al
ffffffff80001367:	c7 05 93 9d 00 00 01 	mov    DWORD PTR [rip+0x9d93],0x1        # ffffffff8000b104 <serial_available>
ffffffff8000136e:	00 00 00 
ffffffff80001371:	31 c0                	xor    eax,eax
ffffffff80001373:	c3                   	ret
ffffffff80001374:	0f 1f 40 00          	nop    DWORD PTR [rax+0x0]
ffffffff80001378:	c7 05 82 9d 00 00 00 	mov    DWORD PTR [rip+0x9d82],0x0        # ffffffff8000b104 <serial_available>
ffffffff8000137f:	00 00 00 
ffffffff80001382:	bf 07 00 00 00       	mov    edi,0x7
ffffffff80001387:	e9 b4 34 00 00       	jmp    ffffffff80004840 <status_print_error>
ffffffff8000138c:	0f 1f 40 00          	nop    DWORD PTR [rax+0x0]

ffffffff80001390 <serial_write>:
ffffffff80001390:	8b 05 6e 9d 00 00    	mov    eax,DWORD PTR [rip+0x9d6e]        # ffffffff8000b104 <serial_available>
ffffffff80001396:	85 c0                	test   eax,eax
ffffffff80001398:	74 2e                	je     ffffffff800013c8 <serial_write+0x38>
ffffffff8000139a:	49 89 f8             	mov    r8,rdi
ffffffff8000139d:	0f be 3f             	movsx  edi,BYTE PTR [rdi]
ffffffff800013a0:	40 84 ff             	test   dil,dil
ffffffff800013a3:	74 23                	je     ffffffff800013c8 <serial_write+0x38>
ffffffff800013a5:	55                   	push   rbp
ffffffff800013a6:	48 89 e5             	mov    rbp,rsp
ffffffff800013a9:	0f 1f 80 00 00 00 00 	nop    DWORD PTR [rax+0x0]
ffffffff800013b0:	e8 bb fe ff ff       	call   ffffffff80001270 <serial_put_char.part.0>
ffffffff800013b5:	41 0f be 78 01       	movsx  edi,BYTE PTR [r8+0x1]
ffffffff800013ba:	49 83 c0 01          	add    r8,0x1
ffffffff800013be:	40 84 ff             	test   dil,dil
ffffffff800013c1:	75 ed                	jne    ffffffff800013b0 <serial_write+0x20>
ffffffff800013c3:	5d                   	pop    rbp
ffffffff800013c4:	c3                   	ret
ffffffff800013c5:	0f 1f 00             	nop    DWORD PTR [rax]
ffffffff800013c8:	c3                   	ret
ffffffff800013c9:	66 2e 0f 1f 84 00 00 	cs nop WORD PTR [rax+rax*1+0x0]
ffffffff800013d0:	00 00 00 
ffffffff800013d3:	66 2e 0f 1f 84 00 00 	cs nop WORD PTR [rax+rax*1+0x0]
ffffffff800013da:	00 00 00 
ffffffff800013dd:	0f 1f 00             	nop    DWORD PTR [rax]

ffffffff800013e0 <serial_write_hex>:
ffffffff800013e0:	8b 05 1e 9d 00 00    	mov    eax,DWORD PTR [rip+0x9d1e]        # ffffffff8000b104 <serial_available>
ffffffff800013e6:	85 c0                	test   eax,eax
ffffffff800013e8:	74 7e                	je     ffffffff80001468 <serial_write_hex+0x88>
ffffffff800013ea:	55                   	push   rbp
ffffffff800013eb:	48 89 e5             	mov    rbp,rsp
ffffffff800013ee:	48 83 ec 20          	sub    rsp,0x20
ffffffff800013f2:	48 8d 45 ef          	lea    rax,[rbp-0x11]
ffffffff800013f6:	48 8d 4d df          	lea    rcx,[rbp-0x21]
ffffffff800013fa:	66 0f 1f 44 00 00    	nop    WORD PTR [rax+rax*1+0x0]
ffffffff80001400:	48 89 fa             	mov    rdx,rdi
ffffffff80001403:	48 83 e8 01          	sub    rax,0x1
ffffffff80001407:	48 c1 ef 04          	shr    rdi,0x4
ffffffff8000140b:	83 e2 0f             	and    edx,0xf
ffffffff8000140e:	0f b6 92 16 81 00 80 	movzx  edx,BYTE PTR [rdx-0x7fff7eea]
ffffffff80001415:	88 50 01             	mov    BYTE PTR [rax+0x1],dl
ffffffff80001418:	48 39 c1             	cmp    rcx,rax
ffffffff8000141b:	75 e3                	jne    ffffffff80001400 <serial_write_hex+0x20>
ffffffff8000141d:	bf 30 00 00 00       	mov    edi,0x30
ffffffff80001422:	c6 45 f0 00          	mov    BYTE PTR [rbp-0x10],0x0
ffffffff80001426:	e8 45 fe ff ff       	call   ffffffff80001270 <serial_put_char.part.0>
ffffffff8000142b:	bf 78 00 00 00       	mov    edi,0x78
ffffffff80001430:	e8 3b fe ff ff       	call   ffffffff80001270 <serial_put_char.part.0>
ffffffff80001435:	0f be 7d e0          	movsx  edi,BYTE PTR [rbp-0x20]
ffffffff80001439:	40 84 ff             	test   dil,dil
ffffffff8000143c:	74 25                	je     ffffffff80001463 <serial_write_hex+0x83>
ffffffff8000143e:	4c 8d 45 e0          	lea    r8,[rbp-0x20]
ffffffff80001442:	0f 1f 00             	nop    DWORD PTR [rax]
ffffffff80001445:	66 66 2e 0f 1f 84 00 	data16 cs nop WORD PTR [rax+rax*1+0x0]
ffffffff8000144c:	00 00 00 00 
ffffffff80001450:	e8 1b fe ff ff       	call   ffffffff80001270 <serial_put_char.part.0>
ffffffff80001455:	41 0f be 78 01       	movsx  edi,BYTE PTR [r8+0x1]
ffffffff8000145a:	49 83 c0 01          	add    r8,0x1
ffffffff8000145e:	40 84 ff             	test   dil,dil
ffffffff80001461:	75 ed                	jne    ffffffff80001450 <serial_write_hex+0x70>
ffffffff80001463:	c9                   	leave
ffffffff80001464:	c3                   	ret
ffffffff80001465:	0f 1f 00             	nop    DWORD PTR [rax]
ffffffff80001468:	c3                   	ret
ffffffff80001469:	0f 1f 80 00 00 00 00 	nop    DWORD PTR [rax+0x0]

ffffffff80001470 <serial_printf>:
ffffffff80001470:	55                   	push   rbp
ffffffff80001471:	48 89 e5             	mov    rbp,rsp
ffffffff80001474:	41 56                	push   r14
ffffffff80001476:	53                   	push   rbx
ffffffff80001477:	48 83 ec 50          	sub    rsp,0x50
ffffffff8000147b:	8b 05 83 9c 00 00    	mov    eax,DWORD PTR [rip+0x9c83]        # ffffffff8000b104 <serial_available>
ffffffff80001481:	48 89 75 c8          	mov    QWORD PTR [rbp-0x38],rsi
ffffffff80001485:	48 89 55 d0          	mov    QWORD PTR [rbp-0x30],rdx
ffffffff80001489:	48 89 4d d8          	mov    QWORD PTR [rbp-0x28],rcx
ffffffff8000148d:	4c 89 45 e0          	mov    QWORD PTR [rbp-0x20],r8
ffffffff80001491:	4c 89 4d e8          	mov    QWORD PTR [rbp-0x18],r9
ffffffff80001495:	85 c0                	test   eax,eax
ffffffff80001497:	75 0f                	jne    ffffffff800014a8 <serial_printf+0x38>
ffffffff80001499:	48 83 c4 50          	add    rsp,0x50
ffffffff8000149d:	5b                   	pop    rbx
ffffffff8000149e:	41 5e                	pop    r14
ffffffff800014a0:	5d                   	pop    rbp
ffffffff800014a1:	c3                   	ret
ffffffff800014a2:	66 0f 1f 44 00 00    	nop    WORD PTR [rax+rax*1+0x0]
ffffffff800014a8:	48 8d 45 10          	lea    rax,[rbp+0x10]
ffffffff800014ac:	c7 45 a8 08 00 00 00 	mov    DWORD PTR [rbp-0x58],0x8
ffffffff800014b3:	48 89 fb             	mov    rbx,rdi
ffffffff800014b6:	48 89 45 b0          	mov    QWORD PTR [rbp-0x50],rax
ffffffff800014ba:	48 8d 45 c0          	lea    rax,[rbp-0x40]
ffffffff800014be:	48 89 45 b8          	mov    QWORD PTR [rbp-0x48],rax
ffffffff800014c2:	0f 1f 00             	nop    DWORD PTR [rax]
ffffffff800014c5:	66 66 2e 0f 1f 84 00 	data16 cs nop WORD PTR [rax+rax*1+0x0]
ffffffff800014cc:	00 00 00 00 
ffffffff800014d0:	0f be 3b             	movsx  edi,BYTE PTR [rbx]
ffffffff800014d3:	40 84 ff             	test   dil,dil
ffffffff800014d6:	74 c1                	je     ffffffff80001499 <serial_printf+0x29>
ffffffff800014d8:	40 80 ff 25          	cmp    dil,0x25
ffffffff800014dc:	74 21                	je     ffffffff800014ff <serial_printf+0x8f>
ffffffff800014de:	8b 05 20 9c 00 00    	mov    eax,DWORD PTR [rip+0x9c20]        # ffffffff8000b104 <serial_available>
ffffffff800014e4:	48 83 c3 01          	add    rbx,0x1
ffffffff800014e8:	85 c0                	test   eax,eax
ffffffff800014ea:	74 e4                	je     ffffffff800014d0 <serial_printf+0x60>
ffffffff800014ec:	e8 7f fd ff ff       	call   ffffffff80001270 <serial_put_char.part.0>
ffffffff800014f1:	0f be 3b             	movsx  edi,BYTE PTR [rbx]
ffffffff800014f4:	40 84 ff             	test   dil,dil
ffffffff800014f7:	74 a0                	je     ffffffff80001499 <serial_printf+0x29>
ffffffff800014f9:	40 80 ff 25          	cmp    dil,0x25
ffffffff800014fd:	75 df                	jne    ffffffff800014de <serial_printf+0x6e>
ffffffff800014ff:	0f be 7b 01          	movsx  edi,BYTE PTR [rbx+0x1]
ffffffff80001503:	40 80 ff 25          	cmp    dil,0x25
ffffffff80001507:	0f 84 53 03 00 00    	je     ffffffff80001860 <serial_printf+0x3f0>
ffffffff8000150d:	8d 47 a8             	lea    eax,[rdi-0x58]
ffffffff80001510:	3c 20                	cmp    al,0x20
ffffffff80001512:	77 0c                	ja     ffffffff80001520 <serial_printf+0xb0>
ffffffff80001514:	0f b6 c0             	movzx  eax,al
ffffffff80001517:	ff 24 c5 68 9f 00 80 	jmp    QWORD PTR [rax*8-0x7fff6098]
ffffffff8000151e:	66 90                	xchg   ax,ax
ffffffff80001520:	8b 15 de 9b 00 00    	mov    edx,DWORD PTR [rip+0x9bde]        # ffffffff8000b104 <serial_available>
ffffffff80001526:	85 d2                	test   edx,edx
ffffffff80001528:	74 36                	je     ffffffff80001560 <serial_printf+0xf0>
ffffffff8000152a:	b9 a0 86 01 00       	mov    ecx,0x186a0
ffffffff8000152f:	ba fd 03 00 00       	mov    edx,0x3fd
ffffffff80001534:	eb 0f                	jmp    ffffffff80001545 <serial_printf+0xd5>
ffffffff80001536:	66 2e 0f 1f 84 00 00 	cs nop WORD PTR [rax+rax*1+0x0]
ffffffff8000153d:	00 00 00 
ffffffff80001540:	83 e9 01             	sub    ecx,0x1
ffffffff80001543:	72 09                	jb     ffffffff8000154e <serial_printf+0xde>
ffffffff80001545:	ec                   	in     al,dx
ffffffff80001546:	a8 20                	test   al,0x20
ffffffff80001548:	74 f6                	je     ffffffff80001540 <serial_printf+0xd0>
ffffffff8000154a:	85 c9                	test   ecx,ecx
ffffffff8000154c:	74 0b                	je     ffffffff80001559 <serial_printf+0xe9>
ffffffff8000154e:	b8 25 00 00 00       	mov    eax,0x25
ffffffff80001553:	ba f8 03 00 00       	mov    edx,0x3f8
ffffffff80001558:	ee                   	out    dx,al
ffffffff80001559:	e8 12 fd ff ff       	call   ffffffff80001270 <serial_put_char.part.0>
ffffffff8000155e:	66 90                	xchg   ax,ax
ffffffff80001560:	48 83 c3 02          	add    rbx,0x2
ffffffff80001564:	e9 67 ff ff ff       	jmp    ffffffff800014d0 <serial_printf+0x60>
ffffffff80001569:	0f 1f 80 00 00 00 00 	nop    DWORD PTR [rax+0x0]
ffffffff80001570:	8b 45 a8             	mov    eax,DWORD PTR [rbp-0x58]
ffffffff80001573:	83 f8 2f             	cmp    eax,0x2f
ffffffff80001576:	0f 87 bc 03 00 00    	ja     ffffffff80001938 <serial_printf+0x4c8>
ffffffff8000157c:	89 c2                	mov    edx,eax
ffffffff8000157e:	83 c0 08             	add    eax,0x8
ffffffff80001581:	48 03 55 b8          	add    rdx,QWORD PTR [rbp-0x48]
ffffffff80001585:	89 45 a8             	mov    DWORD PTR [rbp-0x58],eax
ffffffff80001588:	48 63 3a             	movsxd rdi,DWORD PTR [rdx]
ffffffff8000158b:	e8 30 5b 00 00       	call   ffffffff800070c0 <itoa_signed>
ffffffff80001590:	49 89 c0             	mov    r8,rax
ffffffff80001593:	49 89 c2             	mov    r10,rax
ffffffff80001596:	48 85 c0             	test   rax,rax
ffffffff80001599:	74 c5                	je     ffffffff80001560 <serial_printf+0xf0>
ffffffff8000159b:	8b 05 63 9b 00 00    	mov    eax,DWORD PTR [rip+0x9b63]        # ffffffff8000b104 <serial_available>
ffffffff800015a1:	85 c0                	test   eax,eax
ffffffff800015a3:	75 14                	jne    ffffffff800015b9 <serial_printf+0x149>
ffffffff800015a5:	eb 1b                	jmp    ffffffff800015c2 <serial_printf+0x152>
ffffffff800015a7:	66 0f 1f 84 00 00 00 	nop    WORD PTR [rax+rax*1+0x0]
ffffffff800015ae:	00 00 
ffffffff800015b0:	49 83 c0 01          	add    r8,0x1
ffffffff800015b4:	e8 b7 fc ff ff       	call   ffffffff80001270 <serial_put_char.part.0>
ffffffff800015b9:	41 0f be 38          	movsx  edi,BYTE PTR [r8]
ffffffff800015bd:	40 84 ff             	test   dil,dil
ffffffff800015c0:	75 ee                	jne    ffffffff800015b0 <serial_printf+0x140>
ffffffff800015c2:	4d 89 d6             	mov    r14,r10
ffffffff800015c5:	4c 89 f7             	mov    rdi,r14
ffffffff800015c8:	48 83 c3 02          	add    rbx,0x2
ffffffff800015cc:	e8 1f 5d 00 00       	call   ffffffff800072f0 <strlen>
ffffffff800015d1:	4c 89 f7             	mov    rdi,r14
ffffffff800015d4:	48 89 c6             	mov    rsi,rax
ffffffff800015d7:	e8 54 41 00 00       	call   ffffffff80005730 <kfree>
ffffffff800015dc:	e9 ef fe ff ff       	jmp    ffffffff800014d0 <serial_printf+0x60>
ffffffff800015e1:	0f 1f 80 00 00 00 00 	nop    DWORD PTR [rax+0x0]
ffffffff800015e8:	8b 45 a8             	mov    eax,DWORD PTR [rbp-0x58]
ffffffff800015eb:	83 f8 2f             	cmp    eax,0x2f
ffffffff800015ee:	0f 86 cc 02 00 00    	jbe    ffffffff800018c0 <serial_printf+0x450>
ffffffff800015f4:	48 8b 55 b0          	mov    rdx,QWORD PTR [rbp-0x50]
ffffffff800015f8:	48 8d 42 08          	lea    rax,[rdx+0x8]
ffffffff800015fc:	48 89 45 b0          	mov    QWORD PTR [rbp-0x50],rax
ffffffff80001600:	8b 3d fe 9a 00 00    	mov    edi,DWORD PTR [rip+0x9afe]        # ffffffff8000b104 <serial_available>
ffffffff80001606:	4c 8b 02             	mov    r8,QWORD PTR [rdx]
ffffffff80001609:	85 ff                	test   edi,edi
ffffffff8000160b:	74 14                	je     ffffffff80001621 <serial_printf+0x1b1>
ffffffff8000160d:	bf 30 00 00 00       	mov    edi,0x30
ffffffff80001612:	e8 59 fc ff ff       	call   ffffffff80001270 <serial_put_char.part.0>
ffffffff80001617:	bf 78 00 00 00       	mov    edi,0x78
ffffffff8000161c:	e8 4f fc ff ff       	call   ffffffff80001270 <serial_put_char.part.0>
ffffffff80001621:	4c 89 c7             	mov    rdi,r8
ffffffff80001624:	31 d2                	xor    edx,edx
ffffffff80001626:	be 10 00 00 00       	mov    esi,0x10
ffffffff8000162b:	e8 90 59 00 00       	call   ffffffff80006fc0 <utoa_base>
ffffffff80001630:	49 89 c0             	mov    r8,rax
ffffffff80001633:	49 89 c2             	mov    r10,rax
ffffffff80001636:	48 85 c0             	test   rax,rax
ffffffff80001639:	0f 84 21 ff ff ff    	je     ffffffff80001560 <serial_printf+0xf0>
ffffffff8000163f:	8b 35 bf 9a 00 00    	mov    esi,DWORD PTR [rip+0x9abf]        # ffffffff8000b104 <serial_available>
ffffffff80001645:	85 f6                	test   esi,esi
ffffffff80001647:	75 10                	jne    ffffffff80001659 <serial_printf+0x1e9>
ffffffff80001649:	e9 74 ff ff ff       	jmp    ffffffff800015c2 <serial_printf+0x152>
ffffffff8000164e:	66 90                	xchg   ax,ax
ffffffff80001650:	49 83 c0 01          	add    r8,0x1
ffffffff80001654:	e8 17 fc ff ff       	call   ffffffff80001270 <serial_put_char.part.0>
ffffffff80001659:	41 0f be 38          	movsx  edi,BYTE PTR [r8]
ffffffff8000165d:	40 84 ff             	test   dil,dil
ffffffff80001660:	75 ee                	jne    ffffffff80001650 <serial_printf+0x1e0>
ffffffff80001662:	e9 5b ff ff ff       	jmp    ffffffff800015c2 <serial_printf+0x152>
ffffffff80001667:	66 0f 1f 84 00 00 00 	nop    WORD PTR [rax+rax*1+0x0]
ffffffff8000166e:	00 00 
ffffffff80001670:	8b 45 a8             	mov    eax,DWORD PTR [rbp-0x58]
ffffffff80001673:	83 f8 2f             	cmp    eax,0x2f
ffffffff80001676:	0f 87 2c 02 00 00    	ja     ffffffff800018a8 <serial_printf+0x438>
ffffffff8000167c:	89 c2                	mov    edx,eax
ffffffff8000167e:	83 c0 08             	add    eax,0x8
ffffffff80001681:	48 03 55 b8          	add    rdx,QWORD PTR [rbp-0x48]
ffffffff80001685:	89 45 a8             	mov    DWORD PTR [rbp-0x58],eax
ffffffff80001688:	8b 05 76 9a 00 00    	mov    eax,DWORD PTR [rip+0x9a76]        # ffffffff8000b104 <serial_available>
ffffffff8000168e:	85 c0                	test   eax,eax
ffffffff80001690:	0f 84 ca fe ff ff    	je     ffffffff80001560 <serial_printf+0xf0>
ffffffff80001696:	0f be 3a             	movsx  edi,BYTE PTR [rdx]
ffffffff80001699:	48 83 c3 02          	add    rbx,0x2
ffffffff8000169d:	e8 ce fb ff ff       	call   ffffffff80001270 <serial_put_char.part.0>
ffffffff800016a2:	e9 29 fe ff ff       	jmp    ffffffff800014d0 <serial_printf+0x60>
ffffffff800016a7:	66 0f 1f 84 00 00 00 	nop    WORD PTR [rax+rax*1+0x0]
ffffffff800016ae:	00 00 
ffffffff800016b0:	8b 45 a8             	mov    eax,DWORD PTR [rbp-0x58]
ffffffff800016b3:	83 f8 2f             	cmp    eax,0x2f
ffffffff800016b6:	0f 86 34 02 00 00    	jbe    ffffffff800018f0 <serial_printf+0x480>
ffffffff800016bc:	48 8b 55 b0          	mov    rdx,QWORD PTR [rbp-0x50]
ffffffff800016c0:	48 8d 42 08          	lea    rax,[rdx+0x8]
ffffffff800016c4:	48 89 45 b0          	mov    QWORD PTR [rbp-0x50],rax
ffffffff800016c8:	8b 3a                	mov    edi,DWORD PTR [rdx]
ffffffff800016ca:	be 10 00 00 00       	mov    esi,0x10
ffffffff800016cf:	ba 01 00 00 00       	mov    edx,0x1
ffffffff800016d4:	e8 e7 58 00 00       	call   ffffffff80006fc0 <utoa_base>
ffffffff800016d9:	49 89 c0             	mov    r8,rax
ffffffff800016dc:	49 89 c3             	mov    r11,rax
ffffffff800016df:	48 85 c0             	test   rax,rax
ffffffff800016e2:	0f 84 78 fe ff ff    	je     ffffffff80001560 <serial_printf+0xf0>
ffffffff800016e8:	44 8b 0d 15 9a 00 00 	mov    r9d,DWORD PTR [rip+0x9a15]        # ffffffff8000b104 <serial_available>
ffffffff800016ef:	45 85 c9             	test   r9d,r9d
ffffffff800016f2:	75 15                	jne    ffffffff80001709 <serial_printf+0x299>
ffffffff800016f4:	eb 1c                	jmp    ffffffff80001712 <serial_printf+0x2a2>
ffffffff800016f6:	66 2e 0f 1f 84 00 00 	cs nop WORD PTR [rax+rax*1+0x0]
ffffffff800016fd:	00 00 00 
ffffffff80001700:	49 83 c0 01          	add    r8,0x1
ffffffff80001704:	e8 67 fb ff ff       	call   ffffffff80001270 <serial_put_char.part.0>
ffffffff80001709:	41 0f be 38          	movsx  edi,BYTE PTR [r8]
ffffffff8000170d:	40 84 ff             	test   dil,dil
ffffffff80001710:	75 ee                	jne    ffffffff80001700 <serial_printf+0x290>
ffffffff80001712:	4d 89 de             	mov    r14,r11
ffffffff80001715:	e9 ab fe ff ff       	jmp    ffffffff800015c5 <serial_printf+0x155>
ffffffff8000171a:	66 0f 1f 44 00 00    	nop    WORD PTR [rax+rax*1+0x0]
ffffffff80001720:	8b 45 a8             	mov    eax,DWORD PTR [rbp-0x58]
ffffffff80001723:	83 f8 2f             	cmp    eax,0x2f
ffffffff80001726:	0f 87 ac 01 00 00    	ja     ffffffff800018d8 <serial_printf+0x468>
ffffffff8000172c:	89 c2                	mov    edx,eax
ffffffff8000172e:	83 c0 08             	add    eax,0x8
ffffffff80001731:	48 03 55 b8          	add    rdx,QWORD PTR [rbp-0x48]
ffffffff80001735:	89 45 a8             	mov    DWORD PTR [rbp-0x58],eax
ffffffff80001738:	8b 3a                	mov    edi,DWORD PTR [rdx]
ffffffff8000173a:	be 10 00 00 00       	mov    esi,0x10
ffffffff8000173f:	31 d2                	xor    edx,edx
ffffffff80001741:	e8 7a 58 00 00       	call   ffffffff80006fc0 <utoa_base>
ffffffff80001746:	49 89 c0             	mov    r8,rax
ffffffff80001749:	49 89 c2             	mov    r10,rax
ffffffff8000174c:	48 85 c0             	test   rax,rax
ffffffff8000174f:	0f 84 0b fe ff ff    	je     ffffffff80001560 <serial_printf+0xf0>
ffffffff80001755:	44 8b 1d a8 99 00 00 	mov    r11d,DWORD PTR [rip+0x99a8]        # ffffffff8000b104 <serial_available>
ffffffff8000175c:	45 85 db             	test   r11d,r11d
ffffffff8000175f:	75 18                	jne    ffffffff80001779 <serial_printf+0x309>
ffffffff80001761:	e9 5c fe ff ff       	jmp    ffffffff800015c2 <serial_printf+0x152>
ffffffff80001766:	66 2e 0f 1f 84 00 00 	cs nop WORD PTR [rax+rax*1+0x0]
ffffffff8000176d:	00 00 00 
ffffffff80001770:	49 83 c0 01          	add    r8,0x1
ffffffff80001774:	e8 f7 fa ff ff       	call   ffffffff80001270 <serial_put_char.part.0>
ffffffff80001779:	41 0f be 38          	movsx  edi,BYTE PTR [r8]
ffffffff8000177d:	40 84 ff             	test   dil,dil
ffffffff80001780:	75 ee                	jne    ffffffff80001770 <serial_printf+0x300>
ffffffff80001782:	e9 3b fe ff ff       	jmp    ffffffff800015c2 <serial_printf+0x152>
ffffffff80001787:	66 0f 1f 84 00 00 00 	nop    WORD PTR [rax+rax*1+0x0]
ffffffff8000178e:	00 00 
ffffffff80001790:	8b 45 a8             	mov    eax,DWORD PTR [rbp-0x58]
ffffffff80001793:	83 f8 2f             	cmp    eax,0x2f
ffffffff80001796:	0f 86 6c 01 00 00    	jbe    ffffffff80001908 <serial_printf+0x498>
ffffffff8000179c:	48 8b 55 b0          	mov    rdx,QWORD PTR [rbp-0x50]
ffffffff800017a0:	48 8d 42 08          	lea    rax,[rdx+0x8]
ffffffff800017a4:	48 89 45 b0          	mov    QWORD PTR [rbp-0x50],rax
ffffffff800017a8:	8b 3a                	mov    edi,DWORD PTR [rdx]
ffffffff800017aa:	be 0a 00 00 00       	mov    esi,0xa
ffffffff800017af:	31 d2                	xor    edx,edx
ffffffff800017b1:	e8 0a 58 00 00       	call   ffffffff80006fc0 <utoa_base>
ffffffff800017b6:	49 89 c0             	mov    r8,rax
ffffffff800017b9:	49 89 c3             	mov    r11,rax
ffffffff800017bc:	48 85 c0             	test   rax,rax
ffffffff800017bf:	0f 84 9b fd ff ff    	je     ffffffff80001560 <serial_printf+0xf0>
ffffffff800017c5:	44 8b 35 38 99 00 00 	mov    r14d,DWORD PTR [rip+0x9938]        # ffffffff8000b104 <serial_available>
ffffffff800017cc:	45 85 f6             	test   r14d,r14d
ffffffff800017cf:	75 18                	jne    ffffffff800017e9 <serial_printf+0x379>
ffffffff800017d1:	e9 3c ff ff ff       	jmp    ffffffff80001712 <serial_printf+0x2a2>
ffffffff800017d6:	66 2e 0f 1f 84 00 00 	cs nop WORD PTR [rax+rax*1+0x0]
ffffffff800017dd:	00 00 00 
ffffffff800017e0:	49 83 c0 01          	add    r8,0x1
ffffffff800017e4:	e8 87 fa ff ff       	call   ffffffff80001270 <serial_put_char.part.0>
ffffffff800017e9:	41 0f be 38          	movsx  edi,BYTE PTR [r8]
ffffffff800017ed:	40 84 ff             	test   dil,dil
ffffffff800017f0:	75 ee                	jne    ffffffff800017e0 <serial_printf+0x370>
ffffffff800017f2:	4d 89 de             	mov    r14,r11
ffffffff800017f5:	e9 cb fd ff ff       	jmp    ffffffff800015c5 <serial_printf+0x155>
ffffffff800017fa:	66 0f 1f 44 00 00    	nop    WORD PTR [rax+rax*1+0x0]
ffffffff80001800:	8b 45 a8             	mov    eax,DWORD PTR [rbp-0x58]
ffffffff80001803:	83 f8 2f             	cmp    eax,0x2f
ffffffff80001806:	0f 86 14 01 00 00    	jbe    ffffffff80001920 <serial_printf+0x4b0>
ffffffff8000180c:	48 8b 55 b0          	mov    rdx,QWORD PTR [rbp-0x50]
ffffffff80001810:	48 8d 42 08          	lea    rax,[rdx+0x8]
ffffffff80001814:	48 89 45 b0          	mov    QWORD PTR [rbp-0x50],rax
ffffffff80001818:	4c 8b 02             	mov    r8,QWORD PTR [rdx]
ffffffff8000181b:	4d 85 c0             	test   r8,r8
ffffffff8000181e:	0f 84 2c 01 00 00    	je     ffffffff80001950 <serial_printf+0x4e0>
ffffffff80001824:	8b 05 da 98 00 00    	mov    eax,DWORD PTR [rip+0x98da]        # ffffffff8000b104 <serial_available>
ffffffff8000182a:	85 c0                	test   eax,eax
ffffffff8000182c:	0f 84 2e fd ff ff    	je     ffffffff80001560 <serial_printf+0xf0>
ffffffff80001832:	41 0f be 38          	movsx  edi,BYTE PTR [r8]
ffffffff80001836:	40 84 ff             	test   dil,dil
ffffffff80001839:	0f 84 21 fd ff ff    	je     ffffffff80001560 <serial_printf+0xf0>
ffffffff8000183f:	90                   	nop
ffffffff80001840:	e8 2b fa ff ff       	call   ffffffff80001270 <serial_put_char.part.0>
ffffffff80001845:	41 0f be 78 01       	movsx  edi,BYTE PTR [r8+0x1]
ffffffff8000184a:	49 83 c0 01          	add    r8,0x1
ffffffff8000184e:	40 84 ff             	test   dil,dil
ffffffff80001851:	75 ed                	jne    ffffffff80001840 <serial_printf+0x3d0>
ffffffff80001853:	48 83 c3 02          	add    rbx,0x2
ffffffff80001857:	e9 74 fc ff ff       	jmp    ffffffff800014d0 <serial_printf+0x60>
ffffffff8000185c:	0f 1f 40 00          	nop    DWORD PTR [rax+0x0]
ffffffff80001860:	8b 0d 9e 98 00 00    	mov    ecx,DWORD PTR [rip+0x989e]        # ffffffff8000b104 <serial_available>
ffffffff80001866:	85 c9                	test   ecx,ecx
ffffffff80001868:	0f 84 f2 fc ff ff    	je     ffffffff80001560 <serial_printf+0xf0>
ffffffff8000186e:	b9 a0 86 01 00       	mov    ecx,0x186a0
ffffffff80001873:	ba fd 03 00 00       	mov    edx,0x3fd
ffffffff80001878:	eb 0b                	jmp    ffffffff80001885 <serial_printf+0x415>
ffffffff8000187a:	66 0f 1f 44 00 00    	nop    WORD PTR [rax+rax*1+0x0]
ffffffff80001880:	83 e9 01             	sub    ecx,0x1
ffffffff80001883:	72 0d                	jb     ffffffff80001892 <serial_printf+0x422>
ffffffff80001885:	ec                   	in     al,dx
ffffffff80001886:	a8 20                	test   al,0x20
ffffffff80001888:	74 f6                	je     ffffffff80001880 <serial_printf+0x410>
ffffffff8000188a:	85 c9                	test   ecx,ecx
ffffffff8000188c:	0f 84 ce fc ff ff    	je     ffffffff80001560 <serial_printf+0xf0>
ffffffff80001892:	b8 25 00 00 00       	mov    eax,0x25
ffffffff80001897:	ba f8 03 00 00       	mov    edx,0x3f8
ffffffff8000189c:	ee                   	out    dx,al
ffffffff8000189d:	e9 be fc ff ff       	jmp    ffffffff80001560 <serial_printf+0xf0>
ffffffff800018a2:	66 0f 1f 44 00 00    	nop    WORD PTR [rax+rax*1+0x0]
ffffffff800018a8:	48 8b 55 b0          	mov    rdx,QWORD PTR [rbp-0x50]
ffffffff800018ac:	48 8d 42 08          	lea    rax,[rdx+0x8]
ffffffff800018b0:	48 89 45 b0          	mov    QWORD PTR [rbp-0x50],rax
ffffffff800018b4:	e9 cf fd ff ff       	jmp    ffffffff80001688 <serial_printf+0x218>
ffffffff800018b9:	0f 1f 80 00 00 00 00 	nop    DWORD PTR [rax+0x0]
ffffffff800018c0:	89 c2                	mov    edx,eax
ffffffff800018c2:	83 c0 08             	add    eax,0x8
ffffffff800018c5:	48 03 55 b8          	add    rdx,QWORD PTR [rbp-0x48]
ffffffff800018c9:	89 45 a8             	mov    DWORD PTR [rbp-0x58],eax
ffffffff800018cc:	e9 2f fd ff ff       	jmp    ffffffff80001600 <serial_printf+0x190>
ffffffff800018d1:	0f 1f 80 00 00 00 00 	nop    DWORD PTR [rax+0x0]
ffffffff800018d8:	48 8b 55 b0          	mov    rdx,QWORD PTR [rbp-0x50]
ffffffff800018dc:	48 8d 42 08          	lea    rax,[rdx+0x8]
ffffffff800018e0:	48 89 45 b0          	mov    QWORD PTR [rbp-0x50],rax
ffffffff800018e4:	e9 4f fe ff ff       	jmp    ffffffff80001738 <serial_printf+0x2c8>
ffffffff800018e9:	0f 1f 80 00 00 00 00 	nop    DWORD PTR [rax+0x0]
ffffffff800018f0:	89 c2                	mov    edx,eax
ffffffff800018f2:	83 c0 08             	add    eax,0x8
ffffffff800018f5:	48 03 55 b8          	add    rdx,QWORD PTR [rbp-0x48]
ffffffff800018f9:	89 45 a8             	mov    DWORD PTR [rbp-0x58],eax
ffffffff800018fc:	e9 c7 fd ff ff       	jmp    ffffffff800016c8 <serial_printf+0x258>
ffffffff80001901:	0f 1f 80 00 00 00 00 	nop    DWORD PTR [rax+0x0]
ffffffff80001908:	89 c2                	mov    edx,eax
ffffffff8000190a:	83 c0 08             	add    eax,0x8
ffffffff8000190d:	48 03 55 b8          	add    rdx,QWORD PTR [rbp-0x48]
ffffffff80001911:	89 45 a8             	mov    DWORD PTR [rbp-0x58],eax
ffffffff80001914:	e9 8f fe ff ff       	jmp    ffffffff800017a8 <serial_printf+0x338>
ffffffff80001919:	0f 1f 80 00 00 00 00 	nop    DWORD PTR [rax+0x0]
ffffffff80001920:	89 c2                	mov    edx,eax
ffffffff80001922:	83 c0 08             	add    eax,0x8
ffffffff80001925:	48 03 55 b8          	add    rdx,QWORD PTR [rbp-0x48]
ffffffff80001929:	89 45 a8             	mov    DWORD PTR [rbp-0x58],eax
ffffffff8000192c:	e9 e7 fe ff ff       	jmp    ffffffff80001818 <serial_printf+0x3a8>
ffffffff80001931:	0f 1f 80 00 00 00 00 	nop    DWORD PTR [rax+0x0]
ffffffff80001938:	48 8b 55 b0          	mov    rdx,QWORD PTR [rbp-0x50]
ffffffff8000193c:	48 8d 42 08          	lea    rax,[rdx+0x8]
ffffffff80001940:	48 89 45 b0          	mov    QWORD PTR [rbp-0x50],rax
ffffffff80001944:	e9 3f fc ff ff       	jmp    ffffffff80001588 <serial_printf+0x118>
ffffffff80001949:	0f 1f 80 00 00 00 00 	nop    DWORD PTR [rax+0x0]
ffffffff80001950:	8b 05 ae 97 00 00    	mov    eax,DWORD PTR [rip+0x97ae]        # ffffffff8000b104 <serial_available>
ffffffff80001956:	85 c0                	test   eax,eax
ffffffff80001958:	0f 84 02 fc ff ff    	je     ffffffff80001560 <serial_printf+0xf0>
ffffffff8000195e:	bf 28 00 00 00       	mov    edi,0x28
ffffffff80001963:	49 c7 c0 27 81 00 80 	mov    r8,0xffffffff80008127
ffffffff8000196a:	e9 d1 fe ff ff       	jmp    ffffffff80001840 <serial_printf+0x3d0>
ffffffff8000196f:	90                   	nop

ffffffff80001970 <pic_init>:
ffffffff80001970:	b8 11 00 00 00       	mov    eax,0x11
ffffffff80001975:	e6 20                	out    0x20,al
ffffffff80001977:	e6 a0                	out    0xa0,al
ffffffff80001979:	89 f8                	mov    eax,edi
ffffffff8000197b:	e6 21                	out    0x21,al
ffffffff8000197d:	89 f0                	mov    eax,esi
ffffffff8000197f:	e6 a1                	out    0xa1,al
ffffffff80001981:	b8 04 00 00 00       	mov    eax,0x4
ffffffff80001986:	e6 21                	out    0x21,al
ffffffff80001988:	b8 02 00 00 00       	mov    eax,0x2
ffffffff8000198d:	e6 a1                	out    0xa1,al
ffffffff8000198f:	b8 01 00 00 00       	mov    eax,0x1
ffffffff80001994:	e6 21                	out    0x21,al
ffffffff80001996:	e6 a1                	out    0xa1,al
ffffffff80001998:	b8 fc ff ff ff       	mov    eax,0xfffffffc
ffffffff8000199d:	e6 21                	out    0x21,al
ffffffff8000199f:	b8 ef ff ff ff       	mov    eax,0xffffffef
ffffffff800019a4:	e6 a1                	out    0xa1,al
ffffffff800019a6:	c3                   	ret
ffffffff800019a7:	66 0f 1f 84 00 00 00 	nop    WORD PTR [rax+rax*1+0x0]
ffffffff800019ae:	00 00 

ffffffff800019b0 <timer_handle>:
ffffffff800019b0:	55                   	push   rbp
ffffffff800019b1:	48 89 e5             	mov    rbp,rsp
ffffffff800019b4:	e8 27 33 00 00       	call   ffffffff80004ce0 <sched_tick>
ffffffff800019b9:	48 89 c2             	mov    rdx,rax
ffffffff800019bc:	48 8b 05 4d 97 00 00 	mov    rax,QWORD PTR [rip+0x974d]        # ffffffff8000b110 <timer_ticks>
ffffffff800019c3:	48 83 c0 01          	add    rax,0x1
ffffffff800019c7:	48 89 05 42 97 00 00 	mov    QWORD PTR [rip+0x9742],rax        # ffffffff8000b110 <timer_ticks>
ffffffff800019ce:	48 8b 05 33 97 00 00 	mov    rax,QWORD PTR [rip+0x9733]        # ffffffff8000b108 <pit_countdown>
ffffffff800019d5:	48 85 c0             	test   rax,rax
ffffffff800019d8:	74 12                	je     ffffffff800019ec <timer_handle+0x3c>
ffffffff800019da:	48 8b 05 27 97 00 00 	mov    rax,QWORD PTR [rip+0x9727]        # ffffffff8000b108 <pit_countdown>
ffffffff800019e1:	48 83 e8 01          	sub    rax,0x1
ffffffff800019e5:	48 89 05 1c 97 00 00 	mov    QWORD PTR [rip+0x971c],rax        # ffffffff8000b108 <pit_countdown>
ffffffff800019ec:	48 89 d0             	mov    rax,rdx
ffffffff800019ef:	5d                   	pop    rbp
ffffffff800019f0:	c3                   	ret
ffffffff800019f1:	66 2e 0f 1f 84 00 00 	cs nop WORD PTR [rax+rax*1+0x0]
ffffffff800019f8:	00 00 00 
ffffffff800019fb:	0f 1f 44 00 00       	nop    DWORD PTR [rax+rax*1+0x0]

ffffffff80001a00 <irq_handler>:
ffffffff80001a00:	40 84 ff             	test   dil,dil
ffffffff80001a03:	74 3b                	je     ffffffff80001a40 <irq_handler+0x40>
ffffffff80001a05:	40 80 ff 01          	cmp    dil,0x1
ffffffff80001a09:	74 15                	je     ffffffff80001a20 <irq_handler+0x20>
ffffffff80001a0b:	48 c7 c7 78 86 00 80 	mov    rdi,0xffffffff80008678
ffffffff80001a12:	31 c0                	xor    eax,eax
ffffffff80001a14:	e9 c7 63 00 00       	jmp    ffffffff80007de0 <kprintf>
ffffffff80001a19:	0f 1f 80 00 00 00 00 	nop    DWORD PTR [rax+0x0]
ffffffff80001a20:	55                   	push   rbp
ffffffff80001a21:	bf 01 00 00 00       	mov    edi,0x1
ffffffff80001a26:	48 89 e5             	mov    rbp,rsp
ffffffff80001a29:	e8 02 f6 ff ff       	call   ffffffff80001030 <PS2_Keyboard_Interrupt>
ffffffff80001a2e:	b8 20 00 00 00       	mov    eax,0x20
ffffffff80001a33:	e6 20                	out    0x20,al
ffffffff80001a35:	5d                   	pop    rbp
ffffffff80001a36:	c3                   	ret
ffffffff80001a37:	66 0f 1f 84 00 00 00 	nop    WORD PTR [rax+rax*1+0x0]
ffffffff80001a3e:	00 00 
ffffffff80001a40:	c3                   	ret
ffffffff80001a41:	66 2e 0f 1f 84 00 00 	cs nop WORD PTR [rax+rax*1+0x0]
ffffffff80001a48:	00 00 00 
ffffffff80001a4b:	0f 1f 44 00 00       	nop    DWORD PTR [rax+rax*1+0x0]

ffffffff80001a50 <framebuffer_get_addr>:
ffffffff80001a50:	48 8b 05 91 e6 ff ff 	mov    rax,QWORD PTR [rip+0xffffffffffffe691]        # ffffffff800000e8 <framebuffer_request+0x28>
ffffffff80001a57:	48 63 ff             	movsxd rdi,edi
ffffffff80001a5a:	48 8b 40 10          	mov    rax,QWORD PTR [rax+0x10]
ffffffff80001a5e:	48 8b 04 f8          	mov    rax,QWORD PTR [rax+rdi*8]
ffffffff80001a62:	48 8b 00             	mov    rax,QWORD PTR [rax]
ffffffff80001a65:	c3                   	ret
ffffffff80001a66:	66 2e 0f 1f 84 00 00 	cs nop WORD PTR [rax+rax*1+0x0]
ffffffff80001a6d:	00 00 00 

ffffffff80001a70 <framebuffer_get_pitch>:
ffffffff80001a70:	48 8b 05 71 e6 ff ff 	mov    rax,QWORD PTR [rip+0xffffffffffffe671]        # ffffffff800000e8 <framebuffer_request+0x28>
ffffffff80001a77:	48 63 ff             	movsxd rdi,edi
ffffffff80001a7a:	48 8b 40 10          	mov    rax,QWORD PTR [rax+0x10]
ffffffff80001a7e:	48 8b 04 f8          	mov    rax,QWORD PTR [rax+rdi*8]
ffffffff80001a82:	48 8b 40 18          	mov    rax,QWORD PTR [rax+0x18]
ffffffff80001a86:	48 c1 e8 02          	shr    rax,0x2
ffffffff80001a8a:	c3                   	ret
ffffffff80001a8b:	0f 1f 44 00 00       	nop    DWORD PTR [rax+rax*1+0x0]

ffffffff80001a90 <framebuffer_get_width>:
ffffffff80001a90:	48 8b 05 51 e6 ff ff 	mov    rax,QWORD PTR [rip+0xffffffffffffe651]        # ffffffff800000e8 <framebuffer_request+0x28>
ffffffff80001a97:	48 63 ff             	movsxd rdi,edi
ffffffff80001a9a:	48 8b 40 10          	mov    rax,QWORD PTR [rax+0x10]
ffffffff80001a9e:	48 8b 04 f8          	mov    rax,QWORD PTR [rax+rdi*8]
ffffffff80001aa2:	48 8b 40 08          	mov    rax,QWORD PTR [rax+0x8]
ffffffff80001aa6:	c3                   	ret
ffffffff80001aa7:	66 0f 1f 84 00 00 00 	nop    WORD PTR [rax+rax*1+0x0]
ffffffff80001aae:	00 00 

ffffffff80001ab0 <framebuffer_get_height>:
ffffffff80001ab0:	48 8b 05 31 e6 ff ff 	mov    rax,QWORD PTR [rip+0xffffffffffffe631]        # ffffffff800000e8 <framebuffer_request+0x28>
ffffffff80001ab7:	48 63 ff             	movsxd rdi,edi
ffffffff80001aba:	48 8b 40 10          	mov    rax,QWORD PTR [rax+0x10]
ffffffff80001abe:	48 8b 04 f8          	mov    rax,QWORD PTR [rax+rdi*8]
ffffffff80001ac2:	48 8b 40 10          	mov    rax,QWORD PTR [rax+0x10]
ffffffff80001ac6:	c3                   	ret
ffffffff80001ac7:	66 2e 0f 1f 84 00 00 	cs nop WORD PTR [rax+rax*1+0x0]
ffffffff80001ace:	00 00 00 
ffffffff80001ad1:	66 2e 0f 1f 84 00 00 	cs nop WORD PTR [rax+rax*1+0x0]
ffffffff80001ad8:	00 00 00 
ffffffff80001adb:	0f 1f 44 00 00       	nop    DWORD PTR [rax+rax*1+0x0]

ffffffff80001ae0 <framebuffer_ansi_char>:
ffffffff80001ae0:	48 85 ff             	test   rdi,rdi
ffffffff80001ae3:	74 47                	je     ffffffff80001b2c <framebuffer_ansi_char+0x4c>
ffffffff80001ae5:	48 85 f6             	test   rsi,rsi
ffffffff80001ae8:	74 42                	je     ffffffff80001b2c <framebuffer_ansi_char+0x4c>
ffffffff80001aea:	8b 46 08             	mov    eax,DWORD PTR [rsi+0x8]
ffffffff80001aed:	85 c0                	test   eax,eax
ffffffff80001aef:	75 2f                	jne    ffffffff80001b20 <framebuffer_ansi_char+0x40>
ffffffff80001af1:	8b 4e 0c             	mov    ecx,DWORD PTR [rsi+0xc]
ffffffff80001af4:	85 c9                	test   ecx,ecx
ffffffff80001af6:	74 1a                	je     ffffffff80001b12 <framebuffer_ansi_char+0x32>
ffffffff80001af8:	8d 4a d0             	lea    ecx,[rdx-0x30]
ffffffff80001afb:	80 f9 09             	cmp    cl,0x9
ffffffff80001afe:	76 40                	jbe    ffffffff80001b40 <framebuffer_ansi_char+0x60>
ffffffff80001b00:	80 fa 3b             	cmp    dl,0x3b
ffffffff80001b03:	0f 84 77 01 00 00    	je     ffffffff80001c80 <framebuffer_ansi_char+0x1a0>
ffffffff80001b09:	80 fa 6d             	cmp    dl,0x6d
ffffffff80001b0c:	0f 84 ae 00 00 00    	je     ffffffff80001bc0 <framebuffer_ansi_char+0xe0>
ffffffff80001b12:	80 fa 1b             	cmp    dl,0x1b
ffffffff80001b15:	74 19                	je     ffffffff80001b30 <framebuffer_ansi_char+0x50>
ffffffff80001b17:	0f be f2             	movsx  esi,dl
ffffffff80001b1a:	e9 91 01 00 00       	jmp    ffffffff80001cb0 <framebuffer_put_char>
ffffffff80001b1f:	90                   	nop
ffffffff80001b20:	80 fa 5b             	cmp    dl,0x5b
ffffffff80001b23:	74 3b                	je     ffffffff80001b60 <framebuffer_ansi_char+0x80>
ffffffff80001b25:	c7 46 08 00 00 00 00 	mov    DWORD PTR [rsi+0x8],0x0
ffffffff80001b2c:	c3                   	ret
ffffffff80001b2d:	0f 1f 00             	nop    DWORD PTR [rax]
ffffffff80001b30:	c7 46 08 01 00 00 00 	mov    DWORD PTR [rsi+0x8],0x1
ffffffff80001b37:	c3                   	ret
ffffffff80001b38:	0f 1f 84 00 00 00 00 	nop    DWORD PTR [rax+rax*1+0x0]
ffffffff80001b3f:	00 
ffffffff80001b40:	8b 46 54             	mov    eax,DWORD PTR [rsi+0x54]
ffffffff80001b43:	0f be d2             	movsx  edx,dl
ffffffff80001b46:	85 c0                	test   eax,eax
ffffffff80001b48:	75 56                	jne    ffffffff80001ba0 <framebuffer_ansi_char+0xc0>
ffffffff80001b4a:	48 63 46 50          	movsxd rax,DWORD PTR [rsi+0x50]
ffffffff80001b4e:	48 83 c0 04          	add    rax,0x4
ffffffff80001b52:	8b 0c 86             	mov    ecx,DWORD PTR [rsi+rax*4]
ffffffff80001b55:	8d 0c 89             	lea    ecx,[rcx+rcx*4]
ffffffff80001b58:	8d 54 4a d0          	lea    edx,[rdx+rcx*2-0x30]
ffffffff80001b5c:	89 14 86             	mov    DWORD PTR [rsi+rax*4],edx
ffffffff80001b5f:	c3                   	ret
ffffffff80001b60:	55                   	push   rbp
ffffffff80001b61:	48 8d 7e 10          	lea    rdi,[rsi+0x10]
ffffffff80001b65:	ba 40 00 00 00       	mov    edx,0x40
ffffffff80001b6a:	48 89 e5             	mov    rbp,rsp
ffffffff80001b6d:	48 83 ec 10          	sub    rsp,0x10
ffffffff80001b71:	c7 46 0c 01 00 00 00 	mov    DWORD PTR [rsi+0xc],0x1
ffffffff80001b78:	c7 46 50 00 00 00 00 	mov    DWORD PTR [rsi+0x50],0x0
ffffffff80001b7f:	48 89 75 f8          	mov    QWORD PTR [rbp-0x8],rsi
ffffffff80001b83:	31 f6                	xor    esi,esi
ffffffff80001b85:	e8 66 56 00 00       	call   ffffffff800071f0 <memset>
ffffffff80001b8a:	48 8b 4d f8          	mov    rcx,QWORD PTR [rbp-0x8]
ffffffff80001b8e:	c7 41 54 00 00 00 00 	mov    DWORD PTR [rcx+0x54],0x0
ffffffff80001b95:	c7 41 08 00 00 00 00 	mov    DWORD PTR [rcx+0x8],0x0
ffffffff80001b9c:	c9                   	leave
ffffffff80001b9d:	c3                   	ret
ffffffff80001b9e:	66 90                	xchg   ax,ax
ffffffff80001ba0:	83 e8 01             	sub    eax,0x1
ffffffff80001ba3:	48 98                	cdqe
ffffffff80001ba5:	48 83 c0 14          	add    rax,0x14
ffffffff80001ba9:	8b 4c 86 08          	mov    ecx,DWORD PTR [rsi+rax*4+0x8]
ffffffff80001bad:	8d 0c 89             	lea    ecx,[rcx+rcx*4]
ffffffff80001bb0:	8d 54 4a d0          	lea    edx,[rdx+rcx*2-0x30]
ffffffff80001bb4:	89 54 86 08          	mov    DWORD PTR [rsi+rax*4+0x8],edx
ffffffff80001bb8:	c3                   	ret
ffffffff80001bb9:	0f 1f 80 00 00 00 00 	nop    DWORD PTR [rax+0x0]
ffffffff80001bc0:	44 8b 46 50          	mov    r8d,DWORD PTR [rsi+0x50]
ffffffff80001bc4:	45 85 c0             	test   r8d,r8d
ffffffff80001bc7:	79 2c                	jns    ffffffff80001bf5 <framebuffer_ansi_char+0x115>
ffffffff80001bc9:	e9 c2 00 00 00       	jmp    ffffffff80001c90 <framebuffer_ansi_char+0x1b0>
ffffffff80001bce:	0f 1f 80 00 00 00 00 	nop    DWORD PTR [rax+0x0]
ffffffff80001bd5:	66 66 2e 0f 1f 84 00 	data16 cs nop WORD PTR [rax+rax*1+0x0]
ffffffff80001bdc:	00 00 00 00 
ffffffff80001be0:	b9 ff ff ff ff       	mov    ecx,0xffffffff
ffffffff80001be5:	48 89 4f 28          	mov    QWORD PTR [rdi+0x28],rcx
ffffffff80001be9:	83 c0 01             	add    eax,0x1
ffffffff80001bec:	41 39 c0             	cmp    r8d,eax
ffffffff80001bef:	0f 8c 9b 00 00 00    	jl     ffffffff80001c90 <framebuffer_ansi_char+0x1b0>
ffffffff80001bf5:	48 63 d0             	movsxd rdx,eax
ffffffff80001bf8:	48 8d 0c 96          	lea    rcx,[rsi+rdx*4]
ffffffff80001bfc:	8b 51 10             	mov    edx,DWORD PTR [rcx+0x10]
ffffffff80001bff:	85 d2                	test   edx,edx
ffffffff80001c01:	74 dd                	je     ffffffff80001be0 <framebuffer_ansi_char+0x100>
ffffffff80001c03:	83 fa 26             	cmp    edx,0x26
ffffffff80001c06:	74 40                	je     ffffffff80001c48 <framebuffer_ansi_char+0x168>
ffffffff80001c08:	83 fa 30             	cmp    edx,0x30
ffffffff80001c0b:	75 dc                	jne    ffffffff80001be9 <framebuffer_ansi_char+0x109>
ffffffff80001c0d:	83 79 14 02          	cmp    DWORD PTR [rcx+0x14],0x2
ffffffff80001c11:	75 d6                	jne    ffffffff80001be9 <framebuffer_ansi_char+0x109>
ffffffff80001c13:	8b 51 18             	mov    edx,DWORD PTR [rcx+0x18]
ffffffff80001c16:	44 8b 49 1c          	mov    r9d,DWORD PTR [rcx+0x1c]
ffffffff80001c1a:	83 c0 05             	add    eax,0x5
ffffffff80001c1d:	0f b6 49 20          	movzx  ecx,BYTE PTR [rcx+0x20]
ffffffff80001c21:	c1 e2 10             	shl    edx,0x10
ffffffff80001c24:	41 c1 e1 08          	shl    r9d,0x8
ffffffff80001c28:	81 e2 00 00 ff 00    	and    edx,0xff0000
ffffffff80001c2e:	45 0f b7 c9          	movzx  r9d,r9w
ffffffff80001c32:	44 09 ca             	or     edx,r9d
ffffffff80001c35:	09 ca                	or     edx,ecx
ffffffff80001c37:	81 ca 00 00 00 ff    	or     edx,0xff000000
ffffffff80001c3d:	89 57 2c             	mov    DWORD PTR [rdi+0x2c],edx
ffffffff80001c40:	eb aa                	jmp    ffffffff80001bec <framebuffer_ansi_char+0x10c>
ffffffff80001c42:	66 0f 1f 44 00 00    	nop    WORD PTR [rax+rax*1+0x0]
ffffffff80001c48:	83 79 14 02          	cmp    DWORD PTR [rcx+0x14],0x2
ffffffff80001c4c:	75 9b                	jne    ffffffff80001be9 <framebuffer_ansi_char+0x109>
ffffffff80001c4e:	8b 51 18             	mov    edx,DWORD PTR [rcx+0x18]
ffffffff80001c51:	44 8b 49 1c          	mov    r9d,DWORD PTR [rcx+0x1c]
ffffffff80001c55:	83 c0 05             	add    eax,0x5
ffffffff80001c58:	0f b6 49 20          	movzx  ecx,BYTE PTR [rcx+0x20]
ffffffff80001c5c:	c1 e2 10             	shl    edx,0x10
ffffffff80001c5f:	41 c1 e1 08          	shl    r9d,0x8
ffffffff80001c63:	81 e2 00 00 ff 00    	and    edx,0xff0000
ffffffff80001c69:	45 0f b7 c9          	movzx  r9d,r9w
ffffffff80001c6d:	44 09 ca             	or     edx,r9d
ffffffff80001c70:	09 ca                	or     edx,ecx
ffffffff80001c72:	81 ca 00 00 00 ff    	or     edx,0xff000000
ffffffff80001c78:	89 57 28             	mov    DWORD PTR [rdi+0x28],edx
ffffffff80001c7b:	e9 6c ff ff ff       	jmp    ffffffff80001bec <framebuffer_ansi_char+0x10c>
ffffffff80001c80:	8b 46 54             	mov    eax,DWORD PTR [rsi+0x54]
ffffffff80001c83:	85 c0                	test   eax,eax
ffffffff80001c85:	74 19                	je     ffffffff80001ca0 <framebuffer_ansi_char+0x1c0>
ffffffff80001c87:	83 c0 01             	add    eax,0x1
ffffffff80001c8a:	89 46 54             	mov    DWORD PTR [rsi+0x54],eax
ffffffff80001c8d:	c3                   	ret
ffffffff80001c8e:	66 90                	xchg   ax,ax
ffffffff80001c90:	c7 46 0c 00 00 00 00 	mov    DWORD PTR [rsi+0xc],0x0
ffffffff80001c97:	c3                   	ret
ffffffff80001c98:	0f 1f 84 00 00 00 00 	nop    DWORD PTR [rax+rax*1+0x0]
ffffffff80001c9f:	00 
ffffffff80001ca0:	83 46 50 01          	add    DWORD PTR [rsi+0x50],0x1
ffffffff80001ca4:	c3                   	ret
ffffffff80001ca5:	66 2e 0f 1f 84 00 00 	cs nop WORD PTR [rax+rax*1+0x0]
ffffffff80001cac:	00 00 00 
ffffffff80001caf:	90                   	nop

ffffffff80001cb0 <framebuffer_put_char>:
ffffffff80001cb0:	48 85 ff             	test   rdi,rdi
ffffffff80001cb3:	0f 84 47 02 00 00    	je     ffffffff80001f00 <framebuffer_put_char+0x250>
ffffffff80001cb9:	4c 8b 4f 20          	mov    r9,QWORD PTR [rdi+0x20]
ffffffff80001cbd:	4d 85 c9             	test   r9,r9
ffffffff80001cc0:	0f 84 3a 02 00 00    	je     ffffffff80001f00 <framebuffer_put_char+0x250>
ffffffff80001cc6:	55                   	push   rbp
ffffffff80001cc7:	49 89 f8             	mov    r8,rdi
ffffffff80001cca:	48 89 e5             	mov    rbp,rsp
ffffffff80001ccd:	41 57                	push   r15
ffffffff80001ccf:	41 56                	push   r14
ffffffff80001cd1:	41 55                	push   r13
ffffffff80001cd3:	41 54                	push   r12
ffffffff80001cd5:	53                   	push   rbx
ffffffff80001cd6:	48 83 ec 18          	sub    rsp,0x18
ffffffff80001cda:	40 80 fe 0a          	cmp    sil,0xa
ffffffff80001cde:	0f 84 4c 02 00 00    	je     ffffffff80001f30 <framebuffer_put_char+0x280>
ffffffff80001ce4:	7f 32                	jg     ffffffff80001d18 <framebuffer_put_char+0x68>
ffffffff80001ce6:	40 80 fe 08          	cmp    sil,0x8
ffffffff80001cea:	0f 84 18 02 00 00    	je     ffffffff80001f08 <framebuffer_put_char+0x258>
ffffffff80001cf0:	40 80 fe 09          	cmp    sil,0x9
ffffffff80001cf4:	0f 85 86 00 00 00    	jne    ffffffff80001d80 <framebuffer_put_char+0xd0>
ffffffff80001cfa:	48 8b 47 30          	mov    rax,QWORD PTR [rdi+0x30]
ffffffff80001cfe:	41 8b 51 14          	mov    edx,DWORD PTR [r9+0x14]
ffffffff80001d02:	48 8b 4f 38          	mov    rcx,QWORD PTR [rdi+0x38]
ffffffff80001d06:	4c 8d 58 08          	lea    r11,[rax+0x8]
ffffffff80001d0a:	49 83 e3 f8          	and    r11,0xfffffffffffffff8
ffffffff80001d0e:	4c 89 5f 30          	mov    QWORD PTR [rdi+0x30],r11
ffffffff80001d12:	eb 1d                	jmp    ffffffff80001d31 <framebuffer_put_char+0x81>
ffffffff80001d14:	0f 1f 40 00          	nop    DWORD PTR [rax+0x0]
ffffffff80001d18:	40 80 fe 0d          	cmp    sil,0xd
ffffffff80001d1c:	75 62                	jne    ffffffff80001d80 <framebuffer_put_char+0xd0>
ffffffff80001d1e:	48 c7 47 30 00 00 00 	mov    QWORD PTR [rdi+0x30],0x0
ffffffff80001d25:	00 
ffffffff80001d26:	41 8b 51 14          	mov    edx,DWORD PTR [r9+0x14]
ffffffff80001d2a:	45 31 db             	xor    r11d,r11d
ffffffff80001d2d:	48 8b 4f 38          	mov    rcx,QWORD PTR [rdi+0x38]
ffffffff80001d31:	49 8b 70 10          	mov    rsi,QWORD PTR [r8+0x10]
ffffffff80001d35:	41 89 d4             	mov    r12d,edx
ffffffff80001d38:	31 d2                	xor    edx,edx
ffffffff80001d3a:	41 8b 79 10          	mov    edi,DWORD PTR [r9+0x10]
ffffffff80001d3e:	48 89 f0             	mov    rax,rsi
ffffffff80001d41:	49 f7 f4             	div    r12
ffffffff80001d44:	31 d2                	xor    edx,edx
ffffffff80001d46:	48 89 c3             	mov    rbx,rax
ffffffff80001d49:	49 8b 40 08          	mov    rax,QWORD PTR [r8+0x8]
ffffffff80001d4d:	48 f7 f7             	div    rdi
ffffffff80001d50:	49 39 c3             	cmp    r11,rax
ffffffff80001d53:	72 10                	jb     ffffffff80001d65 <framebuffer_put_char+0xb5>
ffffffff80001d55:	48 83 c1 01          	add    rcx,0x1
ffffffff80001d59:	49 c7 40 30 00 00 00 	mov    QWORD PTR [r8+0x30],0x0
ffffffff80001d60:	00 
ffffffff80001d61:	49 89 48 38          	mov    QWORD PTR [r8+0x38],rcx
ffffffff80001d65:	48 39 d9             	cmp    rcx,rbx
ffffffff80001d68:	0f 83 02 01 00 00    	jae    ffffffff80001e70 <framebuffer_put_char+0x1c0>
ffffffff80001d6e:	48 83 c4 18          	add    rsp,0x18
ffffffff80001d72:	5b                   	pop    rbx
ffffffff80001d73:	41 5c                	pop    r12
ffffffff80001d75:	41 5d                	pop    r13
ffffffff80001d77:	41 5e                	pop    r14
ffffffff80001d79:	41 5f                	pop    r15
ffffffff80001d7b:	5d                   	pop    rbp
ffffffff80001d7c:	c3                   	ret
ffffffff80001d7d:	0f 1f 00             	nop    DWORD PTR [rax]
ffffffff80001d80:	40 80 fe 1f          	cmp    sil,0x1f
ffffffff80001d84:	76 e8                	jbe    ffffffff80001d6e <framebuffer_put_char+0xbe>
ffffffff80001d86:	66 40 0f be f6       	movsx  si,sil
ffffffff80001d8b:	4c 89 cf             	mov    rdi,r9
ffffffff80001d8e:	4c 89 45 c8          	mov    QWORD PTR [rbp-0x38],r8
ffffffff80001d92:	0f b7 f6             	movzx  esi,si
ffffffff80001d95:	e8 56 04 00 00       	call   ffffffff800021f0 <psf_get_glyph_font>
ffffffff80001d9a:	49 89 c7             	mov    r15,rax
ffffffff80001d9d:	48 85 c0             	test   rax,rax
ffffffff80001da0:	74 cc                	je     ffffffff80001d6e <framebuffer_put_char+0xbe>
ffffffff80001da2:	4c 8b 45 c8          	mov    r8,QWORD PTR [rbp-0x38]
ffffffff80001da6:	4d 8b 48 20          	mov    r9,QWORD PTR [r8+0x20]
ffffffff80001daa:	41 8b 51 14          	mov    edx,DWORD PTR [r9+0x14]
ffffffff80001dae:	85 d2                	test   edx,edx
ffffffff80001db0:	0f 84 9a 01 00 00    	je     ffffffff80001f50 <framebuffer_put_char+0x2a0>
ffffffff80001db6:	49 8b 40 38          	mov    rax,QWORD PTR [r8+0x38]
ffffffff80001dba:	4d 8b 58 30          	mov    r11,QWORD PTR [r8+0x30]
ffffffff80001dbe:	31 db                	xor    ebx,ebx
ffffffff80001dc0:	48 89 45 c0          	mov    QWORD PTR [rbp-0x40],rax
ffffffff80001dc4:	41 8b 41 10          	mov    eax,DWORD PTR [r9+0x10]
ffffffff80001dc8:	0f 1f 84 00 00 00 00 	nop    DWORD PTR [rax+rax*1+0x0]
ffffffff80001dcf:	00 
ffffffff80001dd0:	85 c0                	test   eax,eax
ffffffff80001dd2:	74 7a                	je     ffffffff80001e4e <framebuffer_put_char+0x19e>
ffffffff80001dd4:	4d 8b 60 18          	mov    r12,QWORD PTR [r8+0x18]
ffffffff80001dd8:	4d 8b 28             	mov    r13,QWORD PTR [r8]
ffffffff80001ddb:	41 89 de             	mov    r14d,ebx
ffffffff80001dde:	31 f6                	xor    esi,esi
ffffffff80001de0:	4c 89 65 c8          	mov    QWORD PTR [rbp-0x38],r12
ffffffff80001de4:	90                   	nop
ffffffff80001de5:	66 66 2e 0f 1f 84 00 	data16 cs nop WORD PTR [rax+rax*1+0x0]
ffffffff80001dec:	00 00 00 00 
ffffffff80001df0:	45 8b 51 18          	mov    r10d,DWORD PTR [r9+0x18]
ffffffff80001df4:	89 f1                	mov    ecx,esi
ffffffff80001df6:	89 d2                	mov    edx,edx
ffffffff80001df8:	89 c0                	mov    eax,eax
ffffffff80001dfa:	c1 e9 03             	shr    ecx,0x3
ffffffff80001dfd:	48 0f af 55 c0       	imul   rdx,QWORD PTR [rbp-0x40]
ffffffff80001e02:	41 bc 80 00 00 00    	mov    r12d,0x80
ffffffff80001e08:	41 8b 78 2c          	mov    edi,DWORD PTR [r8+0x2c]
ffffffff80001e0c:	45 0f af d6          	imul   r10d,r14d
ffffffff80001e10:	49 0f af c3          	imul   rax,r11
ffffffff80001e14:	48 01 da             	add    rdx,rbx
ffffffff80001e17:	41 01 ca             	add    r10d,ecx
ffffffff80001e1a:	89 f1                	mov    ecx,esi
ffffffff80001e1c:	83 e1 07             	and    ecx,0x7
ffffffff80001e1f:	45 89 d2             	mov    r10d,r10d
ffffffff80001e22:	41 d3 fc             	sar    r12d,cl
ffffffff80001e25:	47 84 24 17          	test   BYTE PTR [r15+r10*1],r12b
ffffffff80001e29:	41 0f 45 78 28       	cmovne edi,DWORD PTR [r8+0x28]
ffffffff80001e2e:	48 01 f0             	add    rax,rsi
ffffffff80001e31:	48 0f af 55 c8       	imul   rdx,QWORD PTR [rbp-0x38]
ffffffff80001e36:	48 83 c6 01          	add    rsi,0x1
ffffffff80001e3a:	48 01 d0             	add    rax,rdx
ffffffff80001e3d:	41 89 7c 85 00       	mov    DWORD PTR [r13+rax*4+0x0],edi
ffffffff80001e42:	41 8b 41 10          	mov    eax,DWORD PTR [r9+0x10]
ffffffff80001e46:	41 8b 51 14          	mov    edx,DWORD PTR [r9+0x14]
ffffffff80001e4a:	39 c6                	cmp    esi,eax
ffffffff80001e4c:	72 a2                	jb     ffffffff80001df0 <framebuffer_put_char+0x140>
ffffffff80001e4e:	48 83 c3 01          	add    rbx,0x1
ffffffff80001e52:	39 d3                	cmp    ebx,edx
ffffffff80001e54:	0f 82 76 ff ff ff    	jb     ffffffff80001dd0 <framebuffer_put_char+0x120>
ffffffff80001e5a:	49 83 c3 01          	add    r11,0x1
ffffffff80001e5e:	48 8b 4d c0          	mov    rcx,QWORD PTR [rbp-0x40]
ffffffff80001e62:	4d 89 58 30          	mov    QWORD PTR [r8+0x30],r11
ffffffff80001e66:	e9 c6 fe ff ff       	jmp    ffffffff80001d31 <framebuffer_put_char+0x81>
ffffffff80001e6b:	0f 1f 44 00 00       	nop    DWORD PTR [rax+rax*1+0x0]
ffffffff80001e70:	49 8b 50 18          	mov    rdx,QWORD PTR [r8+0x18]
ffffffff80001e74:	4c 89 e0             	mov    rax,r12
ffffffff80001e77:	49 8b 38             	mov    rdi,QWORD PTR [r8]
ffffffff80001e7a:	4c 89 45 c8          	mov    QWORD PTR [rbp-0x38],r8
ffffffff80001e7e:	48 0f af c2          	imul   rax,rdx
ffffffff80001e82:	48 0f af f2          	imul   rsi,rdx
ffffffff80001e86:	48 29 c6             	sub    rsi,rax
ffffffff80001e89:	48 8d 14 b5 00 00 00 	lea    rdx,[rsi*4+0x0]
ffffffff80001e90:	00 
ffffffff80001e91:	48 8d 34 87          	lea    rsi,[rdi+rax*4]
ffffffff80001e95:	e8 a6 53 00 00       	call   ffffffff80007240 <memmove>
ffffffff80001e9a:	4c 8b 45 c8          	mov    r8,QWORD PTR [rbp-0x38]
ffffffff80001e9e:	4c 89 e1             	mov    rcx,r12
ffffffff80001ea1:	49 8b 40 18          	mov    rax,QWORD PTR [r8+0x18]
ffffffff80001ea5:	48 0f af c8          	imul   rcx,rax
ffffffff80001ea9:	48 85 c9             	test   rcx,rcx
ffffffff80001eac:	74 32                	je     ffffffff80001ee0 <framebuffer_put_char+0x230>
ffffffff80001eae:	49 8b 50 10          	mov    rdx,QWORD PTR [r8+0x10]
ffffffff80001eb2:	49 8b 30             	mov    rsi,QWORD PTR [r8]
ffffffff80001eb5:	4c 29 e2             	sub    rdx,r12
ffffffff80001eb8:	48 0f af d0          	imul   rdx,rax
ffffffff80001ebc:	48 01 d1             	add    rcx,rdx
ffffffff80001ebf:	48 8d 04 96          	lea    rax,[rsi+rdx*4]
ffffffff80001ec3:	48 8d 0c 8e          	lea    rcx,[rsi+rcx*4]
ffffffff80001ec7:	66 0f 1f 84 00 00 00 	nop    WORD PTR [rax+rax*1+0x0]
ffffffff80001ece:	00 00 
ffffffff80001ed0:	41 8b 50 2c          	mov    edx,DWORD PTR [r8+0x2c]
ffffffff80001ed4:	48 83 c0 04          	add    rax,0x4
ffffffff80001ed8:	89 50 fc             	mov    DWORD PTR [rax-0x4],edx
ffffffff80001edb:	48 39 c1             	cmp    rcx,rax
ffffffff80001ede:	75 f0                	jne    ffffffff80001ed0 <framebuffer_put_char+0x220>
ffffffff80001ee0:	48 83 eb 01          	sub    rbx,0x1
ffffffff80001ee4:	49 89 58 38          	mov    QWORD PTR [r8+0x38],rbx
ffffffff80001ee8:	48 83 c4 18          	add    rsp,0x18
ffffffff80001eec:	5b                   	pop    rbx
ffffffff80001eed:	41 5c                	pop    r12
ffffffff80001eef:	41 5d                	pop    r13
ffffffff80001ef1:	41 5e                	pop    r14
ffffffff80001ef3:	41 5f                	pop    r15
ffffffff80001ef5:	5d                   	pop    rbp
ffffffff80001ef6:	c3                   	ret
ffffffff80001ef7:	66 0f 1f 84 00 00 00 	nop    WORD PTR [rax+rax*1+0x0]
ffffffff80001efe:	00 00 
ffffffff80001f00:	c3                   	ret
ffffffff80001f01:	0f 1f 80 00 00 00 00 	nop    DWORD PTR [rax+0x0]
ffffffff80001f08:	4c 8b 5f 30          	mov    r11,QWORD PTR [rdi+0x30]
ffffffff80001f0c:	48 8b 4f 38          	mov    rcx,QWORD PTR [rdi+0x38]
ffffffff80001f10:	41 8b 51 14          	mov    edx,DWORD PTR [r9+0x14]
ffffffff80001f14:	4d 85 db             	test   r11,r11
ffffffff80001f17:	0f 84 14 fe ff ff    	je     ffffffff80001d31 <framebuffer_put_char+0x81>
ffffffff80001f1d:	49 83 eb 01          	sub    r11,0x1
ffffffff80001f21:	4c 89 5f 30          	mov    QWORD PTR [rdi+0x30],r11
ffffffff80001f25:	e9 07 fe ff ff       	jmp    ffffffff80001d31 <framebuffer_put_char+0x81>
ffffffff80001f2a:	66 0f 1f 44 00 00    	nop    WORD PTR [rax+rax*1+0x0]
ffffffff80001f30:	48 8b 47 38          	mov    rax,QWORD PTR [rdi+0x38]
ffffffff80001f34:	48 c7 47 30 00 00 00 	mov    QWORD PTR [rdi+0x30],0x0
ffffffff80001f3b:	00 
ffffffff80001f3c:	45 31 db             	xor    r11d,r11d
ffffffff80001f3f:	41 8b 51 14          	mov    edx,DWORD PTR [r9+0x14]
ffffffff80001f43:	48 8d 48 01          	lea    rcx,[rax+0x1]
ffffffff80001f47:	48 89 4f 38          	mov    QWORD PTR [rdi+0x38],rcx
ffffffff80001f4b:	e9 e1 fd ff ff       	jmp    ffffffff80001d31 <framebuffer_put_char+0x81>
ffffffff80001f50:	49 8b 40 38          	mov    rax,QWORD PTR [r8+0x38]
ffffffff80001f54:	4d 8b 58 30          	mov    r11,QWORD PTR [r8+0x30]
ffffffff80001f58:	48 89 45 c0          	mov    QWORD PTR [rbp-0x40],rax
ffffffff80001f5c:	e9 f9 fe ff ff       	jmp    ffffffff80001e5a <framebuffer_put_char+0x1aa>
ffffffff80001f61:	66 2e 0f 1f 84 00 00 	cs nop WORD PTR [rax+rax*1+0x0]
ffffffff80001f68:	00 00 00 
ffffffff80001f6b:	0f 1f 44 00 00       	nop    DWORD PTR [rax+rax*1+0x0]

ffffffff80001f70 <framebuffer_write_string>:
ffffffff80001f70:	55                   	push   rbp
ffffffff80001f71:	48 89 e5             	mov    rbp,rsp
ffffffff80001f74:	41 55                	push   r13
ffffffff80001f76:	41 54                	push   r12
ffffffff80001f78:	53                   	push   rbx
ffffffff80001f79:	48 89 d3             	mov    rbx,rdx
ffffffff80001f7c:	48 83 ec 08          	sub    rsp,0x8
ffffffff80001f80:	0f be 12             	movsx  edx,BYTE PTR [rdx]
ffffffff80001f83:	84 d2                	test   dl,dl
ffffffff80001f85:	74 1f                	je     ffffffff80001fa6 <framebuffer_write_string+0x36>
ffffffff80001f87:	49 89 fd             	mov    r13,rdi
ffffffff80001f8a:	49 89 f4             	mov    r12,rsi
ffffffff80001f8d:	0f 1f 00             	nop    DWORD PTR [rax]
ffffffff80001f90:	48 83 c3 01          	add    rbx,0x1
ffffffff80001f94:	4c 89 e6             	mov    rsi,r12
ffffffff80001f97:	4c 89 ef             	mov    rdi,r13
ffffffff80001f9a:	e8 41 fb ff ff       	call   ffffffff80001ae0 <framebuffer_ansi_char>
ffffffff80001f9f:	0f be 13             	movsx  edx,BYTE PTR [rbx]
ffffffff80001fa2:	84 d2                	test   dl,dl
ffffffff80001fa4:	75 ea                	jne    ffffffff80001f90 <framebuffer_write_string+0x20>
ffffffff80001fa6:	48 83 c4 08          	add    rsp,0x8
ffffffff80001faa:	5b                   	pop    rbx
ffffffff80001fab:	41 5c                	pop    r12
ffffffff80001fad:	41 5d                	pop    r13
ffffffff80001faf:	5d                   	pop    rbp
ffffffff80001fb0:	c3                   	ret
ffffffff80001fb1:	66 2e 0f 1f 84 00 00 	cs nop WORD PTR [rax+rax*1+0x0]
ffffffff80001fb8:	00 00 00 
ffffffff80001fbb:	0f 1f 44 00 00       	nop    DWORD PTR [rax+rax*1+0x0]

ffffffff80001fc0 <psf_get_current_font>:
ffffffff80001fc0:	48 8b 05 51 91 00 00 	mov    rax,QWORD PTR [rip+0x9151]        # ffffffff8000b118 <font>
ffffffff80001fc7:	c3                   	ret
ffffffff80001fc8:	0f 1f 84 00 00 00 00 	nop    DWORD PTR [rax+rax*1+0x0]
ffffffff80001fcf:	00 

ffffffff80001fd0 <psf_parse_font>:
ffffffff80001fd0:	55                   	push   rbp
ffffffff80001fd1:	48 89 e5             	mov    rbp,rsp
ffffffff80001fd4:	41 57                	push   r15
ffffffff80001fd6:	49 89 ff             	mov    r15,rdi
ffffffff80001fd9:	41 56                	push   r14
ffffffff80001fdb:	49 89 f6             	mov    r14,rsi
ffffffff80001fde:	41 55                	push   r13
ffffffff80001fe0:	41 54                	push   r12
ffffffff80001fe2:	53                   	push   rbx
ffffffff80001fe3:	48 83 ec 08          	sub    rsp,0x8
ffffffff80001fe7:	0f b6 47 02          	movzx  eax,BYTE PTR [rdi+0x2]
ffffffff80001feb:	44 0f b6 6f 03       	movzx  r13d,BYTE PTR [rdi+0x3]
ffffffff80001ff0:	bf 30 00 00 00       	mov    edi,0x30
ffffffff80001ff5:	83 e0 01             	and    eax,0x1
ffffffff80001ff8:	3c 01                	cmp    al,0x1
ffffffff80001ffa:	48 19 db             	sbb    rbx,rbx
ffffffff80001ffd:	e8 fe 36 00 00       	call   ffffffff80005700 <kmalloc>
ffffffff80002002:	30 db                	xor    bl,bl
ffffffff80002004:	ba 30 00 00 00       	mov    edx,0x30
ffffffff80002009:	31 f6                	xor    esi,esi
ffffffff8000200b:	49 89 c4             	mov    r12,rax
ffffffff8000200e:	48 81 c3 00 02 00 00 	add    rbx,0x200
ffffffff80002015:	48 89 c7             	mov    rdi,rax
ffffffff80002018:	e8 d3 51 00 00       	call   ffffffff800071f0 <memset>
ffffffff8000201d:	49 89 5c 24 08       	mov    QWORD PTR [r12+0x8],rbx
ffffffff80002022:	41 0f b6 c5          	movzx  eax,r13b
ffffffff80002026:	49 0f af dd          	imul   rbx,r13
ffffffff8000202a:	41 c7 44 24 10 08 00 	mov    DWORD PTR [r12+0x10],0x8
ffffffff80002031:	00 00 
ffffffff80002033:	41 89 44 24 14       	mov    DWORD PTR [r12+0x14],eax
ffffffff80002038:	41 c7 44 24 18 01 00 	mov    DWORD PTR [r12+0x18],0x1
ffffffff8000203f:	00 00 
ffffffff80002041:	48 89 df             	mov    rdi,rbx
ffffffff80002044:	e8 b7 36 00 00       	call   ffffffff80005700 <kmalloc>
ffffffff80002049:	48 89 da             	mov    rdx,rbx
ffffffff8000204c:	49 8d 77 04          	lea    rsi,[r15+0x4]
ffffffff80002050:	49 89 04 24          	mov    QWORD PTR [r12],rax
ffffffff80002054:	48 89 c7             	mov    rdi,rax
ffffffff80002057:	e8 64 51 00 00       	call   ffffffff800071c0 <memcpy>
ffffffff8000205c:	49 8d 56 fc          	lea    rdx,[r14-0x4]
ffffffff80002060:	48 29 da             	sub    rdx,rbx
ffffffff80002063:	75 1b                	jne    ffffffff80002080 <psf_parse_font+0xb0>
ffffffff80002065:	48 83 c4 08          	add    rsp,0x8
ffffffff80002069:	4c 89 e0             	mov    rax,r12
ffffffff8000206c:	5b                   	pop    rbx
ffffffff8000206d:	41 5c                	pop    r12
ffffffff8000206f:	41 5d                	pop    r13
ffffffff80002071:	41 5e                	pop    r14
ffffffff80002073:	41 5f                	pop    r15
ffffffff80002075:	5d                   	pop    rbp
ffffffff80002076:	c3                   	ret
ffffffff80002077:	66 0f 1f 84 00 00 00 	nop    WORD PTR [rax+rax*1+0x0]
ffffffff8000207e:	00 00 
ffffffff80002080:	49 89 54 24 28       	mov    QWORD PTR [r12+0x28],rdx
ffffffff80002085:	48 89 d7             	mov    rdi,rdx
ffffffff80002088:	49 89 d5             	mov    r13,rdx
ffffffff8000208b:	41 c6 44 24 1c 01    	mov    BYTE PTR [r12+0x1c],0x1
ffffffff80002091:	e8 6a 36 00 00       	call   ffffffff80005700 <kmalloc>
ffffffff80002096:	49 8d 74 1f 04       	lea    rsi,[r15+rbx*1+0x4]
ffffffff8000209b:	4c 89 ea             	mov    rdx,r13
ffffffff8000209e:	49 89 44 24 20       	mov    QWORD PTR [r12+0x20],rax
ffffffff800020a3:	48 89 c7             	mov    rdi,rax
ffffffff800020a6:	e8 15 51 00 00       	call   ffffffff800071c0 <memcpy>
ffffffff800020ab:	eb b8                	jmp    ffffffff80002065 <psf_parse_font+0x95>
ffffffff800020ad:	0f 1f 00             	nop    DWORD PTR [rax]

ffffffff800020b0 <psf_load_font>:
ffffffff800020b0:	55                   	push   rbp
ffffffff800020b1:	48 89 e5             	mov    rbp,rsp
ffffffff800020b4:	41 55                	push   r13
ffffffff800020b6:	41 54                	push   r12
ffffffff800020b8:	53                   	push   rbx
ffffffff800020b9:	48 83 ec 08          	sub    rsp,0x8
ffffffff800020bd:	48 85 ff             	test   rdi,rdi
ffffffff800020c0:	74 7c                	je     ffffffff8000213e <psf_load_font+0x8e>
ffffffff800020c2:	48 89 fb             	mov    rbx,rdi
ffffffff800020c5:	e8 56 11 00 00       	call   ffffffff80003220 <vfs_filesize>
ffffffff800020ca:	49 89 c4             	mov    r12,rax
ffffffff800020cd:	48 85 c0             	test   rax,rax
ffffffff800020d0:	74 6c                	je     ffffffff8000213e <psf_load_font+0x8e>
ffffffff800020d2:	48 89 c7             	mov    rdi,rax
ffffffff800020d5:	e8 26 36 00 00       	call   ffffffff80005700 <kmalloc>
ffffffff800020da:	49 89 c5             	mov    r13,rax
ffffffff800020dd:	48 85 c0             	test   rax,rax
ffffffff800020e0:	0f 84 ea 00 00 00    	je     ffffffff800021d0 <psf_load_font+0x120>
ffffffff800020e6:	31 c9                	xor    ecx,ecx
ffffffff800020e8:	4c 89 e2             	mov    rdx,r12
ffffffff800020eb:	48 89 c6             	mov    rsi,rax
ffffffff800020ee:	48 89 df             	mov    rdi,rbx
ffffffff800020f1:	e8 ba 12 00 00       	call   ffffffff800033b0 <inode_read>
ffffffff800020f6:	48 85 c0             	test   rax,rax
ffffffff800020f9:	0f 88 99 00 00 00    	js     ffffffff80002198 <psf_load_font+0xe8>
ffffffff800020ff:	49 39 c4             	cmp    r12,rax
ffffffff80002102:	0f 85 90 00 00 00    	jne    ffffffff80002198 <psf_load_font+0xe8>
ffffffff80002108:	49 83 fc 01          	cmp    r12,0x1
ffffffff8000210c:	74 22                	je     ffffffff80002130 <psf_load_font+0x80>
ffffffff8000210e:	41 80 7d 00 36       	cmp    BYTE PTR [r13+0x0],0x36
ffffffff80002113:	75 07                	jne    ffffffff8000211c <psf_load_font+0x6c>
ffffffff80002115:	41 80 7d 01 04       	cmp    BYTE PTR [r13+0x1],0x4
ffffffff8000211a:	74 34                	je     ffffffff80002150 <psf_load_font+0xa0>
ffffffff8000211c:	49 83 fc 03          	cmp    r12,0x3
ffffffff80002120:	76 0e                	jbe    ffffffff80002130 <psf_load_font+0x80>
ffffffff80002122:	41 81 7d 00 72 b5 4a 	cmp    DWORD PTR [r13+0x0],0x864ab572
ffffffff80002129:	86 
ffffffff8000212a:	0f 84 88 00 00 00    	je     ffffffff800021b8 <psf_load_font+0x108>
ffffffff80002130:	48 c7 c7 40 88 00 80 	mov    rdi,0xffffffff80008840
ffffffff80002137:	31 c0                	xor    eax,eax
ffffffff80002139:	e8 32 f3 ff ff       	call   ffffffff80001470 <serial_printf>
ffffffff8000213e:	31 db                	xor    ebx,ebx
ffffffff80002140:	48 83 c4 08          	add    rsp,0x8
ffffffff80002144:	48 89 d8             	mov    rax,rbx
ffffffff80002147:	5b                   	pop    rbx
ffffffff80002148:	41 5c                	pop    r12
ffffffff8000214a:	41 5d                	pop    r13
ffffffff8000214c:	5d                   	pop    rbp
ffffffff8000214d:	c3                   	ret
ffffffff8000214e:	66 90                	xchg   ax,ax
ffffffff80002150:	4c 89 e6             	mov    rsi,r12
ffffffff80002153:	4c 89 ef             	mov    rdi,r13
ffffffff80002156:	e8 75 fe ff ff       	call   ffffffff80001fd0 <psf_parse_font>
ffffffff8000215b:	4c 89 e2             	mov    rdx,r12
ffffffff8000215e:	4c 89 ee             	mov    rsi,r13
ffffffff80002161:	48 c7 c7 40 87 00 80 	mov    rdi,0xffffffff80008740
ffffffff80002168:	48 89 c3             	mov    rbx,rax
ffffffff8000216b:	31 c0                	xor    eax,eax
ffffffff8000216d:	e8 6e 5c 00 00       	call   ffffffff80007de0 <kprintf>
ffffffff80002172:	8b 73 18             	mov    esi,DWORD PTR [rbx+0x18]
ffffffff80002175:	48 8b 53 08          	mov    rdx,QWORD PTR [rbx+0x8]
ffffffff80002179:	31 c0                	xor    eax,eax
ffffffff8000217b:	48 c7 c7 90 87 00 80 	mov    rdi,0xffffffff80008790
ffffffff80002182:	e8 59 5c 00 00       	call   ffffffff80007de0 <kprintf>
ffffffff80002187:	4c 89 e6             	mov    rsi,r12
ffffffff8000218a:	4c 89 ef             	mov    rdi,r13
ffffffff8000218d:	e8 9e 35 00 00       	call   ffffffff80005730 <kfree>
ffffffff80002192:	eb ac                	jmp    ffffffff80002140 <psf_load_font+0x90>
ffffffff80002194:	0f 1f 40 00          	nop    DWORD PTR [rax+0x0]
ffffffff80002198:	4c 89 ef             	mov    rdi,r13
ffffffff8000219b:	4c 89 e6             	mov    rsi,r12
ffffffff8000219e:	e8 8d 35 00 00       	call   ffffffff80005730 <kfree>
ffffffff800021a3:	48 c7 c7 08 87 00 80 	mov    rdi,0xffffffff80008708
ffffffff800021aa:	31 c0                	xor    eax,eax
ffffffff800021ac:	e8 bf f2 ff ff       	call   ffffffff80001470 <serial_printf>
ffffffff800021b1:	eb 8b                	jmp    ffffffff8000213e <psf_load_font+0x8e>
ffffffff800021b3:	0f 1f 44 00 00       	nop    DWORD PTR [rax+rax*1+0x0]
ffffffff800021b8:	48 c7 c7 f0 87 00 80 	mov    rdi,0xffffffff800087f0
ffffffff800021bf:	31 c0                	xor    eax,eax
ffffffff800021c1:	e8 aa f2 ff ff       	call   ffffffff80001470 <serial_printf>
ffffffff800021c6:	e9 73 ff ff ff       	jmp    ffffffff8000213e <psf_load_font+0x8e>
ffffffff800021cb:	0f 1f 44 00 00       	nop    DWORD PTR [rax+rax*1+0x0]
ffffffff800021d0:	48 c7 c7 c8 86 00 80 	mov    rdi,0xffffffff800086c8
ffffffff800021d7:	31 c0                	xor    eax,eax
ffffffff800021d9:	e8 92 f2 ff ff       	call   ffffffff80001470 <serial_printf>
ffffffff800021de:	e9 5b ff ff ff       	jmp    ffffffff8000213e <psf_load_font+0x8e>
ffffffff800021e3:	66 2e 0f 1f 84 00 00 	cs nop WORD PTR [rax+rax*1+0x0]
ffffffff800021ea:	00 00 00 
ffffffff800021ed:	0f 1f 00             	nop    DWORD PTR [rax]

ffffffff800021f0 <psf_get_glyph_font>:
ffffffff800021f0:	48 85 ff             	test   rdi,rdi
ffffffff800021f3:	74 1b                	je     ffffffff80002210 <psf_get_glyph_font+0x20>
ffffffff800021f5:	0f b7 c6             	movzx  eax,si
ffffffff800021f8:	48 3b 47 08          	cmp    rax,QWORD PTR [rdi+0x8]
ffffffff800021fc:	73 12                	jae    ffffffff80002210 <psf_get_glyph_font+0x20>
ffffffff800021fe:	8b 47 18             	mov    eax,DWORD PTR [rdi+0x18]
ffffffff80002201:	0f af 47 14          	imul   eax,DWORD PTR [rdi+0x14]
ffffffff80002205:	0f b7 f6             	movzx  esi,si
ffffffff80002208:	0f af c6             	imul   eax,esi
ffffffff8000220b:	48 03 07             	add    rax,QWORD PTR [rdi]
ffffffff8000220e:	c3                   	ret
ffffffff8000220f:	90                   	nop
ffffffff80002210:	31 c0                	xor    eax,eax
ffffffff80002212:	c3                   	ret
ffffffff80002213:	66 2e 0f 1f 84 00 00 	cs nop WORD PTR [rax+rax*1+0x0]
ffffffff8000221a:	00 00 00 
ffffffff8000221d:	0f 1f 00             	nop    DWORD PTR [rax]

ffffffff80002220 <psf_init>:
ffffffff80002220:	55                   	push   rbp
ffffffff80002221:	48 89 fe             	mov    rsi,rdi
ffffffff80002224:	48 89 e5             	mov    rbp,rsp
ffffffff80002227:	48 83 ec 50          	sub    rsp,0x50
ffffffff8000222b:	48 8d 7d b0          	lea    rdi,[rbp-0x50]
ffffffff8000222f:	e8 ac 0f 00 00       	call   ffffffff800031e0 <vfs_path_from_abs>
ffffffff80002234:	48 8b 45 b0          	mov    rax,QWORD PTR [rbp-0x50]
ffffffff80002238:	48 8d 75 d8          	lea    rsi,[rbp-0x28]
ffffffff8000223c:	48 8d 7d e0          	lea    rdi,[rbp-0x20]
ffffffff80002240:	48 89 45 e0          	mov    QWORD PTR [rbp-0x20],rax
ffffffff80002244:	48 8b 45 b8          	mov    rax,QWORD PTR [rbp-0x48]
ffffffff80002248:	48 89 45 e8          	mov    QWORD PTR [rbp-0x18],rax
ffffffff8000224c:	48 8b 45 c0          	mov    rax,QWORD PTR [rbp-0x40]
ffffffff80002250:	48 89 45 f0          	mov    QWORD PTR [rbp-0x10],rax
ffffffff80002254:	48 8b 45 c8          	mov    rax,QWORD PTR [rbp-0x38]
ffffffff80002258:	48 89 45 f8          	mov    QWORD PTR [rbp-0x8],rax
ffffffff8000225c:	e8 6f 0d 00 00       	call   ffffffff80002fd0 <vfs_lookup>
ffffffff80002261:	85 c0                	test   eax,eax
ffffffff80002263:	78 19                	js     ffffffff8000227e <psf_init+0x5e>
ffffffff80002265:	48 8b 7d d8          	mov    rdi,QWORD PTR [rbp-0x28]
ffffffff80002269:	e8 42 fe ff ff       	call   ffffffff800020b0 <psf_load_font>
ffffffff8000226e:	48 8b 7d d8          	mov    rdi,QWORD PTR [rbp-0x28]
ffffffff80002272:	48 89 05 9f 8e 00 00 	mov    QWORD PTR [rip+0x8e9f],rax        # ffffffff8000b118 <font>
ffffffff80002279:	e8 e2 10 00 00       	call   ffffffff80003360 <inode_drop>
ffffffff8000227e:	c9                   	leave
ffffffff8000227f:	c3                   	ret

ffffffff80002280 <tempfs_drop>:
ffffffff80002280:	55                   	push   rbp
ffffffff80002281:	48 89 e5             	mov    rbp,rsp
ffffffff80002284:	41 55                	push   r13
ffffffff80002286:	41 54                	push   r12
ffffffff80002288:	49 89 fc             	mov    r12,rdi
ffffffff8000228b:	53                   	push   rbx
ffffffff8000228c:	48 83 ec 08          	sub    rsp,0x8
ffffffff80002290:	4c 8b 6f 18          	mov    r13,QWORD PTR [rdi+0x18]
ffffffff80002294:	49 8b 9d 88 00 00 00 	mov    rbx,QWORD PTR [r13+0x88]
ffffffff8000229b:	48 85 db             	test   rbx,rbx
ffffffff8000229e:	74 15                	je     ffffffff800022b5 <tempfs_drop+0x35>
ffffffff800022a0:	48 89 df             	mov    rdi,rbx
ffffffff800022a3:	48 8b 1b             	mov    rbx,QWORD PTR [rbx]
ffffffff800022a6:	be 00 10 00 00       	mov    esi,0x1000
ffffffff800022ab:	e8 80 34 00 00       	call   ffffffff80005730 <kfree>
ffffffff800022b0:	48 85 db             	test   rbx,rbx
ffffffff800022b3:	75 eb                	jne    ffffffff800022a0 <tempfs_drop+0x20>
ffffffff800022b5:	4c 89 ef             	mov    rdi,r13
ffffffff800022b8:	be 90 00 00 00       	mov    esi,0x90
ffffffff800022bd:	e8 6e 34 00 00       	call   ffffffff80005730 <kfree>
ffffffff800022c2:	49 c7 44 24 18 00 00 	mov    QWORD PTR [r12+0x18],0x0
ffffffff800022c9:	00 00 
ffffffff800022cb:	48 83 c4 08          	add    rsp,0x8
ffffffff800022cf:	5b                   	pop    rbx
ffffffff800022d0:	41 5c                	pop    r12
ffffffff800022d2:	41 5d                	pop    r13
ffffffff800022d4:	5d                   	pop    rbp
ffffffff800022d5:	c3                   	ret
ffffffff800022d6:	66 2e 0f 1f 84 00 00 	cs nop WORD PTR [rax+rax*1+0x0]
ffffffff800022dd:	00 00 00 

ffffffff800022e0 <tempfs_lookup>:
ffffffff800022e0:	55                   	push   rbp
ffffffff800022e1:	48 89 e5             	mov    rbp,rsp
ffffffff800022e4:	41 57                	push   r15
ffffffff800022e6:	41 56                	push   r14
ffffffff800022e8:	41 55                	push   r13
ffffffff800022ea:	41 54                	push   r12
ffffffff800022ec:	53                   	push   rbx
ffffffff800022ed:	48 83 ec 28          	sub    rsp,0x28
ffffffff800022f1:	48 8b 47 18          	mov    rax,QWORD PTR [rdi+0x18]
ffffffff800022f5:	4c 8b b8 88 00 00 00 	mov    r15,QWORD PTR [rax+0x88]
ffffffff800022fc:	4c 8b a8 80 00 00 00 	mov    r13,QWORD PTR [rax+0x80]
ffffffff80002303:	4d 85 ff             	test   r15,r15
ffffffff80002306:	0f 84 90 00 00 00    	je     ffffffff8000239c <tempfs_lookup+0xbc>
ffffffff8000230c:	48 89 4d b8          	mov    QWORD PTR [rbp-0x48],rcx
ffffffff80002310:	48 89 55 c8          	mov    QWORD PTR [rbp-0x38],rdx
ffffffff80002314:	48 89 75 c0          	mov    QWORD PTR [rbp-0x40],rsi
ffffffff80002318:	4d 85 ed             	test   r13,r13
ffffffff8000231b:	74 7f                	je     ffffffff8000239c <tempfs_lookup+0xbc>
ffffffff8000231d:	45 31 f6             	xor    r14d,r14d
ffffffff80002320:	eb 11                	jmp    ffffffff80002333 <tempfs_lookup+0x53>
ffffffff80002322:	66 0f 1f 44 00 00    	nop    WORD PTR [rax+rax*1+0x0]
ffffffff80002328:	4d 39 ee             	cmp    r14,r13
ffffffff8000232b:	73 53                	jae    ffffffff80002380 <tempfs_lookup+0xa0>
ffffffff8000232d:	49 83 fe 7f          	cmp    r14,0x7f
ffffffff80002331:	74 4d                	je     ffffffff80002380 <tempfs_lookup+0xa0>
ffffffff80002333:	49 83 c6 01          	add    r14,0x1
ffffffff80002337:	4f 8b 24 f7          	mov    r12,QWORD PTR [r15+r14*8]
ffffffff8000233b:	49 8b 5c 24 18       	mov    rbx,QWORD PTR [r12+0x18]
ffffffff80002340:	48 89 df             	mov    rdi,rbx
ffffffff80002343:	e8 a8 4f 00 00       	call   ffffffff800072f0 <strlen>
ffffffff80002348:	48 8b 4d c8          	mov    rcx,QWORD PTR [rbp-0x38]
ffffffff8000234c:	48 39 c8             	cmp    rax,rcx
ffffffff8000234f:	75 d7                	jne    ffffffff80002328 <tempfs_lookup+0x48>
ffffffff80002351:	48 8b 75 c0          	mov    rsi,QWORD PTR [rbp-0x40]
ffffffff80002355:	48 89 ca             	mov    rdx,rcx
ffffffff80002358:	48 89 df             	mov    rdi,rbx
ffffffff8000235b:	e8 40 4f 00 00       	call   ffffffff800072a0 <memcmp>
ffffffff80002360:	85 c0                	test   eax,eax
ffffffff80002362:	75 c4                	jne    ffffffff80002328 <tempfs_lookup+0x48>
ffffffff80002364:	48 8b 55 b8          	mov    rdx,QWORD PTR [rbp-0x48]
ffffffff80002368:	4c 89 22             	mov    QWORD PTR [rdx],r12
ffffffff8000236b:	48 83 c4 28          	add    rsp,0x28
ffffffff8000236f:	5b                   	pop    rbx
ffffffff80002370:	41 5c                	pop    r12
ffffffff80002372:	41 5d                	pop    r13
ffffffff80002374:	41 5e                	pop    r14
ffffffff80002376:	41 5f                	pop    r15
ffffffff80002378:	5d                   	pop    rbp
ffffffff80002379:	c3                   	ret
ffffffff8000237a:	66 0f 1f 44 00 00    	nop    WORD PTR [rax+rax*1+0x0]
ffffffff80002380:	b8 7f 00 00 00       	mov    eax,0x7f
ffffffff80002385:	4d 8b 3f             	mov    r15,QWORD PTR [r15]
ffffffff80002388:	49 39 c5             	cmp    r13,rax
ffffffff8000238b:	49 0f 46 c5          	cmovbe rax,r13
ffffffff8000238f:	49 29 c5             	sub    r13,rax
ffffffff80002392:	4d 85 ff             	test   r15,r15
ffffffff80002395:	74 05                	je     ffffffff8000239c <tempfs_lookup+0xbc>
ffffffff80002397:	4d 85 ed             	test   r13,r13
ffffffff8000239a:	75 81                	jne    ffffffff8000231d <tempfs_lookup+0x3d>
ffffffff8000239c:	48 83 c4 28          	add    rsp,0x28
ffffffff800023a0:	b8 ff ff ff ff       	mov    eax,0xffffffff
ffffffff800023a5:	5b                   	pop    rbx
ffffffff800023a6:	41 5c                	pop    r12
ffffffff800023a8:	41 5d                	pop    r13
ffffffff800023aa:	41 5e                	pop    r14
ffffffff800023ac:	41 5f                	pop    r15
ffffffff800023ae:	5d                   	pop    rbp
ffffffff800023af:	c3                   	ret
ffffffff800023b0:	66 2e 0f 1f 84 00 00 	cs nop WORD PTR [rax+rax*1+0x0]
ffffffff800023b7:	00 00 00 
ffffffff800023ba:	66 0f 1f 44 00 00    	nop    WORD PTR [rax+rax*1+0x0]

ffffffff800023c0 <tempfs_read>:
ffffffff800023c0:	55                   	push   rbp
ffffffff800023c1:	48 89 e5             	mov    rbp,rsp
ffffffff800023c4:	41 57                	push   r15
ffffffff800023c6:	41 56                	push   r14
ffffffff800023c8:	41 55                	push   r13
ffffffff800023ca:	49 89 f5             	mov    r13,rsi
ffffffff800023cd:	48 89 d6             	mov    rsi,rdx
ffffffff800023d0:	41 54                	push   r12
ffffffff800023d2:	53                   	push   rbx
ffffffff800023d3:	48 83 ec 08          	sub    rsp,0x8
ffffffff800023d7:	48 8b 57 18          	mov    rdx,QWORD PTR [rdi+0x18]
ffffffff800023db:	48 8b 82 80 00 00 00 	mov    rax,QWORD PTR [rdx+0x80]
ffffffff800023e2:	48 39 c1             	cmp    rcx,rax
ffffffff800023e5:	0f 83 e6 00 00 00    	jae    ffffffff800024d1 <tempfs_read+0x111>
ffffffff800023eb:	4c 8b a2 88 00 00 00 	mov    r12,QWORD PTR [rdx+0x88]
ffffffff800023f2:	49 89 c7             	mov    r15,rax
ffffffff800023f5:	48 8d 14 31          	lea    rdx,[rcx+rsi*1]
ffffffff800023f9:	49 29 cf             	sub    r15,rcx
ffffffff800023fc:	48 39 d0             	cmp    rax,rdx
ffffffff800023ff:	4c 0f 43 fe          	cmovae r15,rsi
ffffffff80002403:	48 81 f9 f7 0f 00 00 	cmp    rcx,0xff7
ffffffff8000240a:	76 4c                	jbe    ffffffff80002458 <tempfs_read+0x98>
ffffffff8000240c:	48 8d 91 08 f0 ff ff 	lea    rdx,[rcx-0xff8]
ffffffff80002413:	48 b8 81 00 01 02 04 	movabs rax,0x2010080402010081
ffffffff8000241a:	08 10 20 
ffffffff8000241d:	48 c1 ea 03          	shr    rdx,0x3
ffffffff80002421:	48 f7 e2             	mul    rdx
ffffffff80002424:	83 e2 40             	and    edx,0x40
ffffffff80002427:	75 17                	jne    ffffffff80002440 <tempfs_read+0x80>
ffffffff80002429:	48 81 e9 f8 0f 00 00 	sub    rcx,0xff8
ffffffff80002430:	4d 8b 24 24          	mov    r12,QWORD PTR [r12]
ffffffff80002434:	48 81 f9 f7 0f 00 00 	cmp    rcx,0xff7
ffffffff8000243b:	76 1b                	jbe    ffffffff80002458 <tempfs_read+0x98>
ffffffff8000243d:	0f 1f 00             	nop    DWORD PTR [rax]
ffffffff80002440:	4d 8b 24 24          	mov    r12,QWORD PTR [r12]
ffffffff80002444:	48 81 e9 f0 1f 00 00 	sub    rcx,0x1ff0
ffffffff8000244b:	4d 8b 24 24          	mov    r12,QWORD PTR [r12]
ffffffff8000244f:	48 81 f9 f7 0f 00 00 	cmp    rcx,0xff7
ffffffff80002456:	77 e8                	ja     ffffffff80002440 <tempfs_read+0x80>
ffffffff80002458:	4d 85 ff             	test   r15,r15
ffffffff8000245b:	74 63                	je     ffffffff800024c0 <tempfs_read+0x100>
ffffffff8000245d:	4d 85 e4             	test   r12,r12
ffffffff80002460:	74 5e                	je     ffffffff800024c0 <tempfs_read+0x100>
ffffffff80002462:	45 31 f6             	xor    r14d,r14d
ffffffff80002465:	66 66 2e 0f 1f 84 00 	data16 cs nop WORD PTR [rax+rax*1+0x0]
ffffffff8000246c:	00 00 00 00 
ffffffff80002470:	bb f8 0f 00 00       	mov    ebx,0xff8
ffffffff80002475:	49 8d 74 0c 08       	lea    rsi,[r12+rcx*1+0x8]
ffffffff8000247a:	4b 8d 7c 35 00       	lea    rdi,[r13+r14*1+0x0]
ffffffff8000247f:	48 29 cb             	sub    rbx,rcx
ffffffff80002482:	4c 39 fb             	cmp    rbx,r15
ffffffff80002485:	49 0f 47 df          	cmova  rbx,r15
ffffffff80002489:	48 89 da             	mov    rdx,rbx
ffffffff8000248c:	49 01 de             	add    r14,rbx
ffffffff8000248f:	e8 2c 4d 00 00       	call   ffffffff800071c0 <memcpy>
ffffffff80002494:	4d 8b 24 24          	mov    r12,QWORD PTR [r12]
ffffffff80002498:	31 c9                	xor    ecx,ecx
ffffffff8000249a:	49 29 df             	sub    r15,rbx
ffffffff8000249d:	74 05                	je     ffffffff800024a4 <tempfs_read+0xe4>
ffffffff8000249f:	4d 85 e4             	test   r12,r12
ffffffff800024a2:	75 cc                	jne    ffffffff80002470 <tempfs_read+0xb0>
ffffffff800024a4:	4c 89 f0             	mov    rax,r14
ffffffff800024a7:	48 83 c4 08          	add    rsp,0x8
ffffffff800024ab:	5b                   	pop    rbx
ffffffff800024ac:	41 5c                	pop    r12
ffffffff800024ae:	41 5d                	pop    r13
ffffffff800024b0:	41 5e                	pop    r14
ffffffff800024b2:	41 5f                	pop    r15
ffffffff800024b4:	5d                   	pop    rbp
ffffffff800024b5:	c3                   	ret
ffffffff800024b6:	66 2e 0f 1f 84 00 00 	cs nop WORD PTR [rax+rax*1+0x0]
ffffffff800024bd:	00 00 00 
ffffffff800024c0:	48 83 c4 08          	add    rsp,0x8
ffffffff800024c4:	31 c0                	xor    eax,eax
ffffffff800024c6:	5b                   	pop    rbx
ffffffff800024c7:	41 5c                	pop    r12
ffffffff800024c9:	41 5d                	pop    r13
ffffffff800024cb:	41 5e                	pop    r14
ffffffff800024cd:	41 5f                	pop    r15
ffffffff800024cf:	5d                   	pop    rbp
ffffffff800024d0:	c3                   	ret
ffffffff800024d1:	48 c7 c0 ff ff ff ff 	mov    rax,0xffffffffffffffff
ffffffff800024d8:	eb cd                	jmp    ffffffff800024a7 <tempfs_read+0xe7>
ffffffff800024da:	66 0f 1f 44 00 00    	nop    WORD PTR [rax+rax*1+0x0]

ffffffff800024e0 <tempfs_readdir>:
ffffffff800024e0:	48 8b 47 18          	mov    rax,QWORD PTR [rdi+0x18]
ffffffff800024e4:	48 3b b0 80 00 00 00 	cmp    rsi,QWORD PTR [rax+0x80]
ffffffff800024eb:	73 43                	jae    ffffffff80002530 <tempfs_readdir+0x50>
ffffffff800024ed:	48 8b 80 88 00 00 00 	mov    rax,QWORD PTR [rax+0x88]
ffffffff800024f4:	48 85 c0             	test   rax,rax
ffffffff800024f7:	75 13                	jne    ffffffff8000250c <tempfs_readdir+0x2c>
ffffffff800024f9:	eb 35                	jmp    ffffffff80002530 <tempfs_readdir+0x50>
ffffffff800024fb:	0f 1f 44 00 00       	nop    DWORD PTR [rax+rax*1+0x0]
ffffffff80002500:	48 8b 00             	mov    rax,QWORD PTR [rax]
ffffffff80002503:	48 83 ee 7f          	sub    rsi,0x7f
ffffffff80002507:	48 85 c0             	test   rax,rax
ffffffff8000250a:	74 24                	je     ffffffff80002530 <tempfs_readdir+0x50>
ffffffff8000250c:	48 83 fe 7e          	cmp    rsi,0x7e
ffffffff80002510:	77 ee                	ja     ffffffff80002500 <tempfs_readdir+0x20>
ffffffff80002512:	48 85 c0             	test   rax,rax
ffffffff80002515:	74 19                	je     ffffffff80002530 <tempfs_readdir+0x50>
ffffffff80002517:	48 8b 44 f0 08       	mov    rax,QWORD PTR [rax+rsi*8+0x8]
ffffffff8000251c:	48 89 02             	mov    QWORD PTR [rdx],rax
ffffffff8000251f:	48 85 c0             	test   rax,rax
ffffffff80002522:	74 04                	je     ffffffff80002528 <tempfs_readdir+0x48>
ffffffff80002524:	48 83 00 01          	add    QWORD PTR [rax],0x1
ffffffff80002528:	31 c0                	xor    eax,eax
ffffffff8000252a:	c3                   	ret
ffffffff8000252b:	0f 1f 44 00 00       	nop    DWORD PTR [rax+rax*1+0x0]
ffffffff80002530:	bf 04 00 00 00       	mov    edi,0x4
ffffffff80002535:	e9 06 23 00 00       	jmp    ffffffff80004840 <status_print_error>
ffffffff8000253a:	66 0f 1f 44 00 00    	nop    WORD PTR [rax+rax*1+0x0]

ffffffff80002540 <tempfs_write>:
ffffffff80002540:	55                   	push   rbp
ffffffff80002541:	48 89 e5             	mov    rbp,rsp
ffffffff80002544:	41 57                	push   r15
ffffffff80002546:	41 56                	push   r14
ffffffff80002548:	41 55                	push   r13
ffffffff8000254a:	41 54                	push   r12
ffffffff8000254c:	49 89 d4             	mov    r12,rdx
ffffffff8000254f:	53                   	push   rbx
ffffffff80002550:	48 83 ec 18          	sub    rsp,0x18
ffffffff80002554:	48 8b 47 18          	mov    rax,QWORD PTR [rdi+0x18]
ffffffff80002558:	48 8b 90 80 00 00 00 	mov    rdx,QWORD PTR [rax+0x80]
ffffffff8000255f:	48 89 45 c0          	mov    QWORD PTR [rbp-0x40],rax
ffffffff80002563:	48 39 ca             	cmp    rdx,rcx
ffffffff80002566:	0f 82 24 01 00 00    	jb     ffffffff80002690 <tempfs_write+0x150>
ffffffff8000256c:	48 8b 98 88 00 00 00 	mov    rbx,QWORD PTR [rax+0x88]
ffffffff80002573:	49 89 f5             	mov    r13,rsi
ffffffff80002576:	48 85 db             	test   rbx,rbx
ffffffff80002579:	0f 84 2c 01 00 00    	je     ffffffff800026ab <tempfs_write+0x16b>
ffffffff8000257f:	48 81 f9 f7 0f 00 00 	cmp    rcx,0xff7
ffffffff80002586:	0f 86 1f 01 00 00    	jbe    ffffffff800026ab <tempfs_write+0x16b>
ffffffff8000258c:	66 0f 1f 84 00 00 00 	nop    WORD PTR [rax+rax*1+0x0]
ffffffff80002593:	00 00 
ffffffff80002595:	66 66 2e 0f 1f 84 00 	data16 cs nop WORD PTR [rax+rax*1+0x0]
ffffffff8000259c:	00 00 00 00 
ffffffff800025a0:	49 89 d9             	mov    r9,rbx
ffffffff800025a3:	48 8b 1b             	mov    rbx,QWORD PTR [rbx]
ffffffff800025a6:	48 81 e9 f8 0f 00 00 	sub    rcx,0xff8
ffffffff800025ad:	48 85 db             	test   rbx,rbx
ffffffff800025b0:	74 09                	je     ffffffff800025bb <tempfs_write+0x7b>
ffffffff800025b2:	48 81 f9 f7 0f 00 00 	cmp    rcx,0xff7
ffffffff800025b9:	77 e5                	ja     ffffffff800025a0 <tempfs_write+0x60>
ffffffff800025bb:	4d 85 e4             	test   r12,r12
ffffffff800025be:	0f 84 fc 00 00 00    	je     ffffffff800026c0 <tempfs_write+0x180>
ffffffff800025c4:	4d 89 cf             	mov    r15,r9
ffffffff800025c7:	45 31 f6             	xor    r14d,r14d
ffffffff800025ca:	eb 3b                	jmp    ffffffff80002607 <tempfs_write+0xc7>
ffffffff800025cc:	0f 1f 40 00          	nop    DWORD PTR [rax+0x0]
ffffffff800025d0:	4c 89 e2             	mov    rdx,r12
ffffffff800025d3:	b8 f8 0f 00 00       	mov    eax,0xff8
ffffffff800025d8:	48 8d 7c 0b 08       	lea    rdi,[rbx+rcx*1+0x8]
ffffffff800025dd:	49 89 df             	mov    r15,rbx
ffffffff800025e0:	4c 29 f2             	sub    rdx,r14
ffffffff800025e3:	48 29 c8             	sub    rax,rcx
ffffffff800025e6:	4b 8d 74 35 00       	lea    rsi,[r13+r14*1+0x0]
ffffffff800025eb:	48 39 c2             	cmp    rdx,rax
ffffffff800025ee:	48 0f 46 c2          	cmovbe rax,rdx
ffffffff800025f2:	48 89 c2             	mov    rdx,rax
ffffffff800025f5:	49 01 c6             	add    r14,rax
ffffffff800025f8:	e8 c3 4b 00 00       	call   ffffffff800071c0 <memcpy>
ffffffff800025fd:	48 8b 1b             	mov    rbx,QWORD PTR [rbx]
ffffffff80002600:	31 c9                	xor    ecx,ecx
ffffffff80002602:	4d 39 e6             	cmp    r14,r12
ffffffff80002605:	73 59                	jae    ffffffff80002660 <tempfs_write+0x120>
ffffffff80002607:	48 85 db             	test   rbx,rbx
ffffffff8000260a:	75 c4                	jne    ffffffff800025d0 <tempfs_write+0x90>
ffffffff8000260c:	bf 00 10 00 00       	mov    edi,0x1000
ffffffff80002611:	48 89 4d c8          	mov    QWORD PTR [rbp-0x38],rcx
ffffffff80002615:	e8 e6 30 00 00       	call   ffffffff80005700 <kmalloc>
ffffffff8000261a:	48 89 c3             	mov    rbx,rax
ffffffff8000261d:	48 85 c0             	test   rax,rax
ffffffff80002620:	74 1e                	je     ffffffff80002640 <tempfs_write+0x100>
ffffffff80002622:	ba 00 10 00 00       	mov    edx,0x1000
ffffffff80002627:	31 f6                	xor    esi,esi
ffffffff80002629:	48 89 c7             	mov    rdi,rax
ffffffff8000262c:	e8 bf 4b 00 00       	call   ffffffff800071f0 <memset>
ffffffff80002631:	49 89 1f             	mov    QWORD PTR [r15],rbx
ffffffff80002634:	48 8b 4d c8          	mov    rcx,QWORD PTR [rbp-0x38]
ffffffff80002638:	eb 96                	jmp    ffffffff800025d0 <tempfs_write+0x90>
ffffffff8000263a:	66 0f 1f 44 00 00    	nop    WORD PTR [rax+rax*1+0x0]
ffffffff80002640:	49 c7 07 00 00 00 00 	mov    QWORD PTR [r15],0x0
ffffffff80002647:	31 ff                	xor    edi,edi
ffffffff80002649:	e8 f2 21 00 00       	call   ffffffff80004840 <status_print_error>
ffffffff8000264e:	89 c0                	mov    eax,eax
ffffffff80002650:	48 83 c4 18          	add    rsp,0x18
ffffffff80002654:	5b                   	pop    rbx
ffffffff80002655:	41 5c                	pop    r12
ffffffff80002657:	41 5d                	pop    r13
ffffffff80002659:	41 5e                	pop    r14
ffffffff8000265b:	41 5f                	pop    r15
ffffffff8000265d:	5d                   	pop    rbp
ffffffff8000265e:	c3                   	ret
ffffffff8000265f:	90                   	nop
ffffffff80002660:	48 8b 45 c0          	mov    rax,QWORD PTR [rbp-0x40]
ffffffff80002664:	48 8b 90 80 00 00 00 	mov    rdx,QWORD PTR [rax+0x80]
ffffffff8000266b:	4c 89 f0             	mov    rax,r14
ffffffff8000266e:	4c 39 f2             	cmp    rdx,r14
ffffffff80002671:	73 dd                	jae    ffffffff80002650 <tempfs_write+0x110>
ffffffff80002673:	48 8b 75 c0          	mov    rsi,QWORD PTR [rbp-0x40]
ffffffff80002677:	4c 89 b6 80 00 00 00 	mov    QWORD PTR [rsi+0x80],r14
ffffffff8000267e:	48 83 c4 18          	add    rsp,0x18
ffffffff80002682:	5b                   	pop    rbx
ffffffff80002683:	41 5c                	pop    r12
ffffffff80002685:	41 5d                	pop    r13
ffffffff80002687:	41 5e                	pop    r14
ffffffff80002689:	41 5f                	pop    r15
ffffffff8000268b:	5d                   	pop    rbp
ffffffff8000268c:	c3                   	ret
ffffffff8000268d:	0f 1f 00             	nop    DWORD PTR [rax]
ffffffff80002690:	bf 01 00 00 00       	mov    edi,0x1
ffffffff80002695:	e8 a6 21 00 00       	call   ffffffff80004840 <status_print_error>
ffffffff8000269a:	48 83 c4 18          	add    rsp,0x18
ffffffff8000269e:	5b                   	pop    rbx
ffffffff8000269f:	89 c0                	mov    eax,eax
ffffffff800026a1:	41 5c                	pop    r12
ffffffff800026a3:	41 5d                	pop    r13
ffffffff800026a5:	41 5e                	pop    r14
ffffffff800026a7:	41 5f                	pop    r15
ffffffff800026a9:	5d                   	pop    rbp
ffffffff800026aa:	c3                   	ret
ffffffff800026ab:	4d 85 e4             	test   r12,r12
ffffffff800026ae:	74 17                	je     ffffffff800026c7 <tempfs_write+0x187>
ffffffff800026b0:	48 8b 45 c0          	mov    rax,QWORD PTR [rbp-0x40]
ffffffff800026b4:	4c 8d b8 88 00 00 00 	lea    r15,[rax+0x88]
ffffffff800026bb:	e9 07 ff ff ff       	jmp    ffffffff800025c7 <tempfs_write+0x87>
ffffffff800026c0:	49 89 ce             	mov    r14,rcx
ffffffff800026c3:	31 c0                	xor    eax,eax
ffffffff800026c5:	eb a7                	jmp    ffffffff8000266e <tempfs_write+0x12e>
ffffffff800026c7:	31 c0                	xor    eax,eax
ffffffff800026c9:	eb 85                	jmp    ffffffff80002650 <tempfs_write+0x110>
ffffffff800026cb:	0f 1f 44 00 00       	nop    DWORD PTR [rax+rax*1+0x0]

ffffffff800026d0 <tempfs_mount_root>:
ffffffff800026d0:	55                   	push   rbp
ffffffff800026d1:	48 89 e5             	mov    rbp,rsp
ffffffff800026d4:	41 54                	push   r12
ffffffff800026d6:	49 89 fc             	mov    r12,rdi
ffffffff800026d9:	bf 20 00 00 00       	mov    edi,0x20
ffffffff800026de:	53                   	push   rbx
ffffffff800026df:	e8 1c 30 00 00       	call   ffffffff80005700 <kmalloc>
ffffffff800026e4:	48 85 c0             	test   rax,rax
ffffffff800026e7:	74 57                	je     ffffffff80002740 <tempfs_mount_root+0x70>
ffffffff800026e9:	bf 90 00 00 00       	mov    edi,0x90
ffffffff800026ee:	48 89 c3             	mov    rbx,rax
ffffffff800026f1:	e8 0a 30 00 00       	call   ffffffff80005700 <kmalloc>
ffffffff800026f6:	48 85 c0             	test   rax,rax
ffffffff800026f9:	74 5d                	je     ffffffff80002758 <tempfs_mount_root+0x88>
ffffffff800026fb:	c7 43 08 00 00 00 00 	mov    DWORD PTR [rbx+0x8],0x0
ffffffff80002702:	48 c7 03 01 00 00 00 	mov    QWORD PTR [rbx],0x1
ffffffff80002709:	48 c7 43 10 c0 a0 00 	mov    QWORD PTR [rbx+0x10],0xffffffff8000a0c0
ffffffff80002710:	80 
ffffffff80002711:	48 89 43 18          	mov    QWORD PTR [rbx+0x18],rax
ffffffff80002715:	48 c7 80 80 00 00 00 	mov    QWORD PTR [rax+0x80],0x0
ffffffff8000271c:	00 00 00 00 
ffffffff80002720:	48 c7 80 88 00 00 00 	mov    QWORD PTR [rax+0x88],0x0
ffffffff80002727:	00 00 00 00 
ffffffff8000272b:	49 89 1c 24          	mov    QWORD PTR [r12],rbx
ffffffff8000272f:	5b                   	pop    rbx
ffffffff80002730:	31 c0                	xor    eax,eax
ffffffff80002732:	41 5c                	pop    r12
ffffffff80002734:	5d                   	pop    rbp
ffffffff80002735:	c3                   	ret
ffffffff80002736:	66 2e 0f 1f 84 00 00 	cs nop WORD PTR [rax+rax*1+0x0]
ffffffff8000273d:	00 00 00 
ffffffff80002740:	49 c7 04 24 00 00 00 	mov    QWORD PTR [r12],0x0
ffffffff80002747:	00 
ffffffff80002748:	31 ff                	xor    edi,edi
ffffffff8000274a:	5b                   	pop    rbx
ffffffff8000274b:	41 5c                	pop    r12
ffffffff8000274d:	5d                   	pop    rbp
ffffffff8000274e:	e9 ed 20 00 00       	jmp    ffffffff80004840 <status_print_error>
ffffffff80002753:	0f 1f 44 00 00       	nop    DWORD PTR [rax+rax*1+0x0]
ffffffff80002758:	be 20 00 00 00       	mov    esi,0x20
ffffffff8000275d:	48 89 df             	mov    rdi,rbx
ffffffff80002760:	e8 cb 2f 00 00       	call   ffffffff80005730 <kfree>
ffffffff80002765:	49 89 1c 24          	mov    QWORD PTR [r12],rbx
ffffffff80002769:	eb c4                	jmp    ffffffff8000272f <tempfs_mount_root+0x5f>
ffffffff8000276b:	0f 1f 44 00 00       	nop    DWORD PTR [rax+rax*1+0x0]

ffffffff80002770 <tempfs_create_inode>:
ffffffff80002770:	55                   	push   rbp
ffffffff80002771:	48 89 e5             	mov    rbp,rsp
ffffffff80002774:	41 57                	push   r15
ffffffff80002776:	49 89 f7             	mov    r15,rsi
ffffffff80002779:	41 56                	push   r14
ffffffff8000277b:	41 89 fe             	mov    r14d,edi
ffffffff8000277e:	bf 20 00 00 00       	mov    edi,0x20
ffffffff80002783:	53                   	push   rbx
ffffffff80002784:	48 83 ec 08          	sub    rsp,0x8
ffffffff80002788:	e8 73 2f 00 00       	call   ffffffff80005700 <kmalloc>
ffffffff8000278d:	48 89 c3             	mov    rbx,rax
ffffffff80002790:	48 85 c0             	test   rax,rax
ffffffff80002793:	74 38                	je     ffffffff800027cd <tempfs_create_inode+0x5d>
ffffffff80002795:	bf 90 00 00 00       	mov    edi,0x90
ffffffff8000279a:	e8 61 2f 00 00       	call   ffffffff80005700 <kmalloc>
ffffffff8000279f:	48 85 c0             	test   rax,rax
ffffffff800027a2:	74 3c                	je     ffffffff800027e0 <tempfs_create_inode+0x70>
ffffffff800027a4:	44 89 73 08          	mov    DWORD PTR [rbx+0x8],r14d
ffffffff800027a8:	48 c7 03 01 00 00 00 	mov    QWORD PTR [rbx],0x1
ffffffff800027af:	4c 89 7b 10          	mov    QWORD PTR [rbx+0x10],r15
ffffffff800027b3:	48 89 43 18          	mov    QWORD PTR [rbx+0x18],rax
ffffffff800027b7:	48 c7 80 80 00 00 00 	mov    QWORD PTR [rax+0x80],0x0
ffffffff800027be:	00 00 00 00 
ffffffff800027c2:	48 c7 80 88 00 00 00 	mov    QWORD PTR [rax+0x88],0x0
ffffffff800027c9:	00 00 00 00 
ffffffff800027cd:	48 83 c4 08          	add    rsp,0x8
ffffffff800027d1:	48 89 d8             	mov    rax,rbx
ffffffff800027d4:	5b                   	pop    rbx
ffffffff800027d5:	41 5e                	pop    r14
ffffffff800027d7:	41 5f                	pop    r15
ffffffff800027d9:	5d                   	pop    rbp
ffffffff800027da:	c3                   	ret
ffffffff800027db:	0f 1f 44 00 00       	nop    DWORD PTR [rax+rax*1+0x0]
ffffffff800027e0:	be 20 00 00 00       	mov    esi,0x20
ffffffff800027e5:	48 89 df             	mov    rdi,rbx
ffffffff800027e8:	e8 43 2f 00 00       	call   ffffffff80005730 <kfree>
ffffffff800027ed:	eb de                	jmp    ffffffff800027cd <tempfs_create_inode+0x5d>
ffffffff800027ef:	90                   	nop

ffffffff800027f0 <tempfs_create>:
ffffffff800027f0:	55                   	push   rbp
ffffffff800027f1:	48 89 e5             	mov    rbp,rsp
ffffffff800027f4:	41 57                	push   r15
ffffffff800027f6:	41 56                	push   r14
ffffffff800027f8:	41 55                	push   r13
ffffffff800027fa:	41 54                	push   r12
ffffffff800027fc:	53                   	push   rbx
ffffffff800027fd:	48 83 ec 28          	sub    rsp,0x28
ffffffff80002801:	48 89 4d c8          	mov    QWORD PTR [rbp-0x38],rcx
ffffffff80002805:	48 85 ff             	test   rdi,rdi
ffffffff80002808:	0f 84 da 00 00 00    	je     ffffffff800028e8 <tempfs_create+0xf8>
ffffffff8000280e:	4c 8b 77 18          	mov    r14,QWORD PTR [rdi+0x18]
ffffffff80002812:	4d 85 f6             	test   r14,r14
ffffffff80002815:	0f 84 cd 00 00 00    	je     ffffffff800028e8 <tempfs_create+0xf8>
ffffffff8000281b:	4d 8b a6 80 00 00 00 	mov    r12,QWORD PTR [r14+0x80]
ffffffff80002822:	49 8b 9e 88 00 00 00 	mov    rbx,QWORD PTR [r14+0x88]
ffffffff80002829:	49 89 f7             	mov    r15,rsi
ffffffff8000282c:	49 89 d5             	mov    r13,rdx
ffffffff8000282f:	49 83 fc 7e          	cmp    r12,0x7e
ffffffff80002833:	0f 86 2f 01 00 00    	jbe    ffffffff80002968 <tempfs_create+0x178>
ffffffff80002839:	0f 1f 80 00 00 00 00 	nop    DWORD PTR [rax+0x0]
ffffffff80002840:	49 83 ec 7f          	sub    r12,0x7f
ffffffff80002844:	48 89 d8             	mov    rax,rbx
ffffffff80002847:	48 8b 1b             	mov    rbx,QWORD PTR [rbx]
ffffffff8000284a:	49 83 fc 7e          	cmp    r12,0x7e
ffffffff8000284e:	77 f0                	ja     ffffffff80002840 <tempfs_create+0x50>
ffffffff80002850:	48 89 c1             	mov    rcx,rax
ffffffff80002853:	48 85 db             	test   rbx,rbx
ffffffff80002856:	0f 84 c4 00 00 00    	je     ffffffff80002920 <tempfs_create+0x130>
ffffffff8000285c:	45 85 c0             	test   r8d,r8d
ffffffff8000285f:	74 6f                	je     ffffffff800028d0 <tempfs_create+0xe0>
ffffffff80002861:	48 c7 c6 80 a0 00 80 	mov    rsi,0xffffffff8000a080
ffffffff80002868:	bf 01 00 00 00       	mov    edi,0x1
ffffffff8000286d:	e8 fe fe ff ff       	call   ffffffff80002770 <tempfs_create_inode>
ffffffff80002872:	48 89 c1             	mov    rcx,rax
ffffffff80002875:	31 ff                	xor    edi,edi
ffffffff80002877:	48 85 c9             	test   rcx,rcx
ffffffff8000287a:	74 7f                	je     ffffffff800028fb <tempfs_create+0x10b>
ffffffff8000287c:	49 83 fd 7f          	cmp    r13,0x7f
ffffffff80002880:	0f 87 8a 00 00 00    	ja     ffffffff80002910 <tempfs_create+0x120>
ffffffff80002886:	48 8b 79 18          	mov    rdi,QWORD PTR [rcx+0x18]
ffffffff8000288a:	4c 89 ea             	mov    rdx,r13
ffffffff8000288d:	4c 89 fe             	mov    rsi,r15
ffffffff80002890:	48 89 4d b8          	mov    QWORD PTR [rbp-0x48],rcx
ffffffff80002894:	48 89 7d c0          	mov    QWORD PTR [rbp-0x40],rdi
ffffffff80002898:	e8 23 49 00 00       	call   ffffffff800071c0 <memcpy>
ffffffff8000289d:	48 8b 4d b8          	mov    rcx,QWORD PTR [rbp-0x48]
ffffffff800028a1:	48 8b 45 c8          	mov    rax,QWORD PTR [rbp-0x38]
ffffffff800028a5:	48 8b 7d c0          	mov    rdi,QWORD PTR [rbp-0x40]
ffffffff800028a9:	42 c6 04 2f 00       	mov    BYTE PTR [rdi+r13*1],0x0
ffffffff800028ae:	4a 89 4c e3 08       	mov    QWORD PTR [rbx+r12*8+0x8],rcx
ffffffff800028b3:	49 83 86 80 00 00 00 	add    QWORD PTR [r14+0x80],0x1
ffffffff800028ba:	01 
ffffffff800028bb:	48 89 08             	mov    QWORD PTR [rax],rcx
ffffffff800028be:	48 83 c4 28          	add    rsp,0x28
ffffffff800028c2:	31 c0                	xor    eax,eax
ffffffff800028c4:	5b                   	pop    rbx
ffffffff800028c5:	41 5c                	pop    r12
ffffffff800028c7:	41 5d                	pop    r13
ffffffff800028c9:	41 5e                	pop    r14
ffffffff800028cb:	41 5f                	pop    r15
ffffffff800028cd:	5d                   	pop    rbp
ffffffff800028ce:	c3                   	ret
ffffffff800028cf:	90                   	nop
ffffffff800028d0:	48 c7 c6 c0 a0 00 80 	mov    rsi,0xffffffff8000a0c0
ffffffff800028d7:	31 ff                	xor    edi,edi
ffffffff800028d9:	e8 92 fe ff ff       	call   ffffffff80002770 <tempfs_create_inode>
ffffffff800028de:	48 89 c1             	mov    rcx,rax
ffffffff800028e1:	eb 92                	jmp    ffffffff80002875 <tempfs_create+0x85>
ffffffff800028e3:	0f 1f 44 00 00       	nop    DWORD PTR [rax+rax*1+0x0]
ffffffff800028e8:	48 c7 c7 80 88 00 80 	mov    rdi,0xffffffff80008880
ffffffff800028ef:	31 c0                	xor    eax,eax
ffffffff800028f1:	e8 ea 54 00 00       	call   ffffffff80007de0 <kprintf>
ffffffff800028f6:	bf 04 00 00 00       	mov    edi,0x4
ffffffff800028fb:	48 83 c4 28          	add    rsp,0x28
ffffffff800028ff:	5b                   	pop    rbx
ffffffff80002900:	41 5c                	pop    r12
ffffffff80002902:	41 5d                	pop    r13
ffffffff80002904:	41 5e                	pop    r14
ffffffff80002906:	41 5f                	pop    r15
ffffffff80002908:	5d                   	pop    rbp
ffffffff80002909:	e9 32 1f 00 00       	jmp    ffffffff80004840 <status_print_error>
ffffffff8000290e:	66 90                	xchg   ax,ax
ffffffff80002910:	bf 03 00 00 00       	mov    edi,0x3
ffffffff80002915:	eb e4                	jmp    ffffffff800028fb <tempfs_create+0x10b>
ffffffff80002917:	66 0f 1f 84 00 00 00 	nop    WORD PTR [rax+rax*1+0x0]
ffffffff8000291e:	00 00 
ffffffff80002920:	bf 00 10 00 00       	mov    edi,0x1000
ffffffff80002925:	48 89 4d c0          	mov    QWORD PTR [rbp-0x40],rcx
ffffffff80002929:	44 89 45 b8          	mov    DWORD PTR [rbp-0x48],r8d
ffffffff8000292d:	e8 ce 2d 00 00       	call   ffffffff80005700 <kmalloc>
ffffffff80002932:	48 8b 4d c0          	mov    rcx,QWORD PTR [rbp-0x40]
ffffffff80002936:	48 85 c0             	test   rax,rax
ffffffff80002939:	48 89 c3             	mov    rbx,rax
ffffffff8000293c:	74 36                	je     ffffffff80002974 <tempfs_create+0x184>
ffffffff8000293e:	ba 00 10 00 00       	mov    edx,0x1000
ffffffff80002943:	31 f6                	xor    esi,esi
ffffffff80002945:	48 89 c7             	mov    rdi,rax
ffffffff80002948:	48 89 4d c0          	mov    QWORD PTR [rbp-0x40],rcx
ffffffff8000294c:	e8 9f 48 00 00       	call   ffffffff800071f0 <memset>
ffffffff80002951:	48 8b 4d c0          	mov    rcx,QWORD PTR [rbp-0x40]
ffffffff80002955:	44 8b 45 b8          	mov    r8d,DWORD PTR [rbp-0x48]
ffffffff80002959:	48 89 19             	mov    QWORD PTR [rcx],rbx
ffffffff8000295c:	e9 fb fe ff ff       	jmp    ffffffff8000285c <tempfs_create+0x6c>
ffffffff80002961:	0f 1f 80 00 00 00 00 	nop    DWORD PTR [rax+0x0]
ffffffff80002968:	49 8d 8e 88 00 00 00 	lea    rcx,[r14+0x88]
ffffffff8000296f:	e9 df fe ff ff       	jmp    ffffffff80002853 <tempfs_create+0x63>
ffffffff80002974:	48 c7 01 00 00 00 00 	mov    QWORD PTR [rcx],0x0
ffffffff8000297b:	31 ff                	xor    edi,edi
ffffffff8000297d:	e9 79 ff ff ff       	jmp    ffffffff800028fb <tempfs_create+0x10b>
ffffffff80002982:	66 2e 0f 1f 84 00 00 	cs nop WORD PTR [rax+rax*1+0x0]
ffffffff80002989:	00 00 00 
ffffffff8000298c:	66 2e 0f 1f 84 00 00 	cs nop WORD PTR [rax+rax*1+0x0]
ffffffff80002993:	00 00 00 
ffffffff80002996:	66 2e 0f 1f 84 00 00 	cs nop WORD PTR [rax+rax*1+0x0]
ffffffff8000299d:	00 00 00 

ffffffff800029a0 <tar_extract>:
ffffffff800029a0:	55                   	push   rbp
ffffffff800029a1:	48 89 e5             	mov    rbp,rsp
ffffffff800029a4:	41 57                	push   r15
ffffffff800029a6:	41 56                	push   r14
ffffffff800029a8:	41 55                	push   r13
ffffffff800029aa:	41 54                	push   r12
ffffffff800029ac:	53                   	push   rbx
ffffffff800029ad:	48 81 ec f8 02 00 00 	sub    rsp,0x2f8
ffffffff800029b4:	48 89 bd f8 fc ff ff 	mov    QWORD PTR [rbp-0x308],rdi
ffffffff800029bb:	48 89 b5 e8 fc ff ff 	mov    QWORD PTR [rbp-0x318],rsi
ffffffff800029c2:	48 c7 85 08 fd ff ff 	mov    QWORD PTR [rbp-0x2f8],0x0
ffffffff800029c9:	00 00 00 00 
ffffffff800029cd:	48 c7 85 f0 fc ff ff 	mov    QWORD PTR [rbp-0x310],0x200
ffffffff800029d4:	00 02 00 00 
ffffffff800029d8:	48 81 fe ff 01 00 00 	cmp    rsi,0x1ff
ffffffff800029df:	0f 86 b8 03 00 00    	jbe    ffffffff80002d9d <tar_extract+0x3fd>
ffffffff800029e5:	66 66 2e 0f 1f 84 00 	data16 cs nop WORD PTR [rax+rax*1+0x0]
ffffffff800029ec:	00 00 00 00 
ffffffff800029f0:	48 8b 85 f8 fc ff ff 	mov    rax,QWORD PTR [rbp-0x308]
ffffffff800029f7:	48 8b 8d 08 fd ff ff 	mov    rcx,QWORD PTR [rbp-0x2f8]
ffffffff800029fe:	4c 8d 3c 08          	lea    r15,[rax+rcx*1]
ffffffff80002a02:	41 80 3f 00          	cmp    BYTE PTR [r15],0x0
ffffffff80002a06:	0f 84 91 03 00 00    	je     ffffffff80002d9d <tar_extract+0x3fd>
ffffffff80002a0c:	31 d2                	xor    edx,edx
ffffffff80002a0e:	41 80 bf 59 01 00 00 	cmp    BYTE PTR [r15+0x159],0x0
ffffffff80002a15:	00 
ffffffff80002a16:	74 60                	je     ffffffff80002a78 <tar_extract+0xd8>
ffffffff80002a18:	49 8d 87 59 01 00 00 	lea    rax,[r15+0x159]
ffffffff80002a1f:	4d 8d 87 f4 01 00 00 	lea    r8,[r15+0x1f4]
ffffffff80002a26:	eb 30                	jmp    ffffffff80002a58 <tar_extract+0xb8>
ffffffff80002a28:	66 90                	xchg   ax,ax
ffffffff80002a2a:	66 66 2e 0f 1f 84 00 	data16 cs nop WORD PTR [rax+rax*1+0x0]
ffffffff80002a31:	00 00 00 00 
ffffffff80002a35:	66 66 2e 0f 1f 84 00 	data16 cs nop WORD PTR [rax+rax*1+0x0]
ffffffff80002a3c:	00 00 00 00 
ffffffff80002a40:	48 8d b4 15 d0 fd ff 	lea    rsi,[rbp+rdx*1-0x230]
ffffffff80002a47:	ff 
ffffffff80002a48:	48 83 c0 01          	add    rax,0x1
ffffffff80002a4c:	48 83 c2 01          	add    rdx,0x1
ffffffff80002a50:	40 88 3e             	mov    BYTE PTR [rsi],dil
ffffffff80002a53:	4c 39 c0             	cmp    rax,r8
ffffffff80002a56:	74 08                	je     ffffffff80002a60 <tar_extract+0xc0>
ffffffff80002a58:	0f b6 38             	movzx  edi,BYTE PTR [rax]
ffffffff80002a5b:	40 84 ff             	test   dil,dil
ffffffff80002a5e:	75 e0                	jne    ffffffff80002a40 <tar_extract+0xa0>
ffffffff80002a60:	48 81 fa fe 00 00 00 	cmp    rdx,0xfe
ffffffff80002a67:	77 0f                	ja     ffffffff80002a78 <tar_extract+0xd8>
ffffffff80002a69:	48 8d 84 15 d0 fd ff 	lea    rax,[rbp+rdx*1-0x230]
ffffffff80002a70:	ff 
ffffffff80002a71:	48 83 c2 01          	add    rdx,0x1
ffffffff80002a75:	c6 00 2f             	mov    BYTE PTR [rax],0x2f
ffffffff80002a78:	49 8d 77 64          	lea    rsi,[r15+0x64]
ffffffff80002a7c:	4c 89 f8             	mov    rax,r15
ffffffff80002a7f:	eb 2c                	jmp    ffffffff80002aad <tar_extract+0x10d>
ffffffff80002a81:	0f 1f 80 00 00 00 00 	nop    DWORD PTR [rax+0x0]
ffffffff80002a88:	48 81 fa fe 00 00 00 	cmp    rdx,0xfe
ffffffff80002a8f:	0f 87 29 03 00 00    	ja     ffffffff80002dbe <tar_extract+0x41e>
ffffffff80002a95:	48 8d bc 15 d0 fd ff 	lea    rdi,[rbp+rdx*1-0x230]
ffffffff80002a9c:	ff 
ffffffff80002a9d:	48 83 c0 01          	add    rax,0x1
ffffffff80002aa1:	48 83 c2 01          	add    rdx,0x1
ffffffff80002aa5:	44 88 07             	mov    BYTE PTR [rdi],r8b
ffffffff80002aa8:	48 39 f0             	cmp    rax,rsi
ffffffff80002aab:	74 13                	je     ffffffff80002ac0 <tar_extract+0x120>
ffffffff80002aad:	44 0f b6 00          	movzx  r8d,BYTE PTR [rax]
ffffffff80002ab1:	45 84 c0             	test   r8b,r8b
ffffffff80002ab4:	75 d2                	jne    ffffffff80002a88 <tar_extract+0xe8>
ffffffff80002ab6:	66 2e 0f 1f 84 00 00 	cs nop WORD PTR [rax+rax*1+0x0]
ffffffff80002abd:	00 00 00 
ffffffff80002ac0:	c6 84 15 d0 fd ff ff 	mov    BYTE PTR [rbp+rdx*1-0x230],0x0
ffffffff80002ac7:	00 
ffffffff80002ac8:	31 c0                	xor    eax,eax
ffffffff80002aca:	66 66 2e 0f 1f 84 00 	data16 cs nop WORD PTR [rax+rax*1+0x0]
ffffffff80002ad1:	00 00 00 00 
ffffffff80002ad5:	66 66 2e 0f 1f 84 00 	data16 cs nop WORD PTR [rax+rax*1+0x0]
ffffffff80002adc:	00 00 00 00 
ffffffff80002ae0:	41 f6 44 07 7c df    	test   BYTE PTR [r15+rax*1+0x7c],0xdf
ffffffff80002ae6:	0f 85 04 03 00 00    	jne    ffffffff80002df0 <tar_extract+0x450>
ffffffff80002aec:	48 83 c0 01          	add    rax,0x1
ffffffff80002af0:	48 83 f8 0c          	cmp    rax,0xc
ffffffff80002af4:	75 ea                	jne    ffffffff80002ae0 <tar_extract+0x140>
ffffffff80002af6:	45 31 ed             	xor    r13d,r13d
ffffffff80002af9:	41 0f b6 87 9c 00 00 	movzx  eax,BYTE PTR [r15+0x9c]
ffffffff80002b00:	00 
ffffffff80002b01:	48 8d bd d0 fd ff ff 	lea    rdi,[rbp-0x230]
ffffffff80002b08:	88 85 07 fd ff ff    	mov    BYTE PTR [rbp-0x2f9],al
ffffffff80002b0e:	e8 dd 47 00 00       	call   ffffffff800072f0 <strlen>
ffffffff80002b13:	48 83 e8 01          	sub    rax,0x1
ffffffff80002b17:	48 89 c3             	mov    rbx,rax
ffffffff80002b1a:	79 1e                	jns    ffffffff80002b3a <tar_extract+0x19a>
ffffffff80002b1c:	e9 7f 03 00 00       	jmp    ffffffff80002ea0 <tar_extract+0x500>
ffffffff80002b21:	0f 1f 40 00          	nop    DWORD PTR [rax+0x0]
ffffffff80002b25:	66 66 2e 0f 1f 84 00 	data16 cs nop WORD PTR [rax+rax*1+0x0]
ffffffff80002b2c:	00 00 00 00 
ffffffff80002b30:	48 83 eb 01          	sub    rbx,0x1
ffffffff80002b34:	0f 82 66 03 00 00    	jb     ffffffff80002ea0 <tar_extract+0x500>
ffffffff80002b3a:	80 bc 1d d0 fd ff ff 	cmp    BYTE PTR [rbp+rbx*1-0x230],0x2f
ffffffff80002b41:	2f 
ffffffff80002b42:	75 ec                	jne    ffffffff80002b30 <tar_extract+0x190>
ffffffff80002b44:	31 c0                	xor    eax,eax
ffffffff80002b46:	e8 f5 03 00 00       	call   ffffffff80002f40 <vfs_get_root>
ffffffff80002b4b:	48 85 db             	test   rbx,rbx
ffffffff80002b4e:	0f 84 53 03 00 00    	je     ffffffff80002ea7 <tar_extract+0x507>
ffffffff80002b54:	ba ff 00 00 00       	mov    edx,0xff
ffffffff80002b59:	48 39 d3             	cmp    rbx,rdx
ffffffff80002b5c:	48 0f 47 da          	cmova  rbx,rdx
ffffffff80002b60:	48 8d 53 ff          	lea    rdx,[rbx-0x1]
ffffffff80002b64:	48 83 fa 0e          	cmp    rdx,0xe
ffffffff80002b68:	0f 86 6d 03 00 00    	jbe    ffffffff80002edb <tar_extract+0x53b>
ffffffff80002b6e:	48 89 da             	mov    rdx,rbx
ffffffff80002b71:	31 f6                	xor    esi,esi
ffffffff80002b73:	4c 8d b5 d0 fe ff ff 	lea    r14,[rbp-0x130]
ffffffff80002b7a:	48 83 e2 f0          	and    rdx,0xfffffffffffffff0
ffffffff80002b7e:	66 90                	xchg   ax,ax
ffffffff80002b80:	0f 28 84 35 d0 fd ff 	movaps xmm0,XMMWORD PTR [rbp+rsi*1-0x230]
ffffffff80002b87:	ff 
ffffffff80002b88:	41 0f 29 04 36       	movaps XMMWORD PTR [r14+rsi*1],xmm0
ffffffff80002b8d:	48 83 c6 10          	add    rsi,0x10
ffffffff80002b91:	0f 29 85 10 fd ff ff 	movaps XMMWORD PTR [rbp-0x2f0],xmm0
ffffffff80002b98:	48 39 f2             	cmp    rdx,rsi
ffffffff80002b9b:	75 e3                	jne    ffffffff80002b80 <tar_extract+0x1e0>
ffffffff80002b9d:	48 39 d3             	cmp    rbx,rdx
ffffffff80002ba0:	74 33                	je     ffffffff80002bd5 <tar_extract+0x235>
ffffffff80002ba2:	0f 1f 84 00 00 00 00 	nop    DWORD PTR [rax+rax*1+0x0]
ffffffff80002ba9:	00 
ffffffff80002baa:	66 66 2e 0f 1f 84 00 	data16 cs nop WORD PTR [rax+rax*1+0x0]
ffffffff80002bb1:	00 00 00 00 
ffffffff80002bb5:	66 66 2e 0f 1f 84 00 	data16 cs nop WORD PTR [rax+rax*1+0x0]
ffffffff80002bbc:	00 00 00 00 
ffffffff80002bc0:	0f b6 b4 15 d0 fd ff 	movzx  esi,BYTE PTR [rbp+rdx*1-0x230]
ffffffff80002bc7:	ff 
ffffffff80002bc8:	41 88 34 16          	mov    BYTE PTR [r14+rdx*1],sil
ffffffff80002bcc:	48 83 c2 01          	add    rdx,0x1
ffffffff80002bd0:	48 39 da             	cmp    rdx,rbx
ffffffff80002bd3:	72 eb                	jb     ffffffff80002bc0 <tar_extract+0x220>
ffffffff80002bd5:	c6 84 1d d0 fe ff ff 	mov    BYTE PTR [rbp+rbx*1-0x130],0x0
ffffffff80002bdc:	00 
ffffffff80002bdd:	45 0f b6 26          	movzx  r12d,BYTE PTR [r14]
ffffffff80002be1:	4c 89 f3             	mov    rbx,r14
ffffffff80002be4:	41 80 fc 2f          	cmp    r12b,0x2f
ffffffff80002be8:	0f 84 da 02 00 00    	je     ffffffff80002ec8 <tar_extract+0x528>
ffffffff80002bee:	48 8d 8d 50 fd ff ff 	lea    rcx,[rbp-0x2b0]
ffffffff80002bf5:	31 ff                	xor    edi,edi
ffffffff80002bf7:	48 89 8d 10 fd ff ff 	mov    QWORD PTR [rbp-0x2f0],rcx
ffffffff80002bfe:	45 84 e4             	test   r12b,r12b
ffffffff80002c01:	0f 84 c1 02 00 00    	je     ffffffff80002ec8 <tar_extract+0x528>
ffffffff80002c07:	48 89 fa             	mov    rdx,rdi
ffffffff80002c0a:	66 0f 1f 44 00 00    	nop    WORD PTR [rax+rax*1+0x0]
ffffffff80002c10:	48 83 c3 01          	add    rbx,0x1
ffffffff80002c14:	44 88 a4 15 50 fd ff 	mov    BYTE PTR [rbp+rdx*1-0x2b0],r12b
ffffffff80002c1b:	ff 
ffffffff80002c1c:	48 8d 7a 01          	lea    rdi,[rdx+0x1]
ffffffff80002c20:	44 0f b6 23          	movzx  r12d,BYTE PTR [rbx]
ffffffff80002c24:	41 80 fc 2f          	cmp    r12b,0x2f
ffffffff80002c28:	0f 84 b2 01 00 00    	je     ffffffff80002de0 <tar_extract+0x440>
ffffffff80002c2e:	45 84 e4             	test   r12b,r12b
ffffffff80002c31:	0f 84 a9 01 00 00    	je     ffffffff80002de0 <tar_extract+0x440>
ffffffff80002c37:	48 83 ff 7f          	cmp    rdi,0x7f
ffffffff80002c3b:	75 ca                	jne    ffffffff80002c07 <tar_extract+0x267>
ffffffff80002c3d:	48 89 de             	mov    rsi,rbx
ffffffff80002c40:	44 0f b6 66 01       	movzx  r12d,BYTE PTR [rsi+0x1]
ffffffff80002c45:	48 8d 5e 01          	lea    rbx,[rsi+0x1]
ffffffff80002c49:	45 84 e4             	test   r12b,r12b
ffffffff80002c4c:	0f 84 8e 01 00 00    	je     ffffffff80002de0 <tar_extract+0x440>
ffffffff80002c52:	41 80 fc 2f          	cmp    r12b,0x2f
ffffffff80002c56:	0f 84 84 01 00 00    	je     ffffffff80002de0 <tar_extract+0x440>
ffffffff80002c5c:	44 0f b6 66 02       	movzx  r12d,BYTE PTR [rsi+0x2]
ffffffff80002c61:	48 83 c6 02          	add    rsi,0x2
ffffffff80002c65:	41 80 fc 2f          	cmp    r12b,0x2f
ffffffff80002c69:	74 05                	je     ffffffff80002c70 <tar_extract+0x2d0>
ffffffff80002c6b:	45 84 e4             	test   r12b,r12b
ffffffff80002c6e:	75 d0                	jne    ffffffff80002c40 <tar_extract+0x2a0>
ffffffff80002c70:	48 89 c2             	mov    rdx,rax
ffffffff80002c73:	48 89 f3             	mov    rbx,rsi
ffffffff80002c76:	c6 84 3d 50 fd ff ff 	mov    BYTE PTR [rbp+rdi*1-0x2b0],0x0
ffffffff80002c7d:	00 
ffffffff80002c7e:	48 8d b5 28 fd ff ff 	lea    rsi,[rbp-0x2d8]
ffffffff80002c85:	48 89 85 30 fd ff ff 	mov    QWORD PTR [rbp-0x2d0],rax
ffffffff80002c8c:	48 8b 85 10 fd ff ff 	mov    rax,QWORD PTR [rbp-0x2f0]
ffffffff80002c93:	48 89 bd 48 fd ff ff 	mov    QWORD PTR [rbp-0x2b8],rdi
ffffffff80002c9a:	48 8d bd 30 fd ff ff 	lea    rdi,[rbp-0x2d0]
ffffffff80002ca1:	48 89 95 38 fd ff ff 	mov    QWORD PTR [rbp-0x2c8],rdx
ffffffff80002ca8:	48 89 85 40 fd ff ff 	mov    QWORD PTR [rbp-0x2c0],rax
ffffffff80002caf:	48 c7 85 28 fd ff ff 	mov    QWORD PTR [rbp-0x2d8],0x0
ffffffff80002cb6:	00 00 00 00 
ffffffff80002cba:	e8 11 03 00 00       	call   ffffffff80002fd0 <vfs_lookup>
ffffffff80002cbf:	85 c0                	test   eax,eax
ffffffff80002cc1:	0f 88 89 01 00 00    	js     ffffffff80002e50 <tar_extract+0x4b0>
ffffffff80002cc7:	48 8b 85 28 fd ff ff 	mov    rax,QWORD PTR [rbp-0x2d8]
ffffffff80002cce:	45 84 e4             	test   r12b,r12b
ffffffff80002cd1:	74 1a                	je     ffffffff80002ced <tar_extract+0x34d>
ffffffff80002cd3:	44 0f b6 63 01       	movzx  r12d,BYTE PTR [rbx+0x1]
ffffffff80002cd8:	48 83 c3 01          	add    rbx,0x1
ffffffff80002cdc:	41 80 fc 2f          	cmp    r12b,0x2f
ffffffff80002ce0:	74 ec                	je     ffffffff80002cce <tar_extract+0x32e>
ffffffff80002ce2:	31 d2                	xor    edx,edx
ffffffff80002ce4:	45 84 e4             	test   r12b,r12b
ffffffff80002ce7:	0f 85 23 ff ff ff    	jne    ffffffff80002c10 <tar_extract+0x270>
ffffffff80002ced:	48 8d b5 d0 fd ff ff 	lea    rsi,[rbp-0x230]
ffffffff80002cf4:	4c 89 f7             	mov    rdi,r14
ffffffff80002cf7:	e8 e4 04 00 00       	call   ffffffff800031e0 <vfs_path_from_abs>
ffffffff80002cfc:	80 bd 07 fd ff ff 35 	cmp    BYTE PTR [rbp-0x2f9],0x35
ffffffff80002d03:	48 8b b5 10 fd ff ff 	mov    rsi,QWORD PTR [rbp-0x2f0]
ffffffff80002d0a:	4c 89 f7             	mov    rdi,r14
ffffffff80002d0d:	0f 95 c2             	setne  dl
ffffffff80002d10:	0f 95 c3             	setne  bl
ffffffff80002d13:	48 c7 85 50 fd ff ff 	mov    QWORD PTR [rbp-0x2b0],0x0
ffffffff80002d1a:	00 00 00 00 
ffffffff80002d1e:	0f b6 d2             	movzx  edx,dl
ffffffff80002d21:	e8 aa 03 00 00       	call   ffffffff800030d0 <vfs_create>
ffffffff80002d26:	85 c0                	test   eax,eax
ffffffff80002d28:	0f 88 bb 01 00 00    	js     ffffffff80002ee9 <tar_extract+0x549>
ffffffff80002d2e:	4d 85 ed             	test   r13,r13
ffffffff80002d31:	74 2c                	je     ffffffff80002d5f <tar_extract+0x3bf>
ffffffff80002d33:	84 db                	test   bl,bl
ffffffff80002d35:	74 28                	je     ffffffff80002d5f <tar_extract+0x3bf>
ffffffff80002d37:	48 8b bd 50 fd ff ff 	mov    rdi,QWORD PTR [rbp-0x2b0]
ffffffff80002d3e:	48 8b b5 f0 fc ff ff 	mov    rsi,QWORD PTR [rbp-0x310]
ffffffff80002d45:	31 c9                	xor    ecx,ecx
ffffffff80002d47:	4c 89 ea             	mov    rdx,r13
ffffffff80002d4a:	48 03 b5 f8 fc ff ff 	add    rsi,QWORD PTR [rbp-0x308]
ffffffff80002d51:	e8 2a 06 00 00       	call   ffffffff80003380 <inode_write>
ffffffff80002d56:	48 85 c0             	test   rax,rax
ffffffff80002d59:	0f 88 b1 01 00 00    	js     ffffffff80002f10 <tar_extract+0x570>
ffffffff80002d5f:	48 8b 85 08 fd ff ff 	mov    rax,QWORD PTR [rbp-0x2f8]
ffffffff80002d66:	4d 8d 85 ff 01 00 00 	lea    r8,[r13+0x1ff]
ffffffff80002d6d:	49 81 e0 00 fe ff ff 	and    r8,0xfffffffffffffe00
ffffffff80002d74:	4a 8d 84 00 00 02 00 	lea    rax,[rax+r8*1+0x200]
ffffffff80002d7b:	00 
ffffffff80002d7c:	48 89 85 08 fd ff ff 	mov    QWORD PTR [rbp-0x2f8],rax
ffffffff80002d83:	48 05 00 02 00 00    	add    rax,0x200
ffffffff80002d89:	48 89 85 f0 fc ff ff 	mov    QWORD PTR [rbp-0x310],rax
ffffffff80002d90:	48 39 85 e8 fc ff ff 	cmp    QWORD PTR [rbp-0x318],rax
ffffffff80002d97:	0f 83 53 fc ff ff    	jae    ffffffff800029f0 <tar_extract+0x50>
ffffffff80002d9d:	31 c0                	xor    eax,eax
ffffffff80002d9f:	e9 e8 00 00 00       	jmp    ffffffff80002e8c <tar_extract+0x4ec>
ffffffff80002da4:	0f 1f 40 00          	nop    DWORD PTR [rax+0x0]
ffffffff80002da8:	48 83 c0 02          	add    rax,0x2
ffffffff80002dac:	48 39 c6             	cmp    rsi,rax
ffffffff80002daf:	0f 84 0b fd ff ff    	je     ffffffff80002ac0 <tar_extract+0x120>
ffffffff80002db5:	80 38 00             	cmp    BYTE PTR [rax],0x0
ffffffff80002db8:	0f 84 02 fd ff ff    	je     ffffffff80002ac0 <tar_extract+0x120>
ffffffff80002dbe:	48 8d 78 01          	lea    rdi,[rax+0x1]
ffffffff80002dc2:	48 39 f7             	cmp    rdi,rsi
ffffffff80002dc5:	0f 84 f5 fc ff ff    	je     ffffffff80002ac0 <tar_extract+0x120>
ffffffff80002dcb:	80 78 01 00          	cmp    BYTE PTR [rax+0x1],0x0
ffffffff80002dcf:	75 d7                	jne    ffffffff80002da8 <tar_extract+0x408>
ffffffff80002dd1:	e9 ea fc ff ff       	jmp    ffffffff80002ac0 <tar_extract+0x120>
ffffffff80002dd6:	66 2e 0f 1f 84 00 00 	cs nop WORD PTR [rax+rax*1+0x0]
ffffffff80002ddd:	00 00 00 
ffffffff80002de0:	48 89 c2             	mov    rdx,rax
ffffffff80002de3:	e9 8e fe ff ff       	jmp    ffffffff80002c76 <tar_extract+0x2d6>
ffffffff80002de8:	0f 1f 84 00 00 00 00 	nop    DWORD PTR [rax+rax*1+0x0]
ffffffff80002def:	00 
ffffffff80002df0:	49 8d 54 07 7c       	lea    rdx,[r15+rax*1+0x7c]
ffffffff80002df5:	49 8d bf 88 00 00 00 	lea    rdi,[r15+0x88]
ffffffff80002dfc:	45 31 ed             	xor    r13d,r13d
ffffffff80002dff:	eb 35                	jmp    ffffffff80002e36 <tar_extract+0x496>
ffffffff80002e01:	66 0f 1f 84 00 00 00 	nop    WORD PTR [rax+rax*1+0x0]
ffffffff80002e08:	00 00 
ffffffff80002e0a:	66 66 2e 0f 1f 84 00 	data16 cs nop WORD PTR [rax+rax*1+0x0]
ffffffff80002e11:	00 00 00 00 
ffffffff80002e15:	66 66 2e 0f 1f 84 00 	data16 cs nop WORD PTR [rax+rax*1+0x0]
ffffffff80002e1c:	00 00 00 00 
ffffffff80002e20:	83 e8 30             	sub    eax,0x30
ffffffff80002e23:	48 83 c2 01          	add    rdx,0x1
ffffffff80002e27:	48 98                	cdqe
ffffffff80002e29:	4e 8d 2c e8          	lea    r13,[rax+r13*8]
ffffffff80002e2d:	48 39 fa             	cmp    rdx,rdi
ffffffff80002e30:	0f 84 c3 fc ff ff    	je     ffffffff80002af9 <tar_extract+0x159>
ffffffff80002e36:	0f be 02             	movsx  eax,BYTE PTR [rdx]
ffffffff80002e39:	8d 70 d0             	lea    esi,[rax-0x30]
ffffffff80002e3c:	40 80 fe 07          	cmp    sil,0x7
ffffffff80002e40:	76 de                	jbe    ffffffff80002e20 <tar_extract+0x480>
ffffffff80002e42:	e9 b2 fc ff ff       	jmp    ffffffff80002af9 <tar_extract+0x159>
ffffffff80002e47:	66 0f 1f 84 00 00 00 	nop    WORD PTR [rax+rax*1+0x0]
ffffffff80002e4e:	00 00 
ffffffff80002e50:	31 d2                	xor    edx,edx
ffffffff80002e52:	48 8d b5 28 fd ff ff 	lea    rsi,[rbp-0x2d8]
ffffffff80002e59:	48 8d bd 30 fd ff ff 	lea    rdi,[rbp-0x2d0]
ffffffff80002e60:	e8 6b 02 00 00       	call   ffffffff800030d0 <vfs_create>
ffffffff80002e65:	85 c0                	test   eax,eax
ffffffff80002e67:	0f 89 5a fe ff ff    	jns    ffffffff80002cc7 <tar_extract+0x327>
ffffffff80002e6d:	48 8b b5 10 fd ff ff 	mov    rsi,QWORD PTR [rbp-0x2f0]
ffffffff80002e74:	48 c7 c7 a8 88 00 80 	mov    rdi,0xffffffff800088a8
ffffffff80002e7b:	31 c0                	xor    eax,eax
ffffffff80002e7d:	e8 5e 4f 00 00       	call   ffffffff80007de0 <kprintf>
ffffffff80002e82:	bf 06 00 00 00       	mov    edi,0x6
ffffffff80002e87:	e8 b4 19 00 00       	call   ffffffff80004840 <status_print_error>
ffffffff80002e8c:	48 81 c4 f8 02 00 00 	add    rsp,0x2f8
ffffffff80002e93:	5b                   	pop    rbx
ffffffff80002e94:	41 5c                	pop    r12
ffffffff80002e96:	41 5d                	pop    r13
ffffffff80002e98:	41 5e                	pop    r14
ffffffff80002e9a:	41 5f                	pop    r15
ffffffff80002e9c:	5d                   	pop    rbp
ffffffff80002e9d:	c3                   	ret
ffffffff80002e9e:	66 90                	xchg   ax,ax
ffffffff80002ea0:	31 c0                	xor    eax,eax
ffffffff80002ea2:	e8 99 00 00 00       	call   ffffffff80002f40 <vfs_get_root>
ffffffff80002ea7:	48 8d 85 50 fd ff ff 	lea    rax,[rbp-0x2b0]
ffffffff80002eae:	4c 8d b5 d0 fe ff ff 	lea    r14,[rbp-0x130]
ffffffff80002eb5:	48 89 85 10 fd ff ff 	mov    QWORD PTR [rbp-0x2f0],rax
ffffffff80002ebc:	e9 2c fe ff ff       	jmp    ffffffff80002ced <tar_extract+0x34d>
ffffffff80002ec1:	0f 1f 80 00 00 00 00 	nop    DWORD PTR [rax+0x0]
ffffffff80002ec8:	48 8d 8d 50 fd ff ff 	lea    rcx,[rbp-0x2b0]
ffffffff80002ecf:	48 89 8d 10 fd ff ff 	mov    QWORD PTR [rbp-0x2f0],rcx
ffffffff80002ed6:	e9 f3 fd ff ff       	jmp    ffffffff80002cce <tar_extract+0x32e>
ffffffff80002edb:	31 d2                	xor    edx,edx
ffffffff80002edd:	4c 8d b5 d0 fe ff ff 	lea    r14,[rbp-0x130]
ffffffff80002ee4:	e9 d7 fc ff ff       	jmp    ffffffff80002bc0 <tar_extract+0x220>
ffffffff80002ee9:	48 8b 95 08 fd ff ff 	mov    rdx,QWORD PTR [rbp-0x2f8]
ffffffff80002ef0:	4c 89 fe             	mov    rsi,r15
ffffffff80002ef3:	48 c7 c7 f8 88 00 80 	mov    rdi,0xffffffff800088f8
ffffffff80002efa:	31 c0                	xor    eax,eax
ffffffff80002efc:	e8 df 4e 00 00       	call   ffffffff80007de0 <kprintf>
ffffffff80002f01:	bf 06 00 00 00       	mov    edi,0x6
ffffffff80002f06:	e8 35 19 00 00       	call   ffffffff80004840 <status_print_error>
ffffffff80002f0b:	e9 7c ff ff ff       	jmp    ffffffff80002e8c <tar_extract+0x4ec>
ffffffff80002f10:	48 8d b5 d0 fd ff ff 	lea    rsi,[rbp-0x230]
ffffffff80002f17:	48 c7 c7 50 89 00 80 	mov    rdi,0xffffffff80008950
ffffffff80002f1e:	31 c0                	xor    eax,eax
ffffffff80002f20:	e8 bb 4e 00 00       	call   ffffffff80007de0 <kprintf>
ffffffff80002f25:	bf 06 00 00 00       	mov    edi,0x6
ffffffff80002f2a:	e8 11 19 00 00       	call   ffffffff80004840 <status_print_error>
ffffffff80002f2f:	e9 58 ff ff ff       	jmp    ffffffff80002e8c <tar_extract+0x4ec>
ffffffff80002f34:	66 2e 0f 1f 84 00 00 	cs nop WORD PTR [rax+rax*1+0x0]
ffffffff80002f3b:	00 00 00 
ffffffff80002f3e:	66 90                	xchg   ax,ax

ffffffff80002f40 <vfs_get_root>:
ffffffff80002f40:	48 8b 05 d9 81 00 00 	mov    rax,QWORD PTR [rip+0x81d9]        # ffffffff8000b120 <vfs_root>
ffffffff80002f47:	c3                   	ret
ffffffff80002f48:	0f 1f 84 00 00 00 00 	nop    DWORD PTR [rax+rax*1+0x0]
ffffffff80002f4f:	00 

ffffffff80002f50 <vfs_mount_root>:
ffffffff80002f50:	55                   	push   rbp
ffffffff80002f51:	48 c7 c7 20 b1 00 80 	mov    rdi,0xffffffff8000b120
ffffffff80002f58:	48 89 e5             	mov    rbp,rsp
ffffffff80002f5b:	53                   	push   rbx
ffffffff80002f5c:	48 83 ec 08          	sub    rsp,0x8
ffffffff80002f60:	ff 15 0a 71 00 00    	call   QWORD PTR [rip+0x710a]        # ffffffff8000a070 <tempfs>
ffffffff80002f66:	89 c3                	mov    ebx,eax
ffffffff80002f68:	85 c0                	test   eax,eax
ffffffff80002f6a:	78 24                	js     ffffffff80002f90 <vfs_mount_root+0x40>
ffffffff80002f6c:	31 c0                	xor    eax,eax
ffffffff80002f6e:	48 c7 c6 f8 89 00 80 	mov    rsi,0xffffffff800089f8
ffffffff80002f75:	48 c7 c7 2e 81 00 80 	mov    rdi,0xffffffff8000812e
ffffffff80002f7c:	e8 ef e4 ff ff       	call   ffffffff80001470 <serial_printf>
ffffffff80002f81:	89 d8                	mov    eax,ebx
ffffffff80002f83:	48 8b 5d f8          	mov    rbx,QWORD PTR [rbp-0x8]
ffffffff80002f87:	c9                   	leave
ffffffff80002f88:	c3                   	ret
ffffffff80002f89:	0f 1f 80 00 00 00 00 	nop    DWORD PTR [rax+0x0]
ffffffff80002f90:	89 c2                	mov    edx,eax
ffffffff80002f92:	48 c7 c6 98 89 00 80 	mov    rsi,0xffffffff80008998
ffffffff80002f99:	48 c7 c7 c8 89 00 80 	mov    rdi,0xffffffff800089c8
ffffffff80002fa0:	31 c0                	xor    eax,eax
ffffffff80002fa2:	e8 c9 e4 ff ff       	call   ffffffff80001470 <serial_printf>
ffffffff80002fa7:	eb c3                	jmp    ffffffff80002f6c <vfs_mount_root+0x1c>
ffffffff80002fa9:	0f 1f 80 00 00 00 00 	nop    DWORD PTR [rax+0x0]

ffffffff80002fb0 <vfs_drop>:
ffffffff80002fb0:	48 85 ff             	test   rdi,rdi
ffffffff80002fb3:	74 18                	je     ffffffff80002fcd <vfs_drop+0x1d>
ffffffff80002fb5:	48 3b 3d 64 81 00 00 	cmp    rdi,QWORD PTR [rip+0x8164]        # ffffffff8000b120 <vfs_root>
ffffffff80002fbc:	74 0f                	je     ffffffff80002fcd <vfs_drop+0x1d>
ffffffff80002fbe:	48 8b 07             	mov    rax,QWORD PTR [rdi]
ffffffff80002fc1:	48 85 c0             	test   rax,rax
ffffffff80002fc4:	74 07                	je     ffffffff80002fcd <vfs_drop+0x1d>
ffffffff80002fc6:	48 83 e8 01          	sub    rax,0x1
ffffffff80002fca:	48 89 07             	mov    QWORD PTR [rdi],rax
ffffffff80002fcd:	c3                   	ret
ffffffff80002fce:	66 90                	xchg   ax,ax

ffffffff80002fd0 <vfs_lookup>:
ffffffff80002fd0:	55                   	push   rbp
ffffffff80002fd1:	48 89 e5             	mov    rbp,rsp
ffffffff80002fd4:	41 56                	push   r14
ffffffff80002fd6:	49 89 f6             	mov    r14,rsi
ffffffff80002fd9:	41 55                	push   r13
ffffffff80002fdb:	49 89 fd             	mov    r13,rdi
ffffffff80002fde:	41 54                	push   r12
ffffffff80002fe0:	53                   	push   rbx
ffffffff80002fe1:	48 83 ec 20          	sub    rsp,0x20
ffffffff80002fe5:	48 8b 77 10          	mov    rsi,QWORD PTR [rdi+0x10]
ffffffff80002fe9:	4c 8b 67 18          	mov    r12,QWORD PTR [rdi+0x18]
ffffffff80002fed:	4c 8b 47 08          	mov    r8,QWORD PTR [rdi+0x8]
ffffffff80002ff1:	49 01 f4             	add    r12,rsi
ffffffff80002ff4:	4c 39 e6             	cmp    rsi,r12
ffffffff80002ff7:	72 14                	jb     ffffffff8000300d <vfs_lookup+0x3d>
ffffffff80002ff9:	e9 92 00 00 00       	jmp    ffffffff80003090 <vfs_lookup+0xc0>
ffffffff80002ffe:	66 90                	xchg   ax,ax
ffffffff80003000:	48 83 c6 01          	add    rsi,0x1
ffffffff80003004:	49 39 f4             	cmp    r12,rsi
ffffffff80003007:	0f 84 83 00 00 00    	je     ffffffff80003090 <vfs_lookup+0xc0>
ffffffff8000300d:	80 3e 2f             	cmp    BYTE PTR [rsi],0x2f
ffffffff80003010:	74 ee                	je     ffffffff80003000 <vfs_lookup+0x30>
ffffffff80003012:	48 89 f3             	mov    rbx,rsi
ffffffff80003015:	31 d2                	xor    edx,edx
ffffffff80003017:	4c 39 e6             	cmp    rsi,r12
ffffffff8000301a:	73 18                	jae    ffffffff80003034 <vfs_lookup+0x64>
ffffffff8000301c:	0f 1f 40 00          	nop    DWORD PTR [rax+0x0]
ffffffff80003020:	80 3b 2f             	cmp    BYTE PTR [rbx],0x2f
ffffffff80003023:	74 43                	je     ffffffff80003068 <vfs_lookup+0x98>
ffffffff80003025:	48 83 c3 01          	add    rbx,0x1
ffffffff80003029:	49 39 dc             	cmp    r12,rbx
ffffffff8000302c:	75 f2                	jne    ffffffff80003020 <vfs_lookup+0x50>
ffffffff8000302e:	4c 89 e2             	mov    rdx,r12
ffffffff80003031:	48 29 f2             	sub    rdx,rsi
ffffffff80003034:	49 8b 40 10          	mov    rax,QWORD PTR [r8+0x10]
ffffffff80003038:	48 c7 45 d8 00 00 00 	mov    QWORD PTR [rbp-0x28],0x0
ffffffff8000303f:	00 
ffffffff80003040:	48 8b 40 18          	mov    rax,QWORD PTR [rax+0x18]
ffffffff80003044:	48 85 c0             	test   rax,rax
ffffffff80003047:	74 27                	je     ffffffff80003070 <vfs_lookup+0xa0>
ffffffff80003049:	48 8d 4d d8          	lea    rcx,[rbp-0x28]
ffffffff8000304d:	4c 89 c7             	mov    rdi,r8
ffffffff80003050:	ff d0                	call   rax
ffffffff80003052:	85 c0                	test   eax,eax
ffffffff80003054:	78 28                	js     ffffffff8000307e <vfs_lookup+0xae>
ffffffff80003056:	4c 8b 45 d8          	mov    r8,QWORD PTR [rbp-0x28]
ffffffff8000305a:	4c 39 e3             	cmp    rbx,r12
ffffffff8000305d:	73 31                	jae    ffffffff80003090 <vfs_lookup+0xc0>
ffffffff8000305f:	48 89 de             	mov    rsi,rbx
ffffffff80003062:	eb a9                	jmp    ffffffff8000300d <vfs_lookup+0x3d>
ffffffff80003064:	0f 1f 40 00          	nop    DWORD PTR [rax+0x0]
ffffffff80003068:	48 89 da             	mov    rdx,rbx
ffffffff8000306b:	48 29 f2             	sub    rdx,rsi
ffffffff8000306e:	eb c4                	jmp    ffffffff80003034 <vfs_lookup+0x64>
ffffffff80003070:	bf 02 00 00 00       	mov    edi,0x2
ffffffff80003075:	e8 c6 17 00 00       	call   ffffffff80004840 <status_print_error>
ffffffff8000307a:	85 c0                	test   eax,eax
ffffffff8000307c:	79 d8                	jns    ffffffff80003056 <vfs_lookup+0x86>
ffffffff8000307e:	48 83 c4 20          	add    rsp,0x20
ffffffff80003082:	b8 fc ff ff ff       	mov    eax,0xfffffffc
ffffffff80003087:	5b                   	pop    rbx
ffffffff80003088:	41 5c                	pop    r12
ffffffff8000308a:	41 5d                	pop    r13
ffffffff8000308c:	41 5e                	pop    r14
ffffffff8000308e:	5d                   	pop    rbp
ffffffff8000308f:	c3                   	ret
ffffffff80003090:	4d 85 c0             	test   r8,r8
ffffffff80003093:	74 16                	je     ffffffff800030ab <vfs_lookup+0xdb>
ffffffff80003095:	49 83 00 01          	add    QWORD PTR [r8],0x1
ffffffff80003099:	4d 89 06             	mov    QWORD PTR [r14],r8
ffffffff8000309c:	48 83 c4 20          	add    rsp,0x20
ffffffff800030a0:	31 c0                	xor    eax,eax
ffffffff800030a2:	5b                   	pop    rbx
ffffffff800030a3:	41 5c                	pop    r12
ffffffff800030a5:	41 5d                	pop    r13
ffffffff800030a7:	41 5e                	pop    r14
ffffffff800030a9:	5d                   	pop    rbp
ffffffff800030aa:	c3                   	ret
ffffffff800030ab:	49 8b 75 10          	mov    rsi,QWORD PTR [r13+0x10]
ffffffff800030af:	48 c7 c7 28 8a 00 80 	mov    rdi,0xffffffff80008a28
ffffffff800030b6:	31 c0                	xor    eax,eax
ffffffff800030b8:	4c 89 45 c8          	mov    QWORD PTR [rbp-0x38],r8
ffffffff800030bc:	e8 af e3 ff ff       	call   ffffffff80001470 <serial_printf>
ffffffff800030c1:	4c 8b 45 c8          	mov    r8,QWORD PTR [rbp-0x38]
ffffffff800030c5:	eb d2                	jmp    ffffffff80003099 <vfs_lookup+0xc9>
ffffffff800030c7:	66 0f 1f 84 00 00 00 	nop    WORD PTR [rax+rax*1+0x0]
ffffffff800030ce:	00 00 

ffffffff800030d0 <vfs_create>:
ffffffff800030d0:	55                   	push   rbp
ffffffff800030d1:	48 89 e5             	mov    rbp,rsp
ffffffff800030d4:	41 57                	push   r15
ffffffff800030d6:	41 56                	push   r14
ffffffff800030d8:	41 89 d6             	mov    r14d,edx
ffffffff800030db:	41 55                	push   r13
ffffffff800030dd:	41 54                	push   r12
ffffffff800030df:	49 89 fc             	mov    r12,rdi
ffffffff800030e2:	53                   	push   rbx
ffffffff800030e3:	48 83 ec 48          	sub    rsp,0x48
ffffffff800030e7:	48 8b 47 10          	mov    rax,QWORD PTR [rdi+0x10]
ffffffff800030eb:	48 8b 5f 18          	mov    rbx,QWORD PTR [rdi+0x18]
ffffffff800030ef:	48 89 75 98          	mov    QWORD PTR [rbp-0x68],rsi
ffffffff800030f3:	48 c7 45 a8 00 00 00 	mov    QWORD PTR [rbp-0x58],0x0
ffffffff800030fa:	00 
ffffffff800030fb:	48 01 c3             	add    rbx,rax
ffffffff800030fe:	48 39 d8             	cmp    rax,rbx
ffffffff80003101:	72 16                	jb     ffffffff80003119 <vfs_create+0x49>
ffffffff80003103:	eb 3a                	jmp    ffffffff8000313f <vfs_create+0x6f>
ffffffff80003105:	66 66 2e 0f 1f 84 00 	data16 cs nop WORD PTR [rax+rax*1+0x0]
ffffffff8000310c:	00 00 00 00 
ffffffff80003110:	48 83 eb 01          	sub    rbx,0x1
ffffffff80003114:	48 39 d8             	cmp    rax,rbx
ffffffff80003117:	74 26                	je     ffffffff8000313f <vfs_create+0x6f>
ffffffff80003119:	80 7b ff 2f          	cmp    BYTE PTR [rbx-0x1],0x2f
ffffffff8000311d:	74 f1                	je     ffffffff80003110 <vfs_create+0x40>
ffffffff8000311f:	48 39 d8             	cmp    rax,rbx
ffffffff80003122:	72 15                	jb     ffffffff80003139 <vfs_create+0x69>
ffffffff80003124:	eb 19                	jmp    ffffffff8000313f <vfs_create+0x6f>
ffffffff80003126:	66 2e 0f 1f 84 00 00 	cs nop WORD PTR [rax+rax*1+0x0]
ffffffff8000312d:	00 00 00 
ffffffff80003130:	48 83 eb 01          	sub    rbx,0x1
ffffffff80003134:	48 39 d8             	cmp    rax,rbx
ffffffff80003137:	74 06                	je     ffffffff8000313f <vfs_create+0x6f>
ffffffff80003139:	80 7b ff 2f          	cmp    BYTE PTR [rbx-0x1],0x2f
ffffffff8000313d:	75 f1                	jne    ffffffff80003130 <vfs_create+0x60>
ffffffff8000313f:	49 8b 34 24          	mov    rsi,QWORD PTR [r12]
ffffffff80003143:	49 8b 54 24 08       	mov    rdx,QWORD PTR [r12+0x8]
ffffffff80003148:	49 89 dd             	mov    r13,rbx
ffffffff8000314b:	48 8d 7d b0          	lea    rdi,[rbp-0x50]
ffffffff8000314f:	49 29 c5             	sub    r13,rax
ffffffff80003152:	48 89 45 c0          	mov    QWORD PTR [rbp-0x40],rax
ffffffff80003156:	48 89 75 b0          	mov    QWORD PTR [rbp-0x50],rsi
ffffffff8000315a:	48 8d 75 a8          	lea    rsi,[rbp-0x58]
ffffffff8000315e:	48 89 55 b8          	mov    QWORD PTR [rbp-0x48],rdx
ffffffff80003162:	4c 89 6d c8          	mov    QWORD PTR [rbp-0x38],r13
ffffffff80003166:	e8 65 fe ff ff       	call   ffffffff80002fd0 <vfs_lookup>
ffffffff8000316b:	85 c0                	test   eax,eax
ffffffff8000316d:	75 5d                	jne    ffffffff800031cc <vfs_create+0xfc>
ffffffff8000316f:	4c 8b 7d a8          	mov    r15,QWORD PTR [rbp-0x58]
ffffffff80003173:	49 8b 47 10          	mov    rax,QWORD PTR [r15+0x10]
ffffffff80003177:	48 8b 00             	mov    rax,QWORD PTR [rax]
ffffffff8000317a:	48 85 c0             	test   rax,rax
ffffffff8000317d:	74 41                	je     ffffffff800031c0 <vfs_create+0xf0>
ffffffff8000317f:	49 8b 54 24 18       	mov    rdx,QWORD PTR [r12+0x18]
ffffffff80003184:	48 8b 4d 98          	mov    rcx,QWORD PTR [rbp-0x68]
ffffffff80003188:	45 89 f0             	mov    r8d,r14d
ffffffff8000318b:	48 89 de             	mov    rsi,rbx
ffffffff8000318e:	4c 89 ff             	mov    rdi,r15
ffffffff80003191:	4c 29 ea             	sub    rdx,r13
ffffffff80003194:	ff d0                	call   rax
ffffffff80003196:	4c 3b 3d 83 7f 00 00 	cmp    r15,QWORD PTR [rip+0x7f83]        # ffffffff8000b120 <vfs_root>
ffffffff8000319d:	74 0f                	je     ffffffff800031ae <vfs_create+0xde>
ffffffff8000319f:	49 8b 17             	mov    rdx,QWORD PTR [r15]
ffffffff800031a2:	48 85 d2             	test   rdx,rdx
ffffffff800031a5:	74 07                	je     ffffffff800031ae <vfs_create+0xde>
ffffffff800031a7:	48 83 ea 01          	sub    rdx,0x1
ffffffff800031ab:	49 89 17             	mov    QWORD PTR [r15],rdx
ffffffff800031ae:	48 83 c4 48          	add    rsp,0x48
ffffffff800031b2:	5b                   	pop    rbx
ffffffff800031b3:	41 5c                	pop    r12
ffffffff800031b5:	41 5d                	pop    r13
ffffffff800031b7:	41 5e                	pop    r14
ffffffff800031b9:	41 5f                	pop    r15
ffffffff800031bb:	5d                   	pop    rbp
ffffffff800031bc:	c3                   	ret
ffffffff800031bd:	0f 1f 00             	nop    DWORD PTR [rax]
ffffffff800031c0:	bf 02 00 00 00       	mov    edi,0x2
ffffffff800031c5:	e8 76 16 00 00       	call   ffffffff80004840 <status_print_error>
ffffffff800031ca:	eb ca                	jmp    ffffffff80003196 <vfs_create+0xc6>
ffffffff800031cc:	b8 fc ff ff ff       	mov    eax,0xfffffffc
ffffffff800031d1:	eb db                	jmp    ffffffff800031ae <vfs_create+0xde>
ffffffff800031d3:	66 2e 0f 1f 84 00 00 	cs nop WORD PTR [rax+rax*1+0x0]
ffffffff800031da:	00 00 00 
ffffffff800031dd:	0f 1f 00             	nop    DWORD PTR [rax]

ffffffff800031e0 <vfs_path_from_abs>:
ffffffff800031e0:	55                   	push   rbp
ffffffff800031e1:	48 89 e5             	mov    rbp,rsp
ffffffff800031e4:	41 55                	push   r13
ffffffff800031e6:	41 54                	push   r12
ffffffff800031e8:	49 89 f4             	mov    r12,rsi
ffffffff800031eb:	53                   	push   rbx
ffffffff800031ec:	48 89 fb             	mov    rbx,rdi
ffffffff800031ef:	48 89 f7             	mov    rdi,rsi
ffffffff800031f2:	48 83 ec 08          	sub    rsp,0x8
ffffffff800031f6:	4c 8b 2d 23 7f 00 00 	mov    r13,QWORD PTR [rip+0x7f23]        # ffffffff8000b120 <vfs_root>
ffffffff800031fd:	e8 ee 40 00 00       	call   ffffffff800072f0 <strlen>
ffffffff80003202:	4c 89 63 10          	mov    QWORD PTR [rbx+0x10],r12
ffffffff80003206:	48 89 43 18          	mov    QWORD PTR [rbx+0x18],rax
ffffffff8000320a:	48 89 d8             	mov    rax,rbx
ffffffff8000320d:	4c 89 2b             	mov    QWORD PTR [rbx],r13
ffffffff80003210:	4c 89 6b 08          	mov    QWORD PTR [rbx+0x8],r13
ffffffff80003214:	48 83 c4 08          	add    rsp,0x8
ffffffff80003218:	5b                   	pop    rbx
ffffffff80003219:	41 5c                	pop    r12
ffffffff8000321b:	41 5d                	pop    r13
ffffffff8000321d:	5d                   	pop    rbp
ffffffff8000321e:	c3                   	ret
ffffffff8000321f:	90                   	nop

ffffffff80003220 <vfs_filesize>:
ffffffff80003220:	55                   	push   rbp
ffffffff80003221:	48 89 e5             	mov    rbp,rsp
ffffffff80003224:	41 54                	push   r12
ffffffff80003226:	53                   	push   rbx
ffffffff80003227:	48 81 ec 00 10 00 00 	sub    rsp,0x1000
ffffffff8000322e:	48 85 ff             	test   rdi,rdi
ffffffff80003231:	74 6d                	je     ffffffff800032a0 <vfs_filesize+0x80>
ffffffff80003233:	48 8b 47 10          	mov    rax,QWORD PTR [rdi+0x10]
ffffffff80003237:	48 8b 40 08          	mov    rax,QWORD PTR [rax+0x8]
ffffffff8000323b:	48 85 c0             	test   rax,rax
ffffffff8000323e:	74 60                	je     ffffffff800032a0 <vfs_filesize+0x80>
ffffffff80003240:	49 89 fc             	mov    r12,rdi
ffffffff80003243:	31 db                	xor    ebx,ebx
ffffffff80003245:	eb 15                	jmp    ffffffff8000325c <vfs_filesize+0x3c>
ffffffff80003247:	66 0f 1f 84 00 00 00 	nop    WORD PTR [rax+rax*1+0x0]
ffffffff8000324e:	00 00 
ffffffff80003250:	48 01 c3             	add    rbx,rax
ffffffff80003253:	49 8b 44 24 10       	mov    rax,QWORD PTR [r12+0x10]
ffffffff80003258:	48 8b 40 08          	mov    rax,QWORD PTR [rax+0x8]
ffffffff8000325c:	48 85 c0             	test   rax,rax
ffffffff8000325f:	74 2f                	je     ffffffff80003290 <vfs_filesize+0x70>
ffffffff80003261:	48 89 d9             	mov    rcx,rbx
ffffffff80003264:	ba 00 10 00 00       	mov    edx,0x1000
ffffffff80003269:	48 8d b5 f0 ef ff ff 	lea    rsi,[rbp-0x1010]
ffffffff80003270:	4c 89 e7             	mov    rdi,r12
ffffffff80003273:	ff d0                	call   rax
ffffffff80003275:	48 85 c0             	test   rax,rax
ffffffff80003278:	7f d6                	jg     ffffffff80003250 <vfs_filesize+0x30>
ffffffff8000327a:	48 81 c4 00 10 00 00 	add    rsp,0x1000
ffffffff80003281:	48 89 d8             	mov    rax,rbx
ffffffff80003284:	5b                   	pop    rbx
ffffffff80003285:	41 5c                	pop    r12
ffffffff80003287:	5d                   	pop    rbp
ffffffff80003288:	c3                   	ret
ffffffff80003289:	0f 1f 80 00 00 00 00 	nop    DWORD PTR [rax+0x0]
ffffffff80003290:	bf 02 00 00 00       	mov    edi,0x2
ffffffff80003295:	e8 a6 15 00 00       	call   ffffffff80004840 <status_print_error>
ffffffff8000329a:	89 c0                	mov    eax,eax
ffffffff8000329c:	eb d7                	jmp    ffffffff80003275 <vfs_filesize+0x55>
ffffffff8000329e:	66 90                	xchg   ax,ax
ffffffff800032a0:	48 81 c4 00 10 00 00 	add    rsp,0x1000
ffffffff800032a7:	31 db                	xor    ebx,ebx
ffffffff800032a9:	48 89 d8             	mov    rax,rbx
ffffffff800032ac:	5b                   	pop    rbx
ffffffff800032ad:	41 5c                	pop    r12
ffffffff800032af:	5d                   	pop    rbp
ffffffff800032b0:	c3                   	ret
ffffffff800032b1:	66 2e 0f 1f 84 00 00 	cs nop WORD PTR [rax+rax*1+0x0]
ffffffff800032b8:	00 00 00 
ffffffff800032bb:	0f 1f 44 00 00       	nop    DWORD PTR [rax+rax*1+0x0]

ffffffff800032c0 <vfs_read_exact>:
ffffffff800032c0:	48 85 d2             	test   rdx,rdx
ffffffff800032c3:	0f 84 8a 00 00 00    	je     ffffffff80003353 <vfs_read_exact+0x93>
ffffffff800032c9:	55                   	push   rbp
ffffffff800032ca:	48 89 e5             	mov    rbp,rsp
ffffffff800032cd:	41 56                	push   r14
ffffffff800032cf:	49 89 fe             	mov    r14,rdi
ffffffff800032d2:	41 55                	push   r13
ffffffff800032d4:	49 89 f5             	mov    r13,rsi
ffffffff800032d7:	41 54                	push   r12
ffffffff800032d9:	49 89 cc             	mov    r12,rcx
ffffffff800032dc:	53                   	push   rbx
ffffffff800032dd:	48 89 d3             	mov    rbx,rdx
ffffffff800032e0:	eb 29                	jmp    ffffffff8000330b <vfs_read_exact+0x4b>
ffffffff800032e2:	66 0f 1f 44 00 00    	nop    WORD PTR [rax+rax*1+0x0]
ffffffff800032e8:	4c 89 e1             	mov    rcx,r12
ffffffff800032eb:	48 89 da             	mov    rdx,rbx
ffffffff800032ee:	4c 89 ee             	mov    rsi,r13
ffffffff800032f1:	4c 89 f7             	mov    rdi,r14
ffffffff800032f4:	ff d0                	call   rax
ffffffff800032f6:	48 85 c0             	test   rax,rax
ffffffff800032f9:	78 41                	js     ffffffff8000333c <vfs_read_exact+0x7c>
ffffffff800032fb:	48 85 c0             	test   rax,rax
ffffffff800032fe:	74 30                	je     ffffffff80003330 <vfs_read_exact+0x70>
ffffffff80003300:	49 01 c5             	add    r13,rax
ffffffff80003303:	49 01 c4             	add    r12,rax
ffffffff80003306:	48 29 c3             	sub    rbx,rax
ffffffff80003309:	74 3d                	je     ffffffff80003348 <vfs_read_exact+0x88>
ffffffff8000330b:	49 8b 46 10          	mov    rax,QWORD PTR [r14+0x10]
ffffffff8000330f:	48 8b 40 08          	mov    rax,QWORD PTR [rax+0x8]
ffffffff80003313:	48 85 c0             	test   rax,rax
ffffffff80003316:	75 d0                	jne    ffffffff800032e8 <vfs_read_exact+0x28>
ffffffff80003318:	bf 02 00 00 00       	mov    edi,0x2
ffffffff8000331d:	e8 1e 15 00 00       	call   ffffffff80004840 <status_print_error>
ffffffff80003322:	89 c0                	mov    eax,eax
ffffffff80003324:	48 85 c0             	test   rax,rax
ffffffff80003327:	75 d7                	jne    ffffffff80003300 <vfs_read_exact+0x40>
ffffffff80003329:	0f 1f 80 00 00 00 00 	nop    DWORD PTR [rax+0x0]
ffffffff80003330:	bf 05 00 00 00       	mov    edi,0x5
ffffffff80003335:	e8 06 15 00 00       	call   ffffffff80004840 <status_print_error>
ffffffff8000333a:	89 c0                	mov    eax,eax
ffffffff8000333c:	5b                   	pop    rbx
ffffffff8000333d:	41 5c                	pop    r12
ffffffff8000333f:	41 5d                	pop    r13
ffffffff80003341:	41 5e                	pop    r14
ffffffff80003343:	5d                   	pop    rbp
ffffffff80003344:	c3                   	ret
ffffffff80003345:	0f 1f 00             	nop    DWORD PTR [rax]
ffffffff80003348:	5b                   	pop    rbx
ffffffff80003349:	31 c0                	xor    eax,eax
ffffffff8000334b:	41 5c                	pop    r12
ffffffff8000334d:	41 5d                	pop    r13
ffffffff8000334f:	41 5e                	pop    r14
ffffffff80003351:	5d                   	pop    rbp
ffffffff80003352:	c3                   	ret
ffffffff80003353:	31 c0                	xor    eax,eax
ffffffff80003355:	c3                   	ret
ffffffff80003356:	66 2e 0f 1f 84 00 00 	cs nop WORD PTR [rax+rax*1+0x0]
ffffffff8000335d:	00 00 00 

ffffffff80003360 <inode_drop>:
ffffffff80003360:	48 8b 47 10          	mov    rax,QWORD PTR [rdi+0x10]
ffffffff80003364:	48 8b 40 20          	mov    rax,QWORD PTR [rax+0x20]
ffffffff80003368:	48 85 c0             	test   rax,rax
ffffffff8000336b:	74 03                	je     ffffffff80003370 <inode_drop+0x10>
ffffffff8000336d:	ff e0                	jmp    rax
ffffffff8000336f:	90                   	nop
ffffffff80003370:	c3                   	ret
ffffffff80003371:	66 2e 0f 1f 84 00 00 	cs nop WORD PTR [rax+rax*1+0x0]
ffffffff80003378:	00 00 00 
ffffffff8000337b:	0f 1f 44 00 00       	nop    DWORD PTR [rax+rax*1+0x0]

ffffffff80003380 <inode_write>:
ffffffff80003380:	48 8b 47 10          	mov    rax,QWORD PTR [rdi+0x10]
ffffffff80003384:	48 8b 40 10          	mov    rax,QWORD PTR [rax+0x10]
ffffffff80003388:	48 85 c0             	test   rax,rax
ffffffff8000338b:	74 03                	je     ffffffff80003390 <inode_write+0x10>
ffffffff8000338d:	ff e0                	jmp    rax
ffffffff8000338f:	90                   	nop
ffffffff80003390:	55                   	push   rbp
ffffffff80003391:	bf 02 00 00 00       	mov    edi,0x2
ffffffff80003396:	48 89 e5             	mov    rbp,rsp
ffffffff80003399:	e8 a2 14 00 00       	call   ffffffff80004840 <status_print_error>
ffffffff8000339e:	5d                   	pop    rbp
ffffffff8000339f:	89 c0                	mov    eax,eax
ffffffff800033a1:	c3                   	ret
ffffffff800033a2:	66 2e 0f 1f 84 00 00 	cs nop WORD PTR [rax+rax*1+0x0]
ffffffff800033a9:	00 00 00 
ffffffff800033ac:	0f 1f 40 00          	nop    DWORD PTR [rax+0x0]

ffffffff800033b0 <inode_read>:
ffffffff800033b0:	48 8b 47 10          	mov    rax,QWORD PTR [rdi+0x10]
ffffffff800033b4:	48 8b 40 08          	mov    rax,QWORD PTR [rax+0x8]
ffffffff800033b8:	48 85 c0             	test   rax,rax
ffffffff800033bb:	74 03                	je     ffffffff800033c0 <inode_read+0x10>
ffffffff800033bd:	ff e0                	jmp    rax
ffffffff800033bf:	90                   	nop
ffffffff800033c0:	55                   	push   rbp
ffffffff800033c1:	bf 02 00 00 00       	mov    edi,0x2
ffffffff800033c6:	48 89 e5             	mov    rbp,rsp
ffffffff800033c9:	e8 72 14 00 00       	call   ffffffff80004840 <status_print_error>
ffffffff800033ce:	5d                   	pop    rbp
ffffffff800033cf:	89 c0                	mov    eax,eax
ffffffff800033d1:	c3                   	ret
ffffffff800033d2:	66 2e 0f 1f 84 00 00 	cs nop WORD PTR [rax+rax*1+0x0]
ffffffff800033d9:	00 00 00 
ffffffff800033dc:	0f 1f 40 00          	nop    DWORD PTR [rax+0x0]

ffffffff800033e0 <elf_load>:
ffffffff800033e0:	55                   	push   rbp
ffffffff800033e1:	31 c0                	xor    eax,eax
ffffffff800033e3:	b9 08 00 00 00       	mov    ecx,0x8
ffffffff800033e8:	48 89 e5             	mov    rbp,rsp
ffffffff800033eb:	41 57                	push   r15
ffffffff800033ed:	41 56                	push   r14
ffffffff800033ef:	41 55                	push   r13
ffffffff800033f1:	41 54                	push   r12
ffffffff800033f3:	53                   	push   rbx
ffffffff800033f4:	48 89 fb             	mov    rbx,rdi
ffffffff800033f7:	48 81 ec 98 00 00 00 	sub    rsp,0x98
ffffffff800033fe:	48 89 7d 80          	mov    QWORD PTR [rbp-0x80],rdi
ffffffff80003402:	48 8d 7d 90          	lea    rdi,[rbp-0x70]
ffffffff80003406:	f3 48 ab             	rep stos QWORD PTR [rdi],rax
ffffffff80003409:	48 89 75 88          	mov    QWORD PTR [rbp-0x78],rsi
ffffffff8000340d:	48 89 df             	mov    rdi,rbx
ffffffff80003410:	48 8d 75 90          	lea    rsi,[rbp-0x70]
ffffffff80003414:	48 89 95 78 ff ff ff 	mov    QWORD PTR [rbp-0x88],rdx
ffffffff8000341b:	ba 40 00 00 00       	mov    edx,0x40
ffffffff80003420:	e8 9b fe ff ff       	call   ffffffff800032c0 <vfs_read_exact>
ffffffff80003425:	89 c3                	mov    ebx,eax
ffffffff80003427:	48 85 c0             	test   rax,rax
ffffffff8000342a:	74 14                	je     ffffffff80003440 <elf_load+0x60>
ffffffff8000342c:	48 81 c4 98 00 00 00 	add    rsp,0x98
ffffffff80003433:	89 d8                	mov    eax,ebx
ffffffff80003435:	5b                   	pop    rbx
ffffffff80003436:	41 5c                	pop    r12
ffffffff80003438:	41 5d                	pop    r13
ffffffff8000343a:	41 5e                	pop    r14
ffffffff8000343c:	41 5f                	pop    r15
ffffffff8000343e:	5d                   	pop    rbp
ffffffff8000343f:	c3                   	ret
ffffffff80003440:	ba 04 00 00 00       	mov    edx,0x4
ffffffff80003445:	48 8d 75 90          	lea    rsi,[rbp-0x70]
ffffffff80003449:	48 c7 c7 42 81 00 80 	mov    rdi,0xffffffff80008142
ffffffff80003450:	e8 4b 3e 00 00       	call   ffffffff800072a0 <memcmp>
ffffffff80003455:	89 c3                	mov    ebx,eax
ffffffff80003457:	85 c0                	test   eax,eax
ffffffff80003459:	0f 85 db 02 00 00    	jne    ffffffff8000373a <elf_load+0x35a>
ffffffff8000345f:	66 83 7d a0 02       	cmp    WORD PTR [rbp-0x60],0x2
ffffffff80003464:	0f 85 3a 02 00 00    	jne    ffffffff800036a4 <elf_load+0x2c4>
ffffffff8000346a:	80 7d 94 02          	cmp    BYTE PTR [rbp-0x6c],0x2
ffffffff8000346e:	0f 85 b3 02 00 00    	jne    ffffffff80003727 <elf_load+0x347>
ffffffff80003474:	80 7d 95 01          	cmp    BYTE PTR [rbp-0x6b],0x1
ffffffff80003478:	0f 85 99 02 00 00    	jne    ffffffff80003717 <elf_load+0x337>
ffffffff8000347e:	66 83 7d c6 38       	cmp    WORD PTR [rbp-0x3a],0x38
ffffffff80003483:	0f 85 29 02 00 00    	jne    ffffffff800036b2 <elf_load+0x2d2>
ffffffff80003489:	0f b7 45 c8          	movzx  eax,WORD PTR [rbp-0x38]
ffffffff8000348d:	4c 6b f0 38          	imul   r14,rax,0x38
ffffffff80003491:	4c 89 f7             	mov    rdi,r14
ffffffff80003494:	e8 67 22 00 00       	call   ffffffff80005700 <kmalloc>
ffffffff80003499:	49 89 c7             	mov    r15,rax
ffffffff8000349c:	48 85 c0             	test   rax,rax
ffffffff8000349f:	74 8b                	je     ffffffff8000342c <elf_load+0x4c>
ffffffff800034a1:	48 8b 4d b0          	mov    rcx,QWORD PTR [rbp-0x50]
ffffffff800034a5:	48 8b 7d 80          	mov    rdi,QWORD PTR [rbp-0x80]
ffffffff800034a9:	4c 89 f2             	mov    rdx,r14
ffffffff800034ac:	48 89 c6             	mov    rsi,rax
ffffffff800034af:	e8 0c fe ff ff       	call   ffffffff800032c0 <vfs_read_exact>
ffffffff800034b4:	48 89 c2             	mov    rdx,rax
ffffffff800034b7:	48 85 c0             	test   rax,rax
ffffffff800034ba:	0f 85 e0 01 00 00    	jne    ffffffff800036a0 <elf_load+0x2c0>
ffffffff800034c0:	66 83 7d c8 00       	cmp    WORD PTR [rbp-0x38],0x0
ffffffff800034c5:	0f 84 b5 01 00 00    	je     ffffffff80003680 <elf_load+0x2a0>
ffffffff800034cb:	4c 89 b5 58 ff ff ff 	mov    QWORD PTR [rbp-0xa8],r14
ffffffff800034d2:	4d 89 f8             	mov    r8,r15
ffffffff800034d5:	45 31 c9             	xor    r9d,r9d
ffffffff800034d8:	89 9d 4c ff ff ff    	mov    DWORD PTR [rbp-0xb4],ebx
ffffffff800034de:	4c 89 bd 50 ff ff ff 	mov    QWORD PTR [rbp-0xb0],r15
ffffffff800034e5:	eb 2e                	jmp    ffffffff80003515 <elf_load+0x135>
ffffffff800034e7:	0f 1f 00             	nop    DWORD PTR [rax]
ffffffff800034ea:	66 66 2e 0f 1f 84 00 	data16 cs nop WORD PTR [rax+rax*1+0x0]
ffffffff800034f1:	00 00 00 00 
ffffffff800034f5:	66 66 2e 0f 1f 84 00 	data16 cs nop WORD PTR [rax+rax*1+0x0]
ffffffff800034fc:	00 00 00 00 
ffffffff80003500:	0f b7 45 c8          	movzx  eax,WORD PTR [rbp-0x38]
ffffffff80003504:	41 83 c1 01          	add    r9d,0x1
ffffffff80003508:	49 83 c0 38          	add    r8,0x38
ffffffff8000350c:	44 39 c8             	cmp    eax,r9d
ffffffff8000350f:	0f 8e 5b 01 00 00    	jle    ffffffff80003670 <elf_load+0x290>
ffffffff80003515:	41 83 38 01          	cmp    DWORD PTR [r8],0x1
ffffffff80003519:	75 e5                	jne    ffffffff80003500 <elf_load+0x120>
ffffffff8000351b:	41 8b 40 04          	mov    eax,DWORD PTR [r8+0x4]
ffffffff8000351f:	85 c0                	test   eax,eax
ffffffff80003521:	74 dd                	je     ffffffff80003500 <elf_load+0x120>
ffffffff80003523:	83 e0 02             	and    eax,0x2
ffffffff80003526:	4d 8b 50 10          	mov    r10,QWORD PTR [r8+0x10]
ffffffff8000352a:	44 89 8d 60 ff ff ff 	mov    DWORD PTR [rbp-0xa0],r9d
ffffffff80003531:	83 f8 01             	cmp    eax,0x1
ffffffff80003534:	49 8b 40 28          	mov    rax,QWORD PTR [r8+0x28]
ffffffff80003538:	4c 89 85 68 ff ff ff 	mov    QWORD PTR [rbp-0x98],r8
ffffffff8000353f:	48 19 db             	sbb    rbx,rbx
ffffffff80003542:	4d 89 d6             	mov    r14,r10
ffffffff80003545:	4c 89 95 70 ff ff ff 	mov    QWORD PTR [rbp-0x90],r10
ffffffff8000354c:	4d 8d bc 02 ff 0f 00 	lea    r15,[r10+rax*1+0xfff]
ffffffff80003553:	00 
ffffffff80003554:	49 81 e6 00 f0 ff ff 	and    r14,0xfffffffffffff000
ffffffff8000355b:	48 83 e3 fe          	and    rbx,0xfffffffffffffffe
ffffffff8000355f:	49 81 e7 00 f0 ff ff 	and    r15,0xfffffffffffff000
ffffffff80003566:	48 83 c3 07          	add    rbx,0x7
ffffffff8000356a:	4d 89 fd             	mov    r13,r15
ffffffff8000356d:	4d 29 f5             	sub    r13,r14
ffffffff80003570:	4c 89 ef             	mov    rdi,r13
ffffffff80003573:	e8 88 21 00 00       	call   ffffffff80005700 <kmalloc>
ffffffff80003578:	49 89 c4             	mov    r12,rax
ffffffff8000357b:	48 85 c0             	test   rax,rax
ffffffff8000357e:	0f 84 38 01 00 00    	je     ffffffff800036bc <elf_load+0x2dc>
ffffffff80003584:	4c 89 ea             	mov    rdx,r13
ffffffff80003587:	31 f6                	xor    esi,esi
ffffffff80003589:	48 89 c7             	mov    rdi,rax
ffffffff8000358c:	e8 5f 3c 00 00       	call   ffffffff800071f0 <memset>
ffffffff80003591:	4c 8b 85 68 ff ff ff 	mov    r8,QWORD PTR [rbp-0x98]
ffffffff80003598:	4c 8b 95 70 ff ff ff 	mov    r10,QWORD PTR [rbp-0x90]
ffffffff8000359f:	44 8b 8d 60 ff ff ff 	mov    r9d,DWORD PTR [rbp-0xa0]
ffffffff800035a6:	49 8b 50 20          	mov    rdx,QWORD PTR [r8+0x20]
ffffffff800035aa:	4d 29 d7             	sub    r15,r10
ffffffff800035ad:	49 39 d7             	cmp    r15,rdx
ffffffff800035b0:	0f 82 1c 01 00 00    	jb     ffffffff800036d2 <elf_load+0x2f2>
ffffffff800035b6:	4d 29 f2             	sub    r10,r14
ffffffff800035b9:	49 8b 48 08          	mov    rcx,QWORD PTR [r8+0x8]
ffffffff800035bd:	48 8b 7d 80          	mov    rdi,QWORD PTR [rbp-0x80]
ffffffff800035c1:	44 89 8d 68 ff ff ff 	mov    DWORD PTR [rbp-0x98],r9d
ffffffff800035c8:	4b 8d 34 14          	lea    rsi,[r12+r10*1]
ffffffff800035cc:	4c 89 85 70 ff ff ff 	mov    QWORD PTR [rbp-0x90],r8
ffffffff800035d3:	e8 e8 fc ff ff       	call   ffffffff800032c0 <vfs_read_exact>
ffffffff800035d8:	48 89 c2             	mov    rdx,rax
ffffffff800035db:	48 85 c0             	test   rax,rax
ffffffff800035de:	0f 88 0e 01 00 00    	js     ffffffff800036f2 <elf_load+0x312>
ffffffff800035e4:	45 31 ff             	xor    r15d,r15d
ffffffff800035e7:	4d 85 ed             	test   r13,r13
ffffffff800035ea:	4c 8b 85 70 ff ff ff 	mov    r8,QWORD PTR [rbp-0x90]
ffffffff800035f1:	44 8b 8d 68 ff ff ff 	mov    r9d,DWORD PTR [rbp-0x98]
ffffffff800035f8:	0f 84 02 ff ff ff    	je     ffffffff80003500 <elf_load+0x120>
ffffffff800035fe:	48 89 85 70 ff ff ff 	mov    QWORD PTR [rbp-0x90],rax
ffffffff80003605:	44 89 8d 68 ff ff ff 	mov    DWORD PTR [rbp-0x98],r9d
ffffffff8000360c:	4c 89 85 60 ff ff ff 	mov    QWORD PTR [rbp-0xa0],r8
ffffffff80003613:	66 90                	xchg   ax,ax
ffffffff80003615:	66 66 2e 0f 1f 84 00 	data16 cs nop WORD PTR [rax+rax*1+0x0]
ffffffff8000361c:	00 00 00 00 
ffffffff80003620:	48 8b 0d 41 ca ff ff 	mov    rcx,QWORD PTR [rip+0xffffffffffffca41]        # ffffffff80000068 <hhdm_request+0x28>
ffffffff80003627:	4c 89 fe             	mov    rsi,r15
ffffffff8000362a:	48 8b 7d 88          	mov    rdi,QWORD PTR [rbp-0x78]
ffffffff8000362e:	4b 8d 14 37          	lea    rdx,[r15+r14*1]
ffffffff80003632:	49 81 c7 00 10 00 00 	add    r15,0x1000
ffffffff80003639:	48 2b 71 08          	sub    rsi,QWORD PTR [rcx+0x8]
ffffffff8000363d:	48 89 d9             	mov    rcx,rbx
ffffffff80003640:	4c 01 e6             	add    rsi,r12
ffffffff80003643:	e8 88 1d 00 00       	call   ffffffff800053d0 <paging_map_page>
ffffffff80003648:	4d 39 ef             	cmp    r15,r13
ffffffff8000364b:	75 d3                	jne    ffffffff80003620 <elf_load+0x240>
ffffffff8000364d:	48 8b 95 70 ff ff ff 	mov    rdx,QWORD PTR [rbp-0x90]
ffffffff80003654:	44 8b 8d 68 ff ff ff 	mov    r9d,DWORD PTR [rbp-0x98]
ffffffff8000365b:	4c 8b 85 60 ff ff ff 	mov    r8,QWORD PTR [rbp-0xa0]
ffffffff80003662:	e9 99 fe ff ff       	jmp    ffffffff80003500 <elf_load+0x120>
ffffffff80003667:	66 0f 1f 84 00 00 00 	nop    WORD PTR [rax+rax*1+0x0]
ffffffff8000366e:	00 00 
ffffffff80003670:	4c 8b b5 58 ff ff ff 	mov    r14,QWORD PTR [rbp-0xa8]
ffffffff80003677:	4c 8b bd 50 ff ff ff 	mov    r15,QWORD PTR [rbp-0xb0]
ffffffff8000367e:	89 d3                	mov    ebx,edx
ffffffff80003680:	48 8b 45 a8          	mov    rax,QWORD PTR [rbp-0x58]
ffffffff80003684:	48 8b bd 78 ff ff ff 	mov    rdi,QWORD PTR [rbp-0x88]
ffffffff8000368b:	48 89 07             	mov    QWORD PTR [rdi],rax
ffffffff8000368e:	4c 89 f6             	mov    rsi,r14
ffffffff80003691:	4c 89 ff             	mov    rdi,r15
ffffffff80003694:	e8 97 20 00 00       	call   ffffffff80005730 <kfree>
ffffffff80003699:	e9 8e fd ff ff       	jmp    ffffffff8000342c <elf_load+0x4c>
ffffffff8000369e:	66 90                	xchg   ax,ax
ffffffff800036a0:	89 c3                	mov    ebx,eax
ffffffff800036a2:	eb ea                	jmp    ffffffff8000368e <elf_load+0x2ae>
ffffffff800036a4:	48 c7 c7 c8 8a 00 80 	mov    rdi,0xffffffff80008ac8
ffffffff800036ab:	31 c0                	xor    eax,eax
ffffffff800036ad:	e8 2e 47 00 00       	call   ffffffff80007de0 <kprintf>
ffffffff800036b2:	bb f8 ff ff ff       	mov    ebx,0xfffffff8
ffffffff800036b7:	e9 70 fd ff ff       	jmp    ffffffff8000342c <elf_load+0x4c>
ffffffff800036bc:	4c 8b b5 58 ff ff ff 	mov    r14,QWORD PTR [rbp-0xa8]
ffffffff800036c3:	8b 9d 4c ff ff ff    	mov    ebx,DWORD PTR [rbp-0xb4]
ffffffff800036c9:	4c 8b bd 50 ff ff ff 	mov    r15,QWORD PTR [rbp-0xb0]
ffffffff800036d0:	eb bc                	jmp    ffffffff8000368e <elf_load+0x2ae>
ffffffff800036d2:	4c 89 ee             	mov    rsi,r13
ffffffff800036d5:	4c 89 e7             	mov    rdi,r12
ffffffff800036d8:	4c 8b b5 58 ff ff ff 	mov    r14,QWORD PTR [rbp-0xa8]
ffffffff800036df:	4c 8b bd 50 ff ff ff 	mov    r15,QWORD PTR [rbp-0xb0]
ffffffff800036e6:	e8 45 20 00 00       	call   ffffffff80005730 <kfree>
ffffffff800036eb:	bb f8 ff ff ff       	mov    ebx,0xfffffff8
ffffffff800036f0:	eb 9c                	jmp    ffffffff8000368e <elf_load+0x2ae>
ffffffff800036f2:	4c 89 ee             	mov    rsi,r13
ffffffff800036f5:	4c 89 e7             	mov    rdi,r12
ffffffff800036f8:	48 89 45 88          	mov    QWORD PTR [rbp-0x78],rax
ffffffff800036fc:	4c 8b b5 58 ff ff ff 	mov    r14,QWORD PTR [rbp-0xa8]
ffffffff80003703:	4c 8b bd 50 ff ff ff 	mov    r15,QWORD PTR [rbp-0xb0]
ffffffff8000370a:	e8 21 20 00 00       	call   ffffffff80005730 <kfree>
ffffffff8000370f:	8b 5d 88             	mov    ebx,DWORD PTR [rbp-0x78]
ffffffff80003712:	e9 77 ff ff ff       	jmp    ffffffff8000368e <elf_load+0x2ae>
ffffffff80003717:	48 c7 c7 78 8b 00 80 	mov    rdi,0xffffffff80008b78
ffffffff8000371e:	31 c0                	xor    eax,eax
ffffffff80003720:	e8 bb 46 00 00       	call   ffffffff80007de0 <kprintf>
ffffffff80003725:	eb 8b                	jmp    ffffffff800036b2 <elf_load+0x2d2>
ffffffff80003727:	48 c7 c7 18 8b 00 80 	mov    rdi,0xffffffff80008b18
ffffffff8000372e:	31 c0                	xor    eax,eax
ffffffff80003730:	e8 ab 46 00 00       	call   ffffffff80007de0 <kprintf>
ffffffff80003735:	e9 78 ff ff ff       	jmp    ffffffff800036b2 <elf_load+0x2d2>
ffffffff8000373a:	48 c7 c7 70 8a 00 80 	mov    rdi,0xffffffff80008a70
ffffffff80003741:	31 c0                	xor    eax,eax
ffffffff80003743:	e8 98 46 00 00       	call   ffffffff80007de0 <kprintf>
ffffffff80003748:	e9 65 ff ff ff       	jmp    ffffffff800036b2 <elf_load+0x2d2>
ffffffff8000374d:	0f 1f 00             	nop    DWORD PTR [rax]

ffffffff80003750 <gdt_init>:
ffffffff80003750:	48 b8 ff ff 00 00 00 	movabs rax,0xaf9a000000ffff
ffffffff80003757:	9a af 00 
ffffffff8000375a:	55                   	push   rbp
ffffffff8000375b:	48 c7 c7 28 b1 00 80 	mov    rdi,0xffffffff8000b128
ffffffff80003762:	48 89 05 df 79 00 00 	mov    QWORD PTR [rip+0x79df],rax        # ffffffff8000b148 <gdt+0x8>
ffffffff80003769:	48 b8 ff ff 00 00 00 	movabs rax,0xcf92000000ffff
ffffffff80003770:	92 cf 00 
ffffffff80003773:	48 89 05 d6 79 00 00 	mov    QWORD PTR [rip+0x79d6],rax        # ffffffff8000b150 <gdt+0x10>
ffffffff8000377a:	48 b8 ff ff 00 00 00 	movabs rax,0xaffa000000ffff
ffffffff80003781:	fa af 00 
ffffffff80003784:	48 89 05 cd 79 00 00 	mov    QWORD PTR [rip+0x79cd],rax        # ffffffff8000b158 <gdt+0x18>
ffffffff8000378b:	48 89 e5             	mov    rbp,rsp
ffffffff8000378e:	48 b8 ff ff 00 00 00 	movabs rax,0xcff2000000ffff
ffffffff80003795:	f2 cf 00 
ffffffff80003798:	48 89 05 c1 79 00 00 	mov    QWORD PTR [rip+0x79c1],rax        # ffffffff8000b160 <gdt+0x20>
ffffffff8000379f:	b8 47 00 00 00       	mov    eax,0x47
ffffffff800037a4:	66 89 05 7d 79 00 00 	mov    WORD PTR [rip+0x797d],ax        # ffffffff8000b128 <gdt_ptr>
ffffffff800037ab:	48 c7 05 8a 79 00 00 	mov    QWORD PTR [rip+0x798a],0x0        # ffffffff8000b140 <gdt>
ffffffff800037b2:	00 00 00 00 
ffffffff800037b6:	48 c7 05 69 79 00 00 	mov    QWORD PTR [rip+0x7969],0xffffffff8000b140        # ffffffff8000b12a <gdt_ptr+0x2>
ffffffff800037bd:	40 b1 00 80 
ffffffff800037c1:	e8 82 29 00 00       	call   ffffffff80006148 <gdt_load>
ffffffff800037c6:	48 8b 35 5d 79 00 00 	mov    rsi,QWORD PTR [rip+0x795d]        # ffffffff8000b12a <gdt_ptr+0x2>
ffffffff800037cd:	31 c0                	xor    eax,eax
ffffffff800037cf:	5d                   	pop    rbp
ffffffff800037d0:	48 c7 c7 e0 8b 00 80 	mov    rdi,0xffffffff80008be0
ffffffff800037d7:	e9 94 dc ff ff       	jmp    ffffffff80001470 <serial_printf>
ffffffff800037dc:	0f 1f 40 00          	nop    DWORD PTR [rax+0x0]

ffffffff800037e0 <ke_panic>:
ffffffff800037e0:	55                   	push   rbp
ffffffff800037e1:	48 89 e5             	mov    rbp,rsp
ffffffff800037e4:	53                   	push   rbx
ffffffff800037e5:	48 89 fb             	mov    rbx,rdi
ffffffff800037e8:	48 83 ec 08          	sub    rsp,0x8
ffffffff800037ec:	fa                   	cli
ffffffff800037ed:	48 c7 c7 52 81 00 80 	mov    rdi,0xffffffff80008152
ffffffff800037f4:	e8 97 db ff ff       	call   ffffffff80001390 <serial_write>
ffffffff800037f9:	31 c0                	xor    eax,eax
ffffffff800037fb:	48 c7 c7 5f 81 00 80 	mov    rdi,0xffffffff8000815f
ffffffff80003802:	e8 d9 45 00 00       	call   ffffffff80007de0 <kprintf>
ffffffff80003807:	31 c0                	xor    eax,eax
ffffffff80003809:	48 c7 c7 38 8c 00 80 	mov    rdi,0xffffffff80008c38
ffffffff80003810:	e8 cb 45 00 00       	call   ffffffff80007de0 <kprintf>
ffffffff80003815:	31 c0                	xor    eax,eax
ffffffff80003817:	48 c7 c7 78 8c 00 80 	mov    rdi,0xffffffff80008c78
ffffffff8000381e:	e8 bd 45 00 00       	call   ffffffff80007de0 <kprintf>
ffffffff80003823:	31 c0                	xor    eax,eax
ffffffff80003825:	48 c7 c7 a8 8c 00 80 	mov    rdi,0xffffffff80008ca8
ffffffff8000382c:	e8 af 45 00 00       	call   ffffffff80007de0 <kprintf>
ffffffff80003831:	48 89 de             	mov    rsi,rbx
ffffffff80003834:	48 c7 c7 f0 8c 00 80 	mov    rdi,0xffffffff80008cf0
ffffffff8000383b:	31 c0                	xor    eax,eax
ffffffff8000383d:	e8 9e 45 00 00       	call   ffffffff80007de0 <kprintf>
ffffffff80003842:	48 89 ef             	mov    rdi,rbp
ffffffff80003845:	e8 66 19 00 00       	call   ffffffff800051b0 <stack_trace_print>
ffffffff8000384a:	48 c7 c7 20 8d 00 80 	mov    rdi,0xffffffff80008d20
ffffffff80003851:	31 c0                	xor    eax,eax
ffffffff80003853:	e8 88 45 00 00       	call   ffffffff80007de0 <kprintf>
ffffffff80003858:	f4                   	hlt
ffffffff80003859:	eb fe                	jmp    ffffffff80003859 <ke_panic+0x79>
ffffffff8000385b:	0f 1f 44 00 00       	nop    DWORD PTR [rax+rax*1+0x0]

ffffffff80003860 <paging_test_map_and_init>:
ffffffff80003860:	55                   	push   rbp
ffffffff80003861:	31 c0                	xor    eax,eax
ffffffff80003863:	48 89 e5             	mov    rbp,rsp
ffffffff80003866:	41 55                	push   r13
ffffffff80003868:	49 89 d5             	mov    r13,rdx
ffffffff8000386b:	41 54                	push   r12
ffffffff8000386d:	49 89 f4             	mov    r12,rsi
ffffffff80003870:	53                   	push   rbx
ffffffff80003871:	48 89 fb             	mov    rbx,rdi
ffffffff80003874:	48 c7 c7 70 8d 00 80 	mov    rdi,0xffffffff80008d70
ffffffff8000387b:	48 83 ec 18          	sub    rsp,0x18
ffffffff8000387f:	e8 5c 45 00 00       	call   ffffffff80007de0 <kprintf>
ffffffff80003884:	48 89 df             	mov    rdi,rbx
ffffffff80003887:	31 db                	xor    ebx,ebx
ffffffff80003889:	e8 42 1e 00 00       	call   ffffffff800056d0 <paging_switch_address_space>
ffffffff8000388e:	48 8b 05 d3 c7 ff ff 	mov    rax,QWORD PTR [rip+0xffffffffffffc7d3]        # ffffffff80000068 <hhdm_request+0x28>
ffffffff80003895:	48 8b 50 08          	mov    rdx,QWORD PTR [rax+0x8]
ffffffff80003899:	49 03 14 dc          	add    rdx,QWORD PTR [r12+rbx*8]
ffffffff8000389d:	74 31                	je     ffffffff800038d0 <paging_test_map_and_init+0x70>
ffffffff8000389f:	4c 89 e9             	mov    rcx,r13
ffffffff800038a2:	48 89 de             	mov    rsi,rbx
ffffffff800038a5:	48 c7 c7 f8 8d 00 80 	mov    rdi,0xffffffff80008df8
ffffffff800038ac:	31 c0                	xor    eax,eax
ffffffff800038ae:	48 09 d9             	or     rcx,rbx
ffffffff800038b1:	48 83 c3 01          	add    rbx,0x1
ffffffff800038b5:	48 89 0a             	mov    QWORD PTR [rdx],rcx
ffffffff800038b8:	e8 23 45 00 00       	call   ffffffff80007de0 <kprintf>
ffffffff800038bd:	48 83 fb 04          	cmp    rbx,0x4
ffffffff800038c1:	75 cb                	jne    ffffffff8000388e <paging_test_map_and_init+0x2e>
ffffffff800038c3:	48 83 c4 18          	add    rsp,0x18
ffffffff800038c7:	5b                   	pop    rbx
ffffffff800038c8:	41 5c                	pop    r12
ffffffff800038ca:	41 5d                	pop    r13
ffffffff800038cc:	5d                   	pop    rbp
ffffffff800038cd:	c3                   	ret
ffffffff800038ce:	66 90                	xchg   ax,ax
ffffffff800038d0:	48 c7 c7 d0 8d 00 80 	mov    rdi,0xffffffff80008dd0
ffffffff800038d7:	48 89 55 d8          	mov    QWORD PTR [rbp-0x28],rdx
ffffffff800038db:	e8 00 ff ff ff       	call   ffffffff800037e0 <ke_panic>
ffffffff800038e0:	48 8b 55 d8          	mov    rdx,QWORD PTR [rbp-0x28]
ffffffff800038e4:	eb b9                	jmp    ffffffff8000389f <paging_test_map_and_init+0x3f>
ffffffff800038e6:	66 2e 0f 1f 84 00 00 	cs nop WORD PTR [rax+rax*1+0x0]
ffffffff800038ed:	00 00 00 

ffffffff800038f0 <paging_test_verify>:
ffffffff800038f0:	55                   	push   rbp
ffffffff800038f1:	31 c0                	xor    eax,eax
ffffffff800038f3:	48 89 e5             	mov    rbp,rsp
ffffffff800038f6:	41 56                	push   r14
ffffffff800038f8:	41 55                	push   r13
ffffffff800038fa:	49 89 d5             	mov    r13,rdx
ffffffff800038fd:	41 54                	push   r12
ffffffff800038ff:	49 89 f4             	mov    r12,rsi
ffffffff80003902:	53                   	push   rbx
ffffffff80003903:	48 89 fb             	mov    rbx,rdi
ffffffff80003906:	48 c7 c7 58 8e 00 80 	mov    rdi,0xffffffff80008e58
ffffffff8000390d:	48 83 ec 10          	sub    rsp,0x10
ffffffff80003911:	e8 ca 44 00 00       	call   ffffffff80007de0 <kprintf>
ffffffff80003916:	48 89 df             	mov    rdi,rbx
ffffffff80003919:	31 db                	xor    ebx,ebx
ffffffff8000391b:	e8 b0 1d 00 00       	call   ffffffff800056d0 <paging_switch_address_space>
ffffffff80003920:	48 8b 05 41 c7 ff ff 	mov    rax,QWORD PTR [rip+0xffffffffffffc741]        # ffffffff80000068 <hhdm_request+0x28>
ffffffff80003927:	48 8b 70 08          	mov    rsi,QWORD PTR [rax+0x8]
ffffffff8000392b:	49 03 34 dc          	add    rsi,QWORD PTR [r12+rbx*8]
ffffffff8000392f:	74 5f                	je     ffffffff80003990 <paging_test_verify+0xa0>
ffffffff80003931:	4c 89 ea             	mov    rdx,r13
ffffffff80003934:	4c 8b 36             	mov    r14,QWORD PTR [rsi]
ffffffff80003937:	48 09 da             	or     rdx,rbx
ffffffff8000393a:	4c 39 f2             	cmp    rdx,r14
ffffffff8000393d:	74 1d                	je     ffffffff8000395c <paging_test_verify+0x6c>
ffffffff8000393f:	48 c7 c7 d0 8e 00 80 	mov    rdi,0xffffffff80008ed0
ffffffff80003946:	4c 89 f1             	mov    rcx,r14
ffffffff80003949:	31 c0                	xor    eax,eax
ffffffff8000394b:	e8 90 44 00 00       	call   ffffffff80007de0 <kprintf>
ffffffff80003950:	48 c7 c7 61 81 00 80 	mov    rdi,0xffffffff80008161
ffffffff80003957:	e8 84 fe ff ff       	call   ffffffff800037e0 <ke_panic>
ffffffff8000395c:	48 89 de             	mov    rsi,rbx
ffffffff8000395f:	4c 89 f2             	mov    rdx,r14
ffffffff80003962:	48 c7 c7 38 8f 00 80 	mov    rdi,0xffffffff80008f38
ffffffff80003969:	31 c0                	xor    eax,eax
ffffffff8000396b:	e8 70 44 00 00       	call   ffffffff80007de0 <kprintf>
ffffffff80003970:	48 83 c3 01          	add    rbx,0x1
ffffffff80003974:	48 83 fb 04          	cmp    rbx,0x4
ffffffff80003978:	75 a6                	jne    ffffffff80003920 <paging_test_verify+0x30>
ffffffff8000397a:	48 83 c4 10          	add    rsp,0x10
ffffffff8000397e:	5b                   	pop    rbx
ffffffff8000397f:	41 5c                	pop    r12
ffffffff80003981:	41 5d                	pop    r13
ffffffff80003983:	41 5e                	pop    r14
ffffffff80003985:	5d                   	pop    rbp
ffffffff80003986:	c3                   	ret
ffffffff80003987:	66 0f 1f 84 00 00 00 	nop    WORD PTR [rax+rax*1+0x0]
ffffffff8000398e:	00 00 
ffffffff80003990:	48 c7 c7 a8 8e 00 80 	mov    rdi,0xffffffff80008ea8
ffffffff80003997:	48 89 75 d8          	mov    QWORD PTR [rbp-0x28],rsi
ffffffff8000399b:	e8 40 fe ff ff       	call   ffffffff800037e0 <ke_panic>
ffffffff800039a0:	48 8b 75 d8          	mov    rsi,QWORD PTR [rbp-0x28]
ffffffff800039a4:	eb 8b                	jmp    ffffffff80003931 <paging_test_verify+0x41>
ffffffff800039a6:	66 2e 0f 1f 84 00 00 	cs nop WORD PTR [rax+rax*1+0x0]
ffffffff800039ad:	00 00 00 

ffffffff800039b0 <paging_test_self_test>:
ffffffff800039b0:	55                   	push   rbp
ffffffff800039b1:	48 c7 c7 88 8f 00 80 	mov    rdi,0xffffffff80008f88
ffffffff800039b8:	31 c0                	xor    eax,eax
ffffffff800039ba:	48 89 e5             	mov    rbp,rsp
ffffffff800039bd:	41 55                	push   r13
ffffffff800039bf:	41 54                	push   r12
ffffffff800039c1:	53                   	push   rbx
ffffffff800039c2:	48 83 ec 08          	sub    rsp,0x8
ffffffff800039c6:	e8 15 44 00 00       	call   ffffffff80007de0 <kprintf>
ffffffff800039cb:	e8 10 1c 00 00       	call   ffffffff800055e0 <paging_create_address_space>
ffffffff800039d0:	48 89 05 b9 77 00 00 	mov    QWORD PTR [rip+0x77b9],rax        # ffffffff8000b190 <SEC1>
ffffffff800039d7:	e8 04 1c 00 00       	call   ffffffff800055e0 <paging_create_address_space>
ffffffff800039dc:	48 8b 35 ad 77 00 00 	mov    rsi,QWORD PTR [rip+0x77ad]        # ffffffff8000b190 <SEC1>
ffffffff800039e3:	48 89 05 9e 77 00 00 	mov    QWORD PTR [rip+0x779e],rax        # ffffffff8000b188 <SEC2>
ffffffff800039ea:	48 85 f6             	test   rsi,rsi
ffffffff800039ed:	0f 84 82 02 00 00    	je     ffffffff80003c75 <paging_test_self_test+0x2c5>
ffffffff800039f3:	48 89 c2             	mov    rdx,rax
ffffffff800039f6:	48 85 c0             	test   rax,rax
ffffffff800039f9:	0f 84 76 02 00 00    	je     ffffffff80003c75 <paging_test_self_test+0x2c5>
ffffffff800039ff:	48 c7 c7 f8 8f 00 80 	mov    rdi,0xffffffff80008ff8
ffffffff80003a06:	31 c0                	xor    eax,eax
ffffffff80003a08:	31 db                	xor    ebx,ebx
ffffffff80003a0a:	e8 d1 43 00 00       	call   ffffffff80007de0 <kprintf>
ffffffff80003a0f:	48 c7 c7 50 90 00 80 	mov    rdi,0xffffffff80009050
ffffffff80003a16:	31 c0                	xor    eax,eax
ffffffff80003a18:	e8 c3 43 00 00       	call   ffffffff80007de0 <kprintf>
ffffffff80003a1d:	bf 01 00 00 00       	mov    edi,0x1
ffffffff80003a22:	e8 99 1e 00 00       	call   ffffffff800058c0 <pmm_alloc_pages>
ffffffff80003a27:	bf 01 00 00 00       	mov    edi,0x1
ffffffff80003a2c:	48 89 04 dd c0 b1 00 	mov    QWORD PTR [rbx*8-0x7fff4e40],rax
ffffffff80003a33:	80 
ffffffff80003a34:	e8 87 1e 00 00       	call   ffffffff800058c0 <pmm_alloc_pages>
ffffffff80003a39:	48 8b 15 28 c6 ff ff 	mov    rdx,QWORD PTR [rip+0xffffffffffffc628]        # ffffffff80000068 <hhdm_request+0x28>
ffffffff80003a40:	48 8b 0d 21 c6 ff ff 	mov    rcx,QWORD PTR [rip+0xffffffffffffc621]        # ffffffff80000068 <hhdm_request+0x28>
ffffffff80003a47:	48 89 04 dd a0 b1 00 	mov    QWORD PTR [rbx*8-0x7fff4e60],rax
ffffffff80003a4e:	80 
ffffffff80003a4f:	48 03 41 08          	add    rax,QWORD PTR [rcx+0x8]
ffffffff80003a53:	48 8b 52 08          	mov    rdx,QWORD PTR [rdx+0x8]
ffffffff80003a57:	48 03 14 dd c0 b1 00 	add    rdx,QWORD PTR [rbx*8-0x7fff4e40]
ffffffff80003a5e:	80 
ffffffff80003a5f:	49 89 c4             	mov    r12,rax
ffffffff80003a62:	49 89 d5             	mov    r13,rdx
ffffffff80003a65:	0f 84 8d 02 00 00    	je     ffffffff80003cf8 <paging_test_self_test+0x348>
ffffffff80003a6b:	48 85 c0             	test   rax,rax
ffffffff80003a6e:	0f 84 84 02 00 00    	je     ffffffff80003cf8 <paging_test_self_test+0x348>
ffffffff80003a74:	ba 00 10 00 00       	mov    edx,0x1000
ffffffff80003a79:	31 f6                	xor    esi,esi
ffffffff80003a7b:	4c 89 ef             	mov    rdi,r13
ffffffff80003a7e:	e8 6d 37 00 00       	call   ffffffff800071f0 <memset>
ffffffff80003a83:	ba 00 10 00 00       	mov    edx,0x1000
ffffffff80003a88:	31 f6                	xor    esi,esi
ffffffff80003a8a:	4c 89 e7             	mov    rdi,r12
ffffffff80003a8d:	e8 5e 37 00 00       	call   ffffffff800071f0 <memset>
ffffffff80003a92:	48 8b 0c dd a0 b1 00 	mov    rcx,QWORD PTR [rbx*8-0x7fff4e60]
ffffffff80003a99:	80 
ffffffff80003a9a:	48 89 de             	mov    rsi,rbx
ffffffff80003a9d:	31 c0                	xor    eax,eax
ffffffff80003a9f:	48 8b 14 dd c0 b1 00 	mov    rdx,QWORD PTR [rbx*8-0x7fff4e40]
ffffffff80003aa6:	80 
ffffffff80003aa7:	48 c7 c7 f8 90 00 80 	mov    rdi,0xffffffff800090f8
ffffffff80003aae:	48 83 c3 01          	add    rbx,0x1
ffffffff80003ab2:	e8 29 43 00 00       	call   ffffffff80007de0 <kprintf>
ffffffff80003ab7:	48 83 fb 04          	cmp    rbx,0x4
ffffffff80003abb:	0f 85 5c ff ff ff    	jne    ffffffff80003a1d <paging_test_self_test+0x6d>
ffffffff80003ac1:	48 8b 3d c8 76 00 00 	mov    rdi,QWORD PTR [rip+0x76c8]        # ffffffff8000b190 <SEC1>
ffffffff80003ac8:	48 c7 c6 c0 b1 00 80 	mov    rsi,0xffffffff8000b1c0
ffffffff80003acf:	48 ba 00 00 00 00 00 	movabs rdx,0xa1a1000000000000
ffffffff80003ad6:	00 a1 a1 
ffffffff80003ad9:	e8 82 fd ff ff       	call   ffffffff80003860 <paging_test_map_and_init>
ffffffff80003ade:	48 8b 3d a3 76 00 00 	mov    rdi,QWORD PTR [rip+0x76a3]        # ffffffff8000b188 <SEC2>
ffffffff80003ae5:	48 ba 00 00 00 00 00 	movabs rdx,0xb2b2000000000000
ffffffff80003aec:	00 b2 b2 
ffffffff80003aef:	48 c7 c6 a0 b1 00 80 	mov    rsi,0xffffffff8000b1a0
ffffffff80003af6:	e8 65 fd ff ff       	call   ffffffff80003860 <paging_test_map_and_init>
ffffffff80003afb:	48 8b 3d 8e 76 00 00 	mov    rdi,QWORD PTR [rip+0x768e]        # ffffffff8000b190 <SEC1>
ffffffff80003b02:	48 ba 00 00 00 00 00 	movabs rdx,0xa1a1000000000000
ffffffff80003b09:	00 a1 a1 
ffffffff80003b0c:	48 c7 c6 c0 b1 00 80 	mov    rsi,0xffffffff8000b1c0
ffffffff80003b13:	e8 d8 fd ff ff       	call   ffffffff800038f0 <paging_test_verify>
ffffffff80003b18:	48 8b 3d 69 76 00 00 	mov    rdi,QWORD PTR [rip+0x7669]        # ffffffff8000b188 <SEC2>
ffffffff80003b1f:	48 ba 00 00 00 00 00 	movabs rdx,0xb2b2000000000000
ffffffff80003b26:	00 b2 b2 
ffffffff80003b29:	48 c7 c6 a0 b1 00 80 	mov    rsi,0xffffffff8000b1a0
ffffffff80003b30:	e8 bb fd ff ff       	call   ffffffff800038f0 <paging_test_verify>
ffffffff80003b35:	48 8b 05 2c c5 ff ff 	mov    rax,QWORD PTR [rip+0xffffffffffffc52c]        # ffffffff80000068 <hhdm_request+0x28>
ffffffff80003b3c:	48 8b 3d 45 76 00 00 	mov    rdi,QWORD PTR [rip+0x7645]        # ffffffff8000b188 <SEC2>
ffffffff80003b43:	48 8b 58 08          	mov    rbx,QWORD PTR [rax+0x8]
ffffffff80003b47:	48 03 1d 3a 79 00 00 	add    rbx,QWORD PTR [rip+0x793a]        # ffffffff8000b488 <kernel_page_map>
ffffffff80003b4e:	4c 8b 23             	mov    r12,QWORD PTR [rbx]
ffffffff80003b51:	e8 7a 1b 00 00       	call   ffffffff800056d0 <paging_switch_address_space>
ffffffff80003b56:	48 8b 03             	mov    rax,QWORD PTR [rbx]
ffffffff80003b59:	4c 39 e0             	cmp    rax,r12
ffffffff80003b5c:	74 0c                	je     ffffffff80003b6a <paging_test_self_test+0x1ba>
ffffffff80003b5e:	48 c7 c7 76 81 00 80 	mov    rdi,0xffffffff80008176
ffffffff80003b65:	e8 76 fc ff ff       	call   ffffffff800037e0 <ke_panic>
ffffffff80003b6a:	48 8b 3d 17 79 00 00 	mov    rdi,QWORD PTR [rip+0x7917]        # ffffffff8000b488 <kernel_page_map>
ffffffff80003b71:	31 db                	xor    ebx,ebx
ffffffff80003b73:	49 bd d5 78 e9 26 31 	movabs r13,0x1cac083126e978d5
ffffffff80003b7a:	08 ac 1c 
ffffffff80003b7d:	49 bc ef a7 c6 4b 37 	movabs r12,0x4189374bc6a7ef
ffffffff80003b84:	89 41 00 
ffffffff80003b87:	e8 44 1b 00 00       	call   ffffffff800056d0 <paging_switch_address_space>
ffffffff80003b8c:	48 c7 c7 58 91 00 80 	mov    rdi,0xffffffff80009158
ffffffff80003b93:	31 c0                	xor    eax,eax
ffffffff80003b95:	e8 46 42 00 00       	call   ffffffff80007de0 <kprintf>
ffffffff80003b9a:	48 c7 c7 a0 91 00 80 	mov    rdi,0xffffffff800091a0
ffffffff80003ba1:	31 c0                	xor    eax,eax
ffffffff80003ba3:	e8 38 42 00 00       	call   ffffffff80007de0 <kprintf>
ffffffff80003ba8:	0f 1f 84 00 00 00 00 	nop    DWORD PTR [rax+rax*1+0x0]
ffffffff80003baf:	00 
ffffffff80003bb0:	f6 c3 01             	test   bl,0x1
ffffffff80003bb3:	0f 84 df 00 00 00    	je     ffffffff80003c98 <paging_test_self_test+0x2e8>
ffffffff80003bb9:	48 8b 3d d0 75 00 00 	mov    rdi,QWORD PTR [rip+0x75d0]        # ffffffff8000b190 <SEC1>
ffffffff80003bc0:	e8 0b 1b 00 00       	call   ffffffff800056d0 <paging_switch_address_space>
ffffffff80003bc5:	48 89 d8             	mov    rax,rbx
ffffffff80003bc8:	49 0f af c5          	imul   rax,r13
ffffffff80003bcc:	48 c1 c8 03          	ror    rax,0x3
ffffffff80003bd0:	49 39 c4             	cmp    r12,rax
ffffffff80003bd3:	0f 83 e7 00 00 00    	jae    ffffffff80003cc0 <paging_test_self_test+0x310>
ffffffff80003bd9:	48 83 c3 01          	add    rbx,0x1
ffffffff80003bdd:	48 81 fb 10 27 00 00 	cmp    rbx,0x2710
ffffffff80003be4:	75 ca                	jne    ffffffff80003bb0 <paging_test_self_test+0x200>
ffffffff80003be6:	31 c0                	xor    eax,eax
ffffffff80003be8:	48 c7 c7 48 92 00 80 	mov    rdi,0xffffffff80009248
ffffffff80003bef:	31 db                	xor    ebx,ebx
ffffffff80003bf1:	e8 ea 41 00 00       	call   ffffffff80007de0 <kprintf>
ffffffff80003bf6:	48 8b 3d 93 75 00 00 	mov    rdi,QWORD PTR [rip+0x7593]        # ffffffff8000b190 <SEC1>
ffffffff80003bfd:	e8 de 1a 00 00       	call   ffffffff800056e0 <paging_destroy_address_space>
ffffffff80003c02:	48 8b 3d 7f 75 00 00 	mov    rdi,QWORD PTR [rip+0x757f]        # ffffffff8000b188 <SEC2>
ffffffff80003c09:	e8 d2 1a 00 00       	call   ffffffff800056e0 <paging_destroy_address_space>
ffffffff80003c0e:	48 8b 3c dd c0 b1 00 	mov    rdi,QWORD PTR [rbx*8-0x7fff4e40]
ffffffff80003c15:	80 
ffffffff80003c16:	be 01 00 00 00       	mov    esi,0x1
ffffffff80003c1b:	e8 e0 1d 00 00       	call   ffffffff80005a00 <pmm_free_pages>
ffffffff80003c20:	48 8b 3c dd a0 b1 00 	mov    rdi,QWORD PTR [rbx*8-0x7fff4e60]
ffffffff80003c27:	80 
ffffffff80003c28:	be 01 00 00 00       	mov    esi,0x1
ffffffff80003c2d:	e8 ce 1d 00 00       	call   ffffffff80005a00 <pmm_free_pages>
ffffffff80003c32:	48 8b 0c dd a0 b1 00 	mov    rcx,QWORD PTR [rbx*8-0x7fff4e60]
ffffffff80003c39:	80 
ffffffff80003c3a:	48 89 de             	mov    rsi,rbx
ffffffff80003c3d:	31 c0                	xor    eax,eax
ffffffff80003c3f:	48 8b 14 dd c0 b1 00 	mov    rdx,QWORD PTR [rbx*8-0x7fff4e40]
ffffffff80003c46:	80 
ffffffff80003c47:	48 c7 c7 a8 92 00 80 	mov    rdi,0xffffffff800092a8
ffffffff80003c4e:	48 83 c3 01          	add    rbx,0x1
ffffffff80003c52:	e8 89 41 00 00       	call   ffffffff80007de0 <kprintf>
ffffffff80003c57:	48 83 fb 04          	cmp    rbx,0x4
ffffffff80003c5b:	75 b1                	jne    ffffffff80003c0e <paging_test_self_test+0x25e>
ffffffff80003c5d:	48 83 c4 08          	add    rsp,0x8
ffffffff80003c61:	48 c7 c7 08 93 00 80 	mov    rdi,0xffffffff80009308
ffffffff80003c68:	31 c0                	xor    eax,eax
ffffffff80003c6a:	5b                   	pop    rbx
ffffffff80003c6b:	41 5c                	pop    r12
ffffffff80003c6d:	41 5d                	pop    r13
ffffffff80003c6f:	5d                   	pop    rbp
ffffffff80003c70:	e9 6b 41 00 00       	jmp    ffffffff80007de0 <kprintf>
ffffffff80003c75:	48 c7 c7 d0 8f 00 80 	mov    rdi,0xffffffff80008fd0
ffffffff80003c7c:	e8 5f fb ff ff       	call   ffffffff800037e0 <ke_panic>
ffffffff80003c81:	48 8b 15 00 75 00 00 	mov    rdx,QWORD PTR [rip+0x7500]        # ffffffff8000b188 <SEC2>
ffffffff80003c88:	48 8b 35 01 75 00 00 	mov    rsi,QWORD PTR [rip+0x7501]        # ffffffff8000b190 <SEC1>
ffffffff80003c8f:	e9 6b fd ff ff       	jmp    ffffffff800039ff <paging_test_self_test+0x4f>
ffffffff80003c94:	0f 1f 40 00          	nop    DWORD PTR [rax+0x0]
ffffffff80003c98:	48 8b 3d e9 74 00 00 	mov    rdi,QWORD PTR [rip+0x74e9]        # ffffffff8000b188 <SEC2>
ffffffff80003c9f:	e8 2c 1a 00 00       	call   ffffffff800056d0 <paging_switch_address_space>
ffffffff80003ca4:	48 89 d8             	mov    rax,rbx
ffffffff80003ca7:	49 0f af c5          	imul   rax,r13
ffffffff80003cab:	48 c1 c8 03          	ror    rax,0x3
ffffffff80003caf:	49 39 c4             	cmp    r12,rax
ffffffff80003cb2:	73 2c                	jae    ffffffff80003ce0 <paging_test_self_test+0x330>
ffffffff80003cb4:	48 83 c3 01          	add    rbx,0x1
ffffffff80003cb8:	e9 f3 fe ff ff       	jmp    ffffffff80003bb0 <paging_test_self_test+0x200>
ffffffff80003cbd:	0f 1f 00             	nop    DWORD PTR [rax]
ffffffff80003cc0:	48 89 de             	mov    rsi,rbx
ffffffff80003cc3:	48 c7 c7 00 92 00 80 	mov    rdi,0xffffffff80009200
ffffffff80003cca:	31 c0                	xor    eax,eax
ffffffff80003ccc:	e8 0f 41 00 00       	call   ffffffff80007de0 <kprintf>
ffffffff80003cd1:	e9 03 ff ff ff       	jmp    ffffffff80003bd9 <paging_test_self_test+0x229>
ffffffff80003cd6:	66 2e 0f 1f 84 00 00 	cs nop WORD PTR [rax+rax*1+0x0]
ffffffff80003cdd:	00 00 00 
ffffffff80003ce0:	48 89 de             	mov    rsi,rbx
ffffffff80003ce3:	48 c7 c7 00 92 00 80 	mov    rdi,0xffffffff80009200
ffffffff80003cea:	31 c0                	xor    eax,eax
ffffffff80003cec:	e8 ef 40 00 00       	call   ffffffff80007de0 <kprintf>
ffffffff80003cf1:	eb c1                	jmp    ffffffff80003cb4 <paging_test_self_test+0x304>
ffffffff80003cf3:	0f 1f 44 00 00       	nop    DWORD PTR [rax+rax*1+0x0]
ffffffff80003cf8:	48 c7 c7 a8 90 00 80 	mov    rdi,0xffffffff800090a8
ffffffff80003cff:	e8 dc fa ff ff       	call   ffffffff800037e0 <ke_panic>
ffffffff80003d04:	e9 6b fd ff ff       	jmp    ffffffff80003a74 <paging_test_self_test+0xc4>
ffffffff80003d09:	66 2e 0f 1f 84 00 00 	cs nop WORD PTR [rax+rax*1+0x0]
ffffffff80003d10:	00 00 00 
ffffffff80003d13:	66 2e 0f 1f 84 00 00 	cs nop WORD PTR [rax+rax*1+0x0]
ffffffff80003d1a:	00 00 00 
ffffffff80003d1d:	0f 1f 00             	nop    DWORD PTR [rax]

ffffffff80003d20 <vfs_test_self_test>:
ffffffff80003d20:	55                   	push   rbp
ffffffff80003d21:	31 c0                	xor    eax,eax
ffffffff80003d23:	48 c7 c7 48 93 00 80 	mov    rdi,0xffffffff80009348
ffffffff80003d2a:	48 89 e5             	mov    rbp,rsp
ffffffff80003d2d:	41 55                	push   r13
ffffffff80003d2f:	41 54                	push   r12
ffffffff80003d31:	53                   	push   rbx
ffffffff80003d32:	48 81 ec 18 01 00 00 	sub    rsp,0x118
ffffffff80003d39:	e8 a2 40 00 00       	call   ffffffff80007de0 <kprintf>
ffffffff80003d3e:	48 c7 c6 8c 81 00 80 	mov    rsi,0xffffffff8000818c
ffffffff80003d45:	48 8d bd 00 ff ff ff 	lea    rdi,[rbp-0x100]
ffffffff80003d4c:	48 c7 85 e8 fe ff ff 	mov    QWORD PTR [rbp-0x118],0x0
ffffffff80003d53:	00 00 00 00 
ffffffff80003d57:	e8 84 f4 ff ff       	call   ffffffff800031e0 <vfs_path_from_abs>
ffffffff80003d5c:	31 d2                	xor    edx,edx
ffffffff80003d5e:	48 8d b5 e8 fe ff ff 	lea    rsi,[rbp-0x118]
ffffffff80003d65:	48 8d bd 00 ff ff ff 	lea    rdi,[rbp-0x100]
ffffffff80003d6c:	e8 5f f3 ff ff       	call   ffffffff800030d0 <vfs_create>
ffffffff80003d71:	85 c0                	test   eax,eax
ffffffff80003d73:	0f 88 37 03 00 00    	js     ffffffff800040b0 <vfs_test_self_test+0x390>
ffffffff80003d79:	48 8b 85 e8 fe ff ff 	mov    rax,QWORD PTR [rbp-0x118]
ffffffff80003d80:	48 c7 c6 8c 81 00 80 	mov    rsi,0xffffffff8000818c
ffffffff80003d87:	48 c7 c7 b8 93 00 80 	mov    rdi,0xffffffff800093b8
ffffffff80003d8e:	4c 8d a5 60 ff ff ff 	lea    r12,[rbp-0xa0]
ffffffff80003d95:	48 c7 00 01 00 00 00 	mov    QWORD PTR [rax],0x1
ffffffff80003d9c:	31 c0                	xor    eax,eax
ffffffff80003d9e:	e8 3d 40 00 00       	call   ffffffff80007de0 <kprintf>
ffffffff80003da3:	48 c7 c7 8c 81 00 80 	mov    rdi,0xffffffff8000818c
ffffffff80003daa:	e8 41 35 00 00       	call   ffffffff800072f0 <strlen>
ffffffff80003daf:	48 c7 c7 96 81 00 80 	mov    rdi,0xffffffff80008196
ffffffff80003db6:	48 89 c3             	mov    rbx,rax
ffffffff80003db9:	e8 32 35 00 00       	call   ffffffff800072f0 <strlen>
ffffffff80003dbe:	48 89 c1             	mov    rcx,rax
ffffffff80003dc1:	48 85 db             	test   rbx,rbx
ffffffff80003dc4:	74 2e                	je     ffffffff80003df4 <vfs_test_self_test+0xd4>
ffffffff80003dc6:	c6 85 60 ff ff ff 2f 	mov    BYTE PTR [rbp-0xa0],0x2f
ffffffff80003dcd:	b8 01 00 00 00       	mov    eax,0x1
ffffffff80003dd2:	4c 8d a5 60 ff ff ff 	lea    r12,[rbp-0xa0]
ffffffff80003dd9:	48 83 fb 01          	cmp    rbx,0x1
ffffffff80003ddd:	74 15                	je     ffffffff80003df4 <vfs_test_self_test+0xd4>
ffffffff80003ddf:	90                   	nop
ffffffff80003de0:	0f b6 90 8c 81 00 80 	movzx  edx,BYTE PTR [rax-0x7fff7e74]
ffffffff80003de7:	41 88 14 04          	mov    BYTE PTR [r12+rax*1],dl
ffffffff80003deb:	48 83 c0 01          	add    rax,0x1
ffffffff80003def:	48 39 c3             	cmp    rbx,rax
ffffffff80003df2:	75 ec                	jne    ffffffff80003de0 <vfs_test_self_test+0xc0>
ffffffff80003df4:	c6 84 1d 60 ff ff ff 	mov    BYTE PTR [rbp+rbx*1-0xa0],0x2f
ffffffff80003dfb:	2f 
ffffffff80003dfc:	48 85 c9             	test   rcx,rcx
ffffffff80003dff:	74 33                	je     ffffffff80003e34 <vfs_test_self_test+0x114>
ffffffff80003e01:	c6 84 1d 61 ff ff ff 	mov    BYTE PTR [rbp+rbx*1-0x9f],0x74
ffffffff80003e08:	74 
ffffffff80003e09:	b8 01 00 00 00       	mov    eax,0x1
ffffffff80003e0e:	49 8d 34 1c          	lea    rsi,[r12+rbx*1]
ffffffff80003e12:	48 83 f9 01          	cmp    rcx,0x1
ffffffff80003e16:	74 1c                	je     ffffffff80003e34 <vfs_test_self_test+0x114>
ffffffff80003e18:	0f 1f 84 00 00 00 00 	nop    DWORD PTR [rax+rax*1+0x0]
ffffffff80003e1f:	00 
ffffffff80003e20:	0f b6 90 96 81 00 80 	movzx  edx,BYTE PTR [rax-0x7fff7e6a]
ffffffff80003e27:	88 54 06 01          	mov    BYTE PTR [rsi+rax*1+0x1],dl
ffffffff80003e2b:	48 83 c0 01          	add    rax,0x1
ffffffff80003e2f:	48 39 c1             	cmp    rcx,rax
ffffffff80003e32:	75 ec                	jne    ffffffff80003e20 <vfs_test_self_test+0x100>
ffffffff80003e34:	48 8d 44 1d e0       	lea    rax,[rbp+rbx*1-0x20]
ffffffff80003e39:	4c 89 e6             	mov    rsi,r12
ffffffff80003e3c:	48 8d bd 20 ff ff ff 	lea    rdi,[rbp-0xe0]
ffffffff80003e43:	48 c7 85 f0 fe ff ff 	mov    QWORD PTR [rbp-0x110],0x0
ffffffff80003e4a:	00 00 00 00 
ffffffff80003e4e:	c6 44 08 81 00       	mov    BYTE PTR [rax+rcx*1-0x7f],0x0
ffffffff80003e53:	e8 88 f3 ff ff       	call   ffffffff800031e0 <vfs_path_from_abs>
ffffffff80003e58:	48 8d b5 f0 fe ff ff 	lea    rsi,[rbp-0x110]
ffffffff80003e5f:	ba 01 00 00 00       	mov    edx,0x1
ffffffff80003e64:	48 8d bd 20 ff ff ff 	lea    rdi,[rbp-0xe0]
ffffffff80003e6b:	e8 60 f2 ff ff       	call   ffffffff800030d0 <vfs_create>
ffffffff80003e70:	85 c0                	test   eax,eax
ffffffff80003e72:	0f 88 20 02 00 00    	js     ffffffff80004098 <vfs_test_self_test+0x378>
ffffffff80003e78:	48 c7 c7 a4 81 00 80 	mov    rdi,0xffffffff800081a4
ffffffff80003e7f:	e8 6c 34 00 00       	call   ffffffff800072f0 <strlen>
ffffffff80003e84:	48 8b bd f0 fe ff ff 	mov    rdi,QWORD PTR [rbp-0x110]
ffffffff80003e8b:	31 c9                	xor    ecx,ecx
ffffffff80003e8d:	48 c7 c6 a4 81 00 80 	mov    rsi,0xffffffff800081a4
ffffffff80003e94:	48 89 c2             	mov    rdx,rax
ffffffff80003e97:	49 89 c5             	mov    r13,rax
ffffffff80003e9a:	e8 e1 f4 ff ff       	call   ffffffff80003380 <inode_write>
ffffffff80003e9f:	49 39 c5             	cmp    r13,rax
ffffffff80003ea2:	74 0c                	je     ffffffff80003eb0 <vfs_test_self_test+0x190>
ffffffff80003ea4:	48 c7 c7 bf 81 00 80 	mov    rdi,0xffffffff800081bf
ffffffff80003eab:	e8 30 f9 ff ff       	call   ffffffff800037e0 <ke_panic>
ffffffff80003eb0:	48 8b bd f0 fe ff ff 	mov    rdi,QWORD PTR [rbp-0x110]
ffffffff80003eb7:	e8 64 f3 ff ff       	call   ffffffff80003220 <vfs_filesize>
ffffffff80003ebc:	49 39 c5             	cmp    r13,rax
ffffffff80003ebf:	74 1a                	je     ffffffff80003edb <vfs_test_self_test+0x1bb>
ffffffff80003ec1:	48 c7 c7 20 94 00 80 	mov    rdi,0xffffffff80009420
ffffffff80003ec8:	48 89 85 d8 fe ff ff 	mov    QWORD PTR [rbp-0x128],rax
ffffffff80003ecf:	e8 0c f9 ff ff       	call   ffffffff800037e0 <ke_panic>
ffffffff80003ed4:	48 8b 85 d8 fe ff ff 	mov    rax,QWORD PTR [rbp-0x128]
ffffffff80003edb:	48 89 c2             	mov    rdx,rax
ffffffff80003ede:	4c 89 e6             	mov    rsi,r12
ffffffff80003ee1:	48 c7 c7 50 94 00 80 	mov    rdi,0xffffffff80009450
ffffffff80003ee8:	31 c0                	xor    eax,eax
ffffffff80003eea:	e8 f1 3e 00 00       	call   ffffffff80007de0 <kprintf>
ffffffff80003eef:	48 c7 c7 d8 81 00 80 	mov    rdi,0xffffffff800081d8
ffffffff80003ef6:	4c 8d 65 a0          	lea    r12,[rbp-0x60]
ffffffff80003efa:	e8 f1 33 00 00       	call   ffffffff800072f0 <strlen>
ffffffff80003eff:	48 89 c1             	mov    rcx,rax
ffffffff80003f02:	48 85 db             	test   rbx,rbx
ffffffff80003f05:	74 2d                	je     ffffffff80003f34 <vfs_test_self_test+0x214>
ffffffff80003f07:	c6 45 a0 2f          	mov    BYTE PTR [rbp-0x60],0x2f
ffffffff80003f0b:	b8 01 00 00 00       	mov    eax,0x1
ffffffff80003f10:	4c 8d 65 a0          	lea    r12,[rbp-0x60]
ffffffff80003f14:	48 83 fb 01          	cmp    rbx,0x1
ffffffff80003f18:	74 1a                	je     ffffffff80003f34 <vfs_test_self_test+0x214>
ffffffff80003f1a:	66 0f 1f 44 00 00    	nop    WORD PTR [rax+rax*1+0x0]
ffffffff80003f20:	0f b6 90 8c 81 00 80 	movzx  edx,BYTE PTR [rax-0x7fff7e74]
ffffffff80003f27:	41 88 14 04          	mov    BYTE PTR [r12+rax*1],dl
ffffffff80003f2b:	48 83 c0 01          	add    rax,0x1
ffffffff80003f2f:	48 39 c3             	cmp    rbx,rax
ffffffff80003f32:	75 ec                	jne    ffffffff80003f20 <vfs_test_self_test+0x200>
ffffffff80003f34:	c6 44 1d a0 2f       	mov    BYTE PTR [rbp+rbx*1-0x60],0x2f
ffffffff80003f39:	48 85 c9             	test   rcx,rcx
ffffffff80003f3c:	74 36                	je     ffffffff80003f74 <vfs_test_self_test+0x254>
ffffffff80003f3e:	c6 44 1d a1 74       	mov    BYTE PTR [rbp+rbx*1-0x5f],0x74
ffffffff80003f43:	b8 01 00 00 00       	mov    eax,0x1
ffffffff80003f48:	49 8d 34 1c          	lea    rsi,[r12+rbx*1]
ffffffff80003f4c:	48 83 f9 01          	cmp    rcx,0x1
ffffffff80003f50:	74 22                	je     ffffffff80003f74 <vfs_test_self_test+0x254>
ffffffff80003f52:	0f 1f 00             	nop    DWORD PTR [rax]
ffffffff80003f55:	66 66 2e 0f 1f 84 00 	data16 cs nop WORD PTR [rax+rax*1+0x0]
ffffffff80003f5c:	00 00 00 00 
ffffffff80003f60:	0f b6 90 d8 81 00 80 	movzx  edx,BYTE PTR [rax-0x7fff7e28]
ffffffff80003f67:	88 54 06 01          	mov    BYTE PTR [rsi+rax*1+0x1],dl
ffffffff80003f6b:	48 83 c0 01          	add    rax,0x1
ffffffff80003f6f:	48 39 c1             	cmp    rcx,rax
ffffffff80003f72:	75 ec                	jne    ffffffff80003f60 <vfs_test_self_test+0x240>
ffffffff80003f74:	48 8d 4c 0d e0       	lea    rcx,[rbp+rcx*1-0x20]
ffffffff80003f79:	4c 89 e6             	mov    rsi,r12
ffffffff80003f7c:	48 8d bd 40 ff ff ff 	lea    rdi,[rbp-0xc0]
ffffffff80003f83:	48 c7 85 f8 fe ff ff 	mov    QWORD PTR [rbp-0x108],0x0
ffffffff80003f8a:	00 00 00 00 
ffffffff80003f8e:	c6 44 19 c1 00       	mov    BYTE PTR [rcx+rbx*1-0x3f],0x0
ffffffff80003f93:	e8 48 f2 ff ff       	call   ffffffff800031e0 <vfs_path_from_abs>
ffffffff80003f98:	48 8d b5 f8 fe ff ff 	lea    rsi,[rbp-0x108]
ffffffff80003f9f:	ba 01 00 00 00       	mov    edx,0x1
ffffffff80003fa4:	48 8d bd 40 ff ff ff 	lea    rdi,[rbp-0xc0]
ffffffff80003fab:	e8 20 f1 ff ff       	call   ffffffff800030d0 <vfs_create>
ffffffff80003fb0:	85 c0                	test   eax,eax
ffffffff80003fb2:	0f 88 c8 00 00 00    	js     ffffffff80004080 <vfs_test_self_test+0x360>
ffffffff80003fb8:	48 c7 c7 e6 81 00 80 	mov    rdi,0xffffffff800081e6
ffffffff80003fbf:	e8 2c 33 00 00       	call   ffffffff800072f0 <strlen>
ffffffff80003fc4:	48 8b bd f8 fe ff ff 	mov    rdi,QWORD PTR [rbp-0x108]
ffffffff80003fcb:	31 c9                	xor    ecx,ecx
ffffffff80003fcd:	48 c7 c6 e6 81 00 80 	mov    rsi,0xffffffff800081e6
ffffffff80003fd4:	48 89 c2             	mov    rdx,rax
ffffffff80003fd7:	48 89 c3             	mov    rbx,rax
ffffffff80003fda:	e8 a1 f3 ff ff       	call   ffffffff80003380 <inode_write>
ffffffff80003fdf:	48 39 c3             	cmp    rbx,rax
ffffffff80003fe2:	74 0c                	je     ffffffff80003ff0 <vfs_test_self_test+0x2d0>
ffffffff80003fe4:	48 c7 c7 e0 94 00 80 	mov    rdi,0xffffffff800094e0
ffffffff80003feb:	e8 f0 f7 ff ff       	call   ffffffff800037e0 <ke_panic>
ffffffff80003ff0:	48 8b bd f8 fe ff ff 	mov    rdi,QWORD PTR [rbp-0x108]
ffffffff80003ff7:	e8 24 f2 ff ff       	call   ffffffff80003220 <vfs_filesize>
ffffffff80003ffc:	49 89 c5             	mov    r13,rax
ffffffff80003fff:	48 39 c3             	cmp    rbx,rax
ffffffff80004002:	74 0c                	je     ffffffff80004010 <vfs_test_self_test+0x2f0>
ffffffff80004004:	48 c7 c7 08 95 00 80 	mov    rdi,0xffffffff80009508
ffffffff8000400b:	e8 d0 f7 ff ff       	call   ffffffff800037e0 <ke_panic>
ffffffff80004010:	31 c0                	xor    eax,eax
ffffffff80004012:	4c 89 ea             	mov    rdx,r13
ffffffff80004015:	4c 89 e6             	mov    rsi,r12
ffffffff80004018:	48 c7 c7 30 95 00 80 	mov    rdi,0xffffffff80009530
ffffffff8000401f:	e8 bc 3d 00 00       	call   ffffffff80007de0 <kprintf>
ffffffff80004024:	48 8b bd f8 fe ff ff 	mov    rdi,QWORD PTR [rbp-0x108]
ffffffff8000402b:	e8 80 ef ff ff       	call   ffffffff80002fb0 <vfs_drop>
ffffffff80004030:	48 8b 85 f8 fe ff ff 	mov    rax,QWORD PTR [rbp-0x108]
ffffffff80004037:	48 83 38 00          	cmp    QWORD PTR [rax],0x0
ffffffff8000403b:	75 33                	jne    ffffffff80004070 <vfs_test_self_test+0x350>
ffffffff8000403d:	48 c7 c7 98 95 00 80 	mov    rdi,0xffffffff80009598
ffffffff80004044:	31 c0                	xor    eax,eax
ffffffff80004046:	e8 95 3d 00 00       	call   ffffffff80007de0 <kprintf>
ffffffff8000404b:	48 c7 c7 e0 95 00 80 	mov    rdi,0xffffffff800095e0
ffffffff80004052:	31 c0                	xor    eax,eax
ffffffff80004054:	e8 87 3d 00 00       	call   ffffffff80007de0 <kprintf>
ffffffff80004059:	48 81 c4 18 01 00 00 	add    rsp,0x118
ffffffff80004060:	5b                   	pop    rbx
ffffffff80004061:	41 5c                	pop    r12
ffffffff80004063:	41 5d                	pop    r13
ffffffff80004065:	5d                   	pop    rbp
ffffffff80004066:	c3                   	ret
ffffffff80004067:	66 0f 1f 84 00 00 00 	nop    WORD PTR [rax+rax*1+0x0]
ffffffff8000406e:	00 00 
ffffffff80004070:	48 c7 c7 fa 81 00 80 	mov    rdi,0xffffffff800081fa
ffffffff80004077:	e8 64 f7 ff ff       	call   ffffffff800037e0 <ke_panic>
ffffffff8000407c:	eb bf                	jmp    ffffffff8000403d <vfs_test_self_test+0x31d>
ffffffff8000407e:	66 90                	xchg   ax,ax
ffffffff80004080:	48 c7 c7 b8 94 00 80 	mov    rdi,0xffffffff800094b8
ffffffff80004087:	e8 54 f7 ff ff       	call   ffffffff800037e0 <ke_panic>
ffffffff8000408c:	e9 27 ff ff ff       	jmp    ffffffff80003fb8 <vfs_test_self_test+0x298>
ffffffff80004091:	0f 1f 80 00 00 00 00 	nop    DWORD PTR [rax+0x0]
ffffffff80004098:	48 c7 c7 00 94 00 80 	mov    rdi,0xffffffff80009400
ffffffff8000409f:	e8 3c f7 ff ff       	call   ffffffff800037e0 <ke_panic>
ffffffff800040a4:	e9 cf fd ff ff       	jmp    ffffffff80003e78 <vfs_test_self_test+0x158>
ffffffff800040a9:	0f 1f 80 00 00 00 00 	nop    DWORD PTR [rax+0x0]
ffffffff800040b0:	48 c7 c7 90 93 00 80 	mov    rdi,0xffffffff80009390
ffffffff800040b7:	e8 24 f7 ff ff       	call   ffffffff800037e0 <ke_panic>
ffffffff800040bc:	e9 b8 fc ff ff       	jmp    ffffffff80003d79 <vfs_test_self_test+0x59>
ffffffff800040c1:	66 2e 0f 1f 84 00 00 	cs nop WORD PTR [rax+rax*1+0x0]
ffffffff800040c8:	00 00 00 
ffffffff800040cb:	0f 1f 44 00 00       	nop    DWORD PTR [rax+rax*1+0x0]

ffffffff800040d0 <pit_test_self_test>:
ffffffff800040d0:	55                   	push   rbp
ffffffff800040d1:	48 c7 c7 20 96 00 80 	mov    rdi,0xffffffff80009620
ffffffff800040d8:	31 c0                	xor    eax,eax
ffffffff800040da:	48 89 e5             	mov    rbp,rsp
ffffffff800040dd:	53                   	push   rbx
ffffffff800040de:	48 83 ec 08          	sub    rsp,0x8
ffffffff800040e2:	e8 f9 3c 00 00       	call   ffffffff80007de0 <kprintf>
ffffffff800040e7:	31 c0                	xor    eax,eax
ffffffff800040e9:	e8 12 d1 ff ff       	call   ffffffff80001200 <pit_read_interval_remaining>
ffffffff800040ee:	bf 64 00 00 00       	mov    edi,0x64
ffffffff800040f3:	89 c3                	mov    ebx,eax
ffffffff800040f5:	e8 26 d1 ff ff       	call   ffffffff80001220 <pit_wait_ticks>
ffffffff800040fa:	31 c0                	xor    eax,eax
ffffffff800040fc:	e8 ff d0 ff ff       	call   ffffffff80001200 <pit_read_interval_remaining>
ffffffff80004101:	89 c6                	mov    esi,eax
ffffffff80004103:	48 39 de             	cmp    rsi,rbx
ffffffff80004106:	72 28                	jb     ffffffff80004130 <pit_test_self_test+0x60>
ffffffff80004108:	48 29 de             	sub    rsi,rbx
ffffffff8000410b:	48 c7 c7 68 96 00 80 	mov    rdi,0xffffffff80009668
ffffffff80004112:	31 c0                	xor    eax,eax
ffffffff80004114:	e8 c7 3c 00 00       	call   ffffffff80007de0 <kprintf>
ffffffff80004119:	48 8b 5d f8          	mov    rbx,QWORD PTR [rbp-0x8]
ffffffff8000411d:	48 c7 c7 f8 96 00 80 	mov    rdi,0xffffffff800096f8
ffffffff80004124:	31 c0                	xor    eax,eax
ffffffff80004126:	c9                   	leave
ffffffff80004127:	e9 b4 3c 00 00       	jmp    ffffffff80007de0 <kprintf>
ffffffff8000412c:	0f 1f 40 00          	nop    DWORD PTR [rax+0x0]
ffffffff80004130:	48 c7 c7 b0 96 00 80 	mov    rdi,0xffffffff800096b0
ffffffff80004137:	31 c0                	xor    eax,eax
ffffffff80004139:	e8 a2 3c 00 00       	call   ffffffff80007de0 <kprintf>
ffffffff8000413e:	eb d9                	jmp    ffffffff80004119 <pit_test_self_test+0x49>

ffffffff80004140 <sched_test_task>:
ffffffff80004140:	55                   	push   rbp
ffffffff80004141:	48 89 e5             	mov    rbp,rsp
ffffffff80004144:	41 54                	push   r12
ffffffff80004146:	41 bc 01 00 00 00    	mov    r12d,0x1
ffffffff8000414c:	53                   	push   rbx
ffffffff8000414d:	f0 44 0f c1 25 8a 70 	lock xadd DWORD PTR [rip+0x708a],r12d        # ffffffff8000b1e0 <next_counter_index>
ffffffff80004154:	00 00 
ffffffff80004156:	41 83 fc 05          	cmp    r12d,0x5
ffffffff8000415a:	7f 44                	jg     ffffffff800041a0 <sched_test_task+0x60>
ffffffff8000415c:	bb 19 00 00 00       	mov    ebx,0x19
ffffffff80004161:	4d 63 e4             	movsxd r12,r12d
ffffffff80004164:	90                   	nop
ffffffff80004165:	66 66 2e 0f 1f 84 00 	data16 cs nop WORD PTR [rax+rax*1+0x0]
ffffffff8000416c:	00 00 00 00 
ffffffff80004170:	42 8b 04 a5 f0 b1 00 	mov    eax,DWORD PTR [r12*4-0x7fff4e10]
ffffffff80004177:	80 
ffffffff80004178:	83 c0 01             	add    eax,0x1
ffffffff8000417b:	42 89 04 a5 f0 b1 00 	mov    DWORD PTR [r12*4-0x7fff4e10],eax
ffffffff80004182:	80 
ffffffff80004183:	e8 98 0c 00 00       	call   ffffffff80004e20 <sched_yield>
ffffffff80004188:	83 eb 01             	sub    ebx,0x1
ffffffff8000418b:	75 e3                	jne    ffffffff80004170 <sched_test_task+0x30>
ffffffff8000418d:	5b                   	pop    rbx
ffffffff8000418e:	41 5c                	pop    r12
ffffffff80004190:	5d                   	pop    rbp
ffffffff80004191:	e9 fa 0a 00 00       	jmp    ffffffff80004c90 <exit>
ffffffff80004196:	66 2e 0f 1f 84 00 00 	cs nop WORD PTR [rax+rax*1+0x0]
ffffffff8000419d:	00 00 00 
ffffffff800041a0:	48 c7 c7 15 82 00 80 	mov    rdi,0xffffffff80008215
ffffffff800041a7:	e8 34 f6 ff ff       	call   ffffffff800037e0 <ke_panic>
ffffffff800041ac:	eb ae                	jmp    ffffffff8000415c <sched_test_task+0x1c>
ffffffff800041ae:	66 90                	xchg   ax,ax

ffffffff800041b0 <scheduler_test_self_test>:
ffffffff800041b0:	55                   	push   rbp
ffffffff800041b1:	48 c7 c7 30 97 00 80 	mov    rdi,0xffffffff80009730
ffffffff800041b8:	31 c0                	xor    eax,eax
ffffffff800041ba:	48 89 e5             	mov    rbp,rsp
ffffffff800041bd:	53                   	push   rbx
ffffffff800041be:	31 db                	xor    ebx,ebx
ffffffff800041c0:	48 83 ec 08          	sub    rsp,0x8
ffffffff800041c4:	e8 17 3c 00 00       	call   ffffffff80007de0 <kprintf>
ffffffff800041c9:	c7 05 1d 70 00 00 00 	mov    DWORD PTR [rip+0x701d],0x0        # ffffffff8000b1f0 <task_counters>
ffffffff800041d0:	00 00 00 
ffffffff800041d3:	c7 05 17 70 00 00 00 	mov    DWORD PTR [rip+0x7017],0x0        # ffffffff8000b1f4 <task_counters+0x4>
ffffffff800041da:	00 00 00 
ffffffff800041dd:	c7 05 11 70 00 00 00 	mov    DWORD PTR [rip+0x7011],0x0        # ffffffff8000b1f8 <task_counters+0x8>
ffffffff800041e4:	00 00 00 
ffffffff800041e7:	c7 05 0b 70 00 00 00 	mov    DWORD PTR [rip+0x700b],0x0        # ffffffff8000b1fc <task_counters+0xc>
ffffffff800041ee:	00 00 00 
ffffffff800041f1:	0f 1f 40 00          	nop    DWORD PTR [rax+0x0]
ffffffff800041f5:	66 66 2e 0f 1f 84 00 	data16 cs nop WORD PTR [rax+rax*1+0x0]
ffffffff800041fc:	00 00 00 00 
ffffffff80004200:	48 8b 3d 81 72 00 00 	mov    rdi,QWORD PTR [rip+0x7281]        # ffffffff8000b488 <kernel_page_map>
ffffffff80004207:	ba 08 00 00 00       	mov    edx,0x8
ffffffff8000420c:	b9 10 00 00 00       	mov    ecx,0x10
ffffffff80004211:	48 c7 c6 40 41 00 80 	mov    rsi,0xffffffff80004140
ffffffff80004218:	e8 93 08 00 00       	call   ffffffff80004ab0 <sched_create_task>
ffffffff8000421d:	48 8b 10             	mov    rdx,QWORD PTR [rax]
ffffffff80004220:	48 83 fa 01          	cmp    rdx,0x1
ffffffff80004224:	76 da                	jbe    ffffffff80004200 <scheduler_test_self_test+0x50>
ffffffff80004226:	48 89 de             	mov    rsi,rbx
ffffffff80004229:	48 c7 c7 78 97 00 80 	mov    rdi,0xffffffff80009778
ffffffff80004230:	31 c0                	xor    eax,eax
ffffffff80004232:	48 83 c3 01          	add    rbx,0x1
ffffffff80004236:	e8 a5 3b 00 00       	call   ffffffff80007de0 <kprintf>
ffffffff8000423b:	48 83 fb 04          	cmp    rbx,0x4
ffffffff8000423f:	75 bf                	jne    ffffffff80004200 <scheduler_test_self_test+0x50>
ffffffff80004241:	eb 0a                	jmp    ffffffff8000424d <scheduler_test_self_test+0x9d>
ffffffff80004243:	0f 1f 44 00 00       	nop    DWORD PTR [rax+rax*1+0x0]
ffffffff80004248:	e8 d3 0b 00 00       	call   ffffffff80004e20 <sched_yield>
ffffffff8000424d:	8b 05 9d 6f 00 00    	mov    eax,DWORD PTR [rip+0x6f9d]        # ffffffff8000b1f0 <task_counters>
ffffffff80004253:	8b 15 9b 6f 00 00    	mov    edx,DWORD PTR [rip+0x6f9b]        # ffffffff8000b1f4 <task_counters+0x4>
ffffffff80004259:	01 d0                	add    eax,edx
ffffffff8000425b:	8b 15 97 6f 00 00    	mov    edx,DWORD PTR [rip+0x6f97]        # ffffffff8000b1f8 <task_counters+0x8>
ffffffff80004261:	01 d0                	add    eax,edx
ffffffff80004263:	8b 15 93 6f 00 00    	mov    edx,DWORD PTR [rip+0x6f93]        # ffffffff8000b1fc <task_counters+0xc>
ffffffff80004269:	01 d0                	add    eax,edx
ffffffff8000426b:	83 f8 63             	cmp    eax,0x63
ffffffff8000426e:	7e d8                	jle    ffffffff80004248 <scheduler_test_self_test+0x98>
ffffffff80004270:	31 db                	xor    ebx,ebx
ffffffff80004272:	8b 04 9d f0 b1 00 80 	mov    eax,DWORD PTR [rbx*4-0x7fff4e10]
ffffffff80004279:	83 f8 19             	cmp    eax,0x19
ffffffff8000427c:	74 24                	je     ffffffff800042a2 <scheduler_test_self_test+0xf2>
ffffffff8000427e:	8b 14 9d f0 b1 00 80 	mov    edx,DWORD PTR [rbx*4-0x7fff4e10]
ffffffff80004285:	48 c7 c7 c8 97 00 80 	mov    rdi,0xffffffff800097c8
ffffffff8000428c:	48 89 de             	mov    rsi,rbx
ffffffff8000428f:	31 c0                	xor    eax,eax
ffffffff80004291:	e8 4a 3b 00 00       	call   ffffffff80007de0 <kprintf>
ffffffff80004296:	48 c7 c7 f0 97 00 80 	mov    rdi,0xffffffff800097f0
ffffffff8000429d:	e8 3e f5 ff ff       	call   ffffffff800037e0 <ke_panic>
ffffffff800042a2:	8b 14 9d f0 b1 00 80 	mov    edx,DWORD PTR [rbx*4-0x7fff4e10]
ffffffff800042a9:	48 89 de             	mov    rsi,rbx
ffffffff800042ac:	48 c7 c7 10 98 00 80 	mov    rdi,0xffffffff80009810
ffffffff800042b3:	31 c0                	xor    eax,eax
ffffffff800042b5:	48 83 c3 01          	add    rbx,0x1
ffffffff800042b9:	e8 22 3b 00 00       	call   ffffffff80007de0 <kprintf>
ffffffff800042be:	48 83 fb 04          	cmp    rbx,0x4
ffffffff800042c2:	75 ae                	jne    ffffffff80004272 <scheduler_test_self_test+0xc2>
ffffffff800042c4:	48 8b 5d f8          	mov    rbx,QWORD PTR [rbp-0x8]
ffffffff800042c8:	48 c7 c7 58 98 00 80 	mov    rdi,0xffffffff80009858
ffffffff800042cf:	31 c0                	xor    eax,eax
ffffffff800042d1:	c9                   	leave
ffffffff800042d2:	e9 09 3b 00 00       	jmp    ffffffff80007de0 <kprintf>
ffffffff800042d7:	66 0f 1f 84 00 00 00 	nop    WORD PTR [rax+rax*1+0x0]
ffffffff800042de:	00 00 

ffffffff800042e0 <pmm_test_self_test>:
ffffffff800042e0:	55                   	push   rbp
ffffffff800042e1:	48 c7 c7 a0 98 00 80 	mov    rdi,0xffffffff800098a0
ffffffff800042e8:	31 c0                	xor    eax,eax
ffffffff800042ea:	48 89 e5             	mov    rbp,rsp
ffffffff800042ed:	53                   	push   rbx
ffffffff800042ee:	31 db                	xor    ebx,ebx
ffffffff800042f0:	48 83 ec 08          	sub    rsp,0x8
ffffffff800042f4:	e8 e7 3a 00 00       	call   ffffffff80007de0 <kprintf>
ffffffff800042f9:	eb 20                	jmp    ffffffff8000431b <pmm_test_self_test+0x3b>
ffffffff800042fb:	0f 1f 44 00 00       	nop    DWORD PTR [rax+rax*1+0x0]
ffffffff80004300:	48 89 de             	mov    rsi,rbx
ffffffff80004303:	48 c7 c7 e8 98 00 80 	mov    rdi,0xffffffff800098e8
ffffffff8000430a:	31 c0                	xor    eax,eax
ffffffff8000430c:	48 83 c3 01          	add    rbx,0x1
ffffffff80004310:	e8 cb 3a 00 00       	call   ffffffff80007de0 <kprintf>
ffffffff80004315:	48 83 fb 08          	cmp    rbx,0x8
ffffffff80004319:	74 35                	je     ffffffff80004350 <pmm_test_self_test+0x70>
ffffffff8000431b:	bf 01 00 00 00       	mov    edi,0x1
ffffffff80004320:	e8 9b 15 00 00       	call   ffffffff800058c0 <pmm_alloc_pages>
ffffffff80004325:	48 89 04 dd 00 b2 00 	mov    QWORD PTR [rbx*8-0x7fff4e00],rax
ffffffff8000432c:	80 
ffffffff8000432d:	48 89 c2             	mov    rdx,rax
ffffffff80004330:	48 85 c0             	test   rax,rax
ffffffff80004333:	75 cb                	jne    ffffffff80004300 <pmm_test_self_test+0x20>
ffffffff80004335:	48 c7 c7 31 82 00 80 	mov    rdi,0xffffffff80008231
ffffffff8000433c:	e8 9f f4 ff ff       	call   ffffffff800037e0 <ke_panic>
ffffffff80004341:	48 8b 14 dd 00 b2 00 	mov    rdx,QWORD PTR [rbx*8-0x7fff4e00]
ffffffff80004348:	80 
ffffffff80004349:	eb b5                	jmp    ffffffff80004300 <pmm_test_self_test+0x20>
ffffffff8000434b:	0f 1f 44 00 00       	nop    DWORD PTR [rax+rax*1+0x0]
ffffffff80004350:	31 db                	xor    ebx,ebx
ffffffff80004352:	0f 1f 00             	nop    DWORD PTR [rax]
ffffffff80004355:	66 66 2e 0f 1f 84 00 	data16 cs nop WORD PTR [rax+rax*1+0x0]
ffffffff8000435c:	00 00 00 00 
ffffffff80004360:	48 8b 3c dd 00 b2 00 	mov    rdi,QWORD PTR [rbx*8-0x7fff4e00]
ffffffff80004367:	80 
ffffffff80004368:	be 01 00 00 00       	mov    esi,0x1
ffffffff8000436d:	e8 8e 16 00 00       	call   ffffffff80005a00 <pmm_free_pages>
ffffffff80004372:	48 8b 14 dd 00 b2 00 	mov    rdx,QWORD PTR [rbx*8-0x7fff4e00]
ffffffff80004379:	80 
ffffffff8000437a:	48 89 de             	mov    rsi,rbx
ffffffff8000437d:	31 c0                	xor    eax,eax
ffffffff8000437f:	48 c7 c7 38 99 00 80 	mov    rdi,0xffffffff80009938
ffffffff80004386:	48 83 c3 01          	add    rbx,0x1
ffffffff8000438a:	e8 51 3a 00 00       	call   ffffffff80007de0 <kprintf>
ffffffff8000438f:	48 83 fb 08          	cmp    rbx,0x8
ffffffff80004393:	75 cb                	jne    ffffffff80004360 <pmm_test_self_test+0x80>
ffffffff80004395:	48 8b 5d f8          	mov    rbx,QWORD PTR [rbp-0x8]
ffffffff80004399:	48 c7 c7 80 99 00 80 	mov    rdi,0xffffffff80009980
ffffffff800043a0:	31 c0                	xor    eax,eax
ffffffff800043a2:	c9                   	leave
ffffffff800043a3:	e9 38 3a 00 00       	jmp    ffffffff80007de0 <kprintf>
ffffffff800043a8:	66 2e 0f 1f 84 00 00 	cs nop WORD PTR [rax+rax*1+0x0]
ffffffff800043af:	00 00 00 
ffffffff800043b2:	66 2e 0f 1f 84 00 00 	cs nop WORD PTR [rax+rax*1+0x0]
ffffffff800043b9:	00 00 00 
ffffffff800043bc:	0f 1f 40 00          	nop    DWORD PTR [rax+0x0]

ffffffff800043c0 <tty_fb_clear>:
ffffffff800043c0:	48 8b 8f 60 08 00 00 	mov    rcx,QWORD PTR [rdi+0x860]
ffffffff800043c7:	4c 8b 51 10          	mov    r10,QWORD PTR [rcx+0x10]
ffffffff800043cb:	4d 85 d2             	test   r10,r10
ffffffff800043ce:	74 48                	je     ffffffff80004418 <tty_fb_clear+0x58>
ffffffff800043d0:	4c 8b 49 08          	mov    r9,QWORD PTR [rcx+0x8]
ffffffff800043d4:	4d 85 c9             	test   r9,r9
ffffffff800043d7:	74 67                	je     ffffffff80004440 <tty_fb_clear+0x80>
ffffffff800043d9:	4c 8b 01             	mov    r8,QWORD PTR [rcx]
ffffffff800043dc:	31 ff                	xor    edi,edi
ffffffff800043de:	66 90                	xchg   ax,ax
ffffffff800043e0:	48 8b 51 18          	mov    rdx,QWORD PTR [rcx+0x18]
ffffffff800043e4:	48 0f af d7          	imul   rdx,rdi
ffffffff800043e8:	49 8d 04 90          	lea    rax,[r8+rdx*4]
ffffffff800043ec:	4c 01 ca             	add    rdx,r9
ffffffff800043ef:	49 8d 34 90          	lea    rsi,[r8+rdx*4]
ffffffff800043f3:	66 90                	xchg   ax,ax
ffffffff800043f5:	66 66 2e 0f 1f 84 00 	data16 cs nop WORD PTR [rax+rax*1+0x0]
ffffffff800043fc:	00 00 00 00 
ffffffff80004400:	8b 51 2c             	mov    edx,DWORD PTR [rcx+0x2c]
ffffffff80004403:	48 83 c0 04          	add    rax,0x4
ffffffff80004407:	89 50 fc             	mov    DWORD PTR [rax-0x4],edx
ffffffff8000440a:	48 39 f0             	cmp    rax,rsi
ffffffff8000440d:	75 f1                	jne    ffffffff80004400 <tty_fb_clear+0x40>
ffffffff8000440f:	48 83 c7 01          	add    rdi,0x1
ffffffff80004413:	4c 39 d7             	cmp    rdi,r10
ffffffff80004416:	75 c8                	jne    ffffffff800043e0 <tty_fb_clear+0x20>
ffffffff80004418:	48 c7 41 30 00 00 00 	mov    QWORD PTR [rcx+0x30],0x0
ffffffff8000441f:	00 
ffffffff80004420:	48 c7 41 38 00 00 00 	mov    QWORD PTR [rcx+0x38],0x0
ffffffff80004427:	00 
ffffffff80004428:	c3                   	ret
ffffffff80004429:	90                   	nop
ffffffff8000442a:	66 66 2e 0f 1f 84 00 	data16 cs nop WORD PTR [rax+rax*1+0x0]
ffffffff80004431:	00 00 00 00 
ffffffff80004435:	66 66 2e 0f 1f 84 00 	data16 cs nop WORD PTR [rax+rax*1+0x0]
ffffffff8000443c:	00 00 00 00 
ffffffff80004440:	49 8d 41 01          	lea    rax,[r9+0x1]
ffffffff80004444:	49 39 c2             	cmp    r10,rax
ffffffff80004447:	74 cf                	je     ffffffff80004418 <tty_fb_clear+0x58>
ffffffff80004449:	49 83 c1 02          	add    r9,0x2
ffffffff8000444d:	4d 39 ca             	cmp    r10,r9
ffffffff80004450:	75 ee                	jne    ffffffff80004440 <tty_fb_clear+0x80>
ffffffff80004452:	eb c4                	jmp    ffffffff80004418 <tty_fb_clear+0x58>
ffffffff80004454:	66 2e 0f 1f 84 00 00 	cs nop WORD PTR [rax+rax*1+0x0]
ffffffff8000445b:	00 00 00 
ffffffff8000445e:	66 90                	xchg   ax,ax

ffffffff80004460 <tty_fb_putchar>:
ffffffff80004460:	48 8b bf 60 08 00 00 	mov    rdi,QWORD PTR [rdi+0x860]
ffffffff80004467:	40 0f be d6          	movsx  edx,sil
ffffffff8000446b:	48 8d 77 40          	lea    rsi,[rdi+0x40]
ffffffff8000446f:	e9 6c d6 ff ff       	jmp    ffffffff80001ae0 <framebuffer_ansi_char>
ffffffff80004474:	66 2e 0f 1f 84 00 00 	cs nop WORD PTR [rax+rax*1+0x0]
ffffffff8000447b:	00 00 00 
ffffffff8000447e:	66 90                	xchg   ax,ax

ffffffff80004480 <tty_process_input>:
ffffffff80004480:	48 8b 87 28 08 00 00 	mov    rax,QWORD PTR [rdi+0x828]
ffffffff80004487:	40 80 fe 08          	cmp    sil,0x8
ffffffff8000448b:	74 33                	je     ffffffff800044c0 <tty_process_input+0x40>
ffffffff8000448d:	48 8d 50 01          	lea    rdx,[rax+0x1]
ffffffff80004491:	25 ff 03 00 00       	and    eax,0x3ff
ffffffff80004496:	48 89 97 28 08 00 00 	mov    QWORD PTR [rdi+0x828],rdx
ffffffff8000449d:	40 88 74 07 28       	mov    BYTE PTR [rdi+rax*1+0x28],sil
ffffffff800044a2:	f6 87 50 08 00 00 02 	test   BYTE PTR [rdi+0x850],0x2
ffffffff800044a9:	74 1e                	je     ffffffff800044c9 <tty_process_input+0x49>
ffffffff800044ab:	48 8b 87 58 08 00 00 	mov    rax,QWORD PTR [rdi+0x858]
ffffffff800044b2:	40 0f be f6          	movsx  esi,sil
ffffffff800044b6:	ff 20                	jmp    QWORD PTR [rax]
ffffffff800044b8:	0f 1f 84 00 00 00 00 	nop    DWORD PTR [rax+rax*1+0x0]
ffffffff800044bf:	00 
ffffffff800044c0:	48 39 87 30 08 00 00 	cmp    QWORD PTR [rdi+0x830],rax
ffffffff800044c7:	75 07                	jne    ffffffff800044d0 <tty_process_input+0x50>
ffffffff800044c9:	c3                   	ret
ffffffff800044ca:	66 0f 1f 44 00 00    	nop    WORD PTR [rax+rax*1+0x0]
ffffffff800044d0:	48 83 e8 01          	sub    rax,0x1
ffffffff800044d4:	48 89 87 28 08 00 00 	mov    QWORD PTR [rdi+0x828],rax
ffffffff800044db:	f6 87 50 08 00 00 02 	test   BYTE PTR [rdi+0x850],0x2
ffffffff800044e2:	74 e5                	je     ffffffff800044c9 <tty_process_input+0x49>
ffffffff800044e4:	55                   	push   rbp
ffffffff800044e5:	be 08 00 00 00       	mov    esi,0x8
ffffffff800044ea:	48 89 e5             	mov    rbp,rsp
ffffffff800044ed:	48 83 ec 10          	sub    rsp,0x10
ffffffff800044f1:	48 8b 87 58 08 00 00 	mov    rax,QWORD PTR [rdi+0x858]
ffffffff800044f8:	48 89 7d f8          	mov    QWORD PTR [rbp-0x8],rdi
ffffffff800044fc:	ff 10                	call   QWORD PTR [rax]
ffffffff800044fe:	48 8b 7d f8          	mov    rdi,QWORD PTR [rbp-0x8]
ffffffff80004502:	be 20 00 00 00       	mov    esi,0x20
ffffffff80004507:	48 8b 87 58 08 00 00 	mov    rax,QWORD PTR [rdi+0x858]
ffffffff8000450e:	ff 10                	call   QWORD PTR [rax]
ffffffff80004510:	48 8b 7d f8          	mov    rdi,QWORD PTR [rbp-0x8]
ffffffff80004514:	be 08 00 00 00       	mov    esi,0x8
ffffffff80004519:	48 8b 87 58 08 00 00 	mov    rax,QWORD PTR [rdi+0x858]
ffffffff80004520:	48 8b 00             	mov    rax,QWORD PTR [rax]
ffffffff80004523:	c9                   	leave
ffffffff80004524:	ff e0                	jmp    rax
ffffffff80004526:	66 2e 0f 1f 84 00 00 	cs nop WORD PTR [rax+rax*1+0x0]
ffffffff8000452d:	00 00 00 

ffffffff80004530 <tty_init_framebuffer>:
ffffffff80004530:	55                   	push   rbp
ffffffff80004531:	48 89 e5             	mov    rbp,rsp
ffffffff80004534:	41 56                	push   r14
ffffffff80004536:	45 89 c6             	mov    r14d,r8d
ffffffff80004539:	41 55                	push   r13
ffffffff8000453b:	49 89 d5             	mov    r13,rdx
ffffffff8000453e:	ba 68 08 00 00       	mov    edx,0x868
ffffffff80004543:	41 54                	push   r12
ffffffff80004545:	49 89 f4             	mov    r12,rsi
ffffffff80004548:	53                   	push   rbx
ffffffff80004549:	48 8b 01             	mov    rax,QWORD PTR [rcx]
ffffffff8000454c:	48 89 fb             	mov    rbx,rdi
ffffffff8000454f:	48 8d 7e 40          	lea    rdi,[rsi+0x40]
ffffffff80004553:	48 89 06             	mov    QWORD PTR [rsi],rax
ffffffff80004556:	48 8b 41 08          	mov    rax,QWORD PTR [rcx+0x8]
ffffffff8000455a:	48 89 46 08          	mov    QWORD PTR [rsi+0x8],rax
ffffffff8000455e:	48 8b 41 10          	mov    rax,QWORD PTR [rcx+0x10]
ffffffff80004562:	48 89 46 10          	mov    QWORD PTR [rsi+0x10],rax
ffffffff80004566:	48 8b 41 18          	mov    rax,QWORD PTR [rcx+0x18]
ffffffff8000456a:	48 89 46 18          	mov    QWORD PTR [rsi+0x18],rax
ffffffff8000456e:	48 8b 41 20          	mov    rax,QWORD PTR [rcx+0x20]
ffffffff80004572:	48 89 46 20          	mov    QWORD PTR [rsi+0x20],rax
ffffffff80004576:	48 8b 41 28          	mov    rax,QWORD PTR [rcx+0x28]
ffffffff8000457a:	48 89 46 28          	mov    QWORD PTR [rsi+0x28],rax
ffffffff8000457e:	48 8b 41 30          	mov    rax,QWORD PTR [rcx+0x30]
ffffffff80004582:	48 89 46 30          	mov    QWORD PTR [rsi+0x30],rax
ffffffff80004586:	48 8b 41 38          	mov    rax,QWORD PTR [rcx+0x38]
ffffffff8000458a:	b9 0d 00 00 00       	mov    ecx,0xd
ffffffff8000458f:	48 89 46 38          	mov    QWORD PTR [rsi+0x38],rax
ffffffff80004593:	31 c0                	xor    eax,eax
ffffffff80004595:	31 f6                	xor    esi,esi
ffffffff80004597:	f3 48 ab             	rep stos QWORD PTR [rdi],rax
ffffffff8000459a:	48 89 df             	mov    rdi,rbx
ffffffff8000459d:	e8 4e 2c 00 00       	call   ffffffff800071f0 <memset>
ffffffff800045a2:	44 89 b3 50 08 00 00 	mov    DWORD PTR [rbx+0x850],r14d
ffffffff800045a9:	48 c7 83 58 08 00 00 	mov    QWORD PTR [rbx+0x858],0xffffffff8000b000
ffffffff800045b0:	00 b0 00 80 
ffffffff800045b4:	4c 89 a3 60 08 00 00 	mov    QWORD PTR [rbx+0x860],r12
ffffffff800045bb:	4c 89 2b             	mov    QWORD PTR [rbx],r13
ffffffff800045be:	48 c7 43 08 00 47 00 	mov    QWORD PTR [rbx+0x8],0xffffffff80004700
ffffffff800045c5:	80 
ffffffff800045c6:	48 c7 43 10 b0 47 00 	mov    QWORD PTR [rbx+0x10],0xffffffff800047b0
ffffffff800045cd:	80 
ffffffff800045ce:	48 c7 43 18 00 48 00 	mov    QWORD PTR [rbx+0x18],0xffffffff80004800
ffffffff800045d5:	80 
ffffffff800045d6:	48 89 5b 20          	mov    QWORD PTR [rbx+0x20],rbx
ffffffff800045da:	5b                   	pop    rbx
ffffffff800045db:	41 5c                	pop    r12
ffffffff800045dd:	41 5d                	pop    r13
ffffffff800045df:	41 5e                	pop    r14
ffffffff800045e1:	5d                   	pop    rbp
ffffffff800045e2:	c3                   	ret
ffffffff800045e3:	66 2e 0f 1f 84 00 00 	cs nop WORD PTR [rax+rax*1+0x0]
ffffffff800045ea:	00 00 00 
ffffffff800045ed:	0f 1f 00             	nop    DWORD PTR [rax]

ffffffff800045f0 <device_register>:
ffffffff800045f0:	48 85 ff             	test   rdi,rdi
ffffffff800045f3:	0f 84 7d 00 00 00    	je     ffffffff80004676 <device_register+0x86>
ffffffff800045f9:	48 8b 37             	mov    rsi,QWORD PTR [rdi]
ffffffff800045fc:	48 85 f6             	test   rsi,rsi
ffffffff800045ff:	74 75                	je     ffffffff80004676 <device_register+0x86>
ffffffff80004601:	8b 05 39 6c 00 00    	mov    eax,DWORD PTR [rip+0x6c39]        # ffffffff8000b240 <device_list_count>
ffffffff80004607:	83 f8 3f             	cmp    eax,0x3f
ffffffff8000460a:	77 64                	ja     ffffffff80004670 <device_register+0x80>
ffffffff8000460c:	55                   	push   rbp
ffffffff8000460d:	31 d2                	xor    edx,edx
ffffffff8000460f:	48 89 e5             	mov    rbp,rsp
ffffffff80004612:	41 54                	push   r12
ffffffff80004614:	49 89 fc             	mov    r12,rdi
ffffffff80004617:	53                   	push   rbx
ffffffff80004618:	85 c0                	test   eax,eax
ffffffff8000461a:	74 3c                	je     ffffffff80004658 <device_register+0x68>
ffffffff8000461c:	31 db                	xor    ebx,ebx
ffffffff8000461e:	eb 16                	jmp    ffffffff80004636 <device_register+0x46>
ffffffff80004620:	8b 15 1a 6c 00 00    	mov    edx,DWORD PTR [rip+0x6c1a]        # ffffffff8000b240 <device_list_count>
ffffffff80004626:	48 83 c3 01          	add    rbx,0x1
ffffffff8000462a:	48 89 d0             	mov    rax,rdx
ffffffff8000462d:	48 39 d3             	cmp    rbx,rdx
ffffffff80004630:	73 26                	jae    ffffffff80004658 <device_register+0x68>
ffffffff80004632:	49 8b 34 24          	mov    rsi,QWORD PTR [r12]
ffffffff80004636:	48 8b 04 dd 60 b2 00 	mov    rax,QWORD PTR [rbx*8-0x7fff4da0]
ffffffff8000463d:	80 
ffffffff8000463e:	48 8b 38             	mov    rdi,QWORD PTR [rax]
ffffffff80004641:	e8 da 2c 00 00       	call   ffffffff80007320 <strcmp>
ffffffff80004646:	85 c0                	test   eax,eax
ffffffff80004648:	75 d6                	jne    ffffffff80004620 <device_register+0x30>
ffffffff8000464a:	5b                   	pop    rbx
ffffffff8000464b:	b8 f7 ff ff ff       	mov    eax,0xfffffff7
ffffffff80004650:	41 5c                	pop    r12
ffffffff80004652:	5d                   	pop    rbp
ffffffff80004653:	c3                   	ret
ffffffff80004654:	0f 1f 40 00          	nop    DWORD PTR [rax+0x0]
ffffffff80004658:	83 c0 01             	add    eax,0x1
ffffffff8000465b:	4c 89 24 d5 60 b2 00 	mov    QWORD PTR [rdx*8-0x7fff4da0],r12
ffffffff80004662:	80 
ffffffff80004663:	5b                   	pop    rbx
ffffffff80004664:	89 05 d6 6b 00 00    	mov    DWORD PTR [rip+0x6bd6],eax        # ffffffff8000b240 <device_list_count>
ffffffff8000466a:	41 5c                	pop    r12
ffffffff8000466c:	31 c0                	xor    eax,eax
ffffffff8000466e:	5d                   	pop    rbp
ffffffff8000466f:	c3                   	ret
ffffffff80004670:	b8 f6 ff ff ff       	mov    eax,0xfffffff6
ffffffff80004675:	c3                   	ret
ffffffff80004676:	b8 f7 ff ff ff       	mov    eax,0xfffffff7
ffffffff8000467b:	c3                   	ret
ffffffff8000467c:	0f 1f 40 00          	nop    DWORD PTR [rax+0x0]

ffffffff80004680 <device_get_by_name>:
ffffffff80004680:	48 85 ff             	test   rdi,rdi
ffffffff80004683:	74 5b                	je     ffffffff800046e0 <device_get_by_name+0x60>
ffffffff80004685:	8b 05 b5 6b 00 00    	mov    eax,DWORD PTR [rip+0x6bb5]        # ffffffff8000b240 <device_list_count>
ffffffff8000468b:	85 c0                	test   eax,eax
ffffffff8000468d:	74 51                	je     ffffffff800046e0 <device_get_by_name+0x60>
ffffffff8000468f:	55                   	push   rbp
ffffffff80004690:	48 89 e5             	mov    rbp,rsp
ffffffff80004693:	41 54                	push   r12
ffffffff80004695:	49 89 fc             	mov    r12,rdi
ffffffff80004698:	53                   	push   rbx
ffffffff80004699:	31 db                	xor    ebx,ebx
ffffffff8000469b:	eb 12                	jmp    ffffffff800046af <device_get_by_name+0x2f>
ffffffff8000469d:	0f 1f 00             	nop    DWORD PTR [rax]
ffffffff800046a0:	8b 05 9a 6b 00 00    	mov    eax,DWORD PTR [rip+0x6b9a]        # ffffffff8000b240 <device_list_count>
ffffffff800046a6:	48 83 c3 01          	add    rbx,0x1
ffffffff800046aa:	48 39 c3             	cmp    rbx,rax
ffffffff800046ad:	73 29                	jae    ffffffff800046d8 <device_get_by_name+0x58>
ffffffff800046af:	48 8b 04 dd 60 b2 00 	mov    rax,QWORD PTR [rbx*8-0x7fff4da0]
ffffffff800046b6:	80 
ffffffff800046b7:	4c 89 e6             	mov    rsi,r12
ffffffff800046ba:	48 8b 38             	mov    rdi,QWORD PTR [rax]
ffffffff800046bd:	e8 5e 2c 00 00       	call   ffffffff80007320 <strcmp>
ffffffff800046c2:	85 c0                	test   eax,eax
ffffffff800046c4:	75 da                	jne    ffffffff800046a0 <device_get_by_name+0x20>
ffffffff800046c6:	48 8b 04 dd 60 b2 00 	mov    rax,QWORD PTR [rbx*8-0x7fff4da0]
ffffffff800046cd:	80 
ffffffff800046ce:	5b                   	pop    rbx
ffffffff800046cf:	41 5c                	pop    r12
ffffffff800046d1:	5d                   	pop    rbp
ffffffff800046d2:	c3                   	ret
ffffffff800046d3:	0f 1f 44 00 00       	nop    DWORD PTR [rax+rax*1+0x0]
ffffffff800046d8:	5b                   	pop    rbx
ffffffff800046d9:	31 c0                	xor    eax,eax
ffffffff800046db:	41 5c                	pop    r12
ffffffff800046dd:	5d                   	pop    rbp
ffffffff800046de:	c3                   	ret
ffffffff800046df:	90                   	nop
ffffffff800046e0:	31 c0                	xor    eax,eax
ffffffff800046e2:	c3                   	ret
ffffffff800046e3:	66 2e 0f 1f 84 00 00 	cs nop WORD PTR [rax+rax*1+0x0]
ffffffff800046ea:	00 00 00 
ffffffff800046ed:	66 2e 0f 1f 84 00 00 	cs nop WORD PTR [rax+rax*1+0x0]
ffffffff800046f4:	00 00 00 
ffffffff800046f7:	66 0f 1f 84 00 00 00 	nop    WORD PTR [rax+rax*1+0x0]
ffffffff800046fe:	00 00 

ffffffff80004700 <tty_read>:
ffffffff80004700:	48 89 f8             	mov    rax,rdi
ffffffff80004703:	48 89 d7             	mov    rdi,rdx
ffffffff80004706:	49 89 f0             	mov    r8,rsi
ffffffff80004709:	48 8b 50 20          	mov    rdx,QWORD PTR [rax+0x20]
ffffffff8000470d:	31 c0                	xor    eax,eax
ffffffff8000470f:	48 8b b2 28 08 00 00 	mov    rsi,QWORD PTR [rdx+0x828]
ffffffff80004716:	48 8b 8a 30 08 00 00 	mov    rcx,QWORD PTR [rdx+0x830]
ffffffff8000471d:	48 39 ce             	cmp    rsi,rcx
ffffffff80004720:	74 50                	je     ffffffff80004772 <tty_read+0x72>
ffffffff80004722:	f6 82 50 08 00 00 04 	test   BYTE PTR [rdx+0x850],0x4
ffffffff80004729:	75 5e                	jne    ffffffff80004789 <tty_read+0x89>
ffffffff8000472b:	31 c0                	xor    eax,eax
ffffffff8000472d:	0f 1f 00             	nop    DWORD PTR [rax]
ffffffff80004730:	48 39 f8             	cmp    rax,rdi
ffffffff80004733:	74 3d                	je     ffffffff80004772 <tty_read+0x72>
ffffffff80004735:	48 8b 8a 30 08 00 00 	mov    rcx,QWORD PTR [rdx+0x830]
ffffffff8000473c:	48 3b 8a 28 08 00 00 	cmp    rcx,QWORD PTR [rdx+0x828]
ffffffff80004743:	74 2d                	je     ffffffff80004772 <tty_read+0x72>
ffffffff80004745:	48 8d 71 01          	lea    rsi,[rcx+0x1]
ffffffff80004749:	81 e1 ff 03 00 00    	and    ecx,0x3ff
ffffffff8000474f:	48 83 c0 01          	add    rax,0x1
ffffffff80004753:	48 89 b2 30 08 00 00 	mov    QWORD PTR [rdx+0x830],rsi
ffffffff8000475a:	0f b6 4c 0a 28       	movzx  ecx,BYTE PTR [rdx+rcx*1+0x28]
ffffffff8000475f:	41 88 4c 00 ff       	mov    BYTE PTR [r8+rax*1-0x1],cl
ffffffff80004764:	f6 82 50 08 00 00 04 	test   BYTE PTR [rdx+0x850],0x4
ffffffff8000476b:	74 c3                	je     ffffffff80004730 <tty_read+0x30>
ffffffff8000476d:	80 f9 0a             	cmp    cl,0xa
ffffffff80004770:	75 be                	jne    ffffffff80004730 <tty_read+0x30>
ffffffff80004772:	c3                   	ret
ffffffff80004773:	66 90                	xchg   ax,ax
ffffffff80004775:	66 66 2e 0f 1f 84 00 	data16 cs nop WORD PTR [rax+rax*1+0x0]
ffffffff8000477c:	00 00 00 00 
ffffffff80004780:	48 83 c1 01          	add    rcx,0x1
ffffffff80004784:	48 39 ce             	cmp    rsi,rcx
ffffffff80004787:	74 17                	je     ffffffff800047a0 <tty_read+0xa0>
ffffffff80004789:	48 89 c8             	mov    rax,rcx
ffffffff8000478c:	25 ff 03 00 00       	and    eax,0x3ff
ffffffff80004791:	80 7c 02 28 0a       	cmp    BYTE PTR [rdx+rax*1+0x28],0xa
ffffffff80004796:	75 e8                	jne    ffffffff80004780 <tty_read+0x80>
ffffffff80004798:	eb 91                	jmp    ffffffff8000472b <tty_read+0x2b>
ffffffff8000479a:	66 0f 1f 44 00 00    	nop    WORD PTR [rax+rax*1+0x0]
ffffffff800047a0:	31 c0                	xor    eax,eax
ffffffff800047a2:	c3                   	ret
ffffffff800047a3:	66 2e 0f 1f 84 00 00 	cs nop WORD PTR [rax+rax*1+0x0]
ffffffff800047aa:	00 00 00 
ffffffff800047ad:	0f 1f 00             	nop    DWORD PTR [rax]

ffffffff800047b0 <tty_write>:
ffffffff800047b0:	55                   	push   rbp
ffffffff800047b1:	48 89 e5             	mov    rbp,rsp
ffffffff800047b4:	41 56                	push   r14
ffffffff800047b6:	41 55                	push   r13
ffffffff800047b8:	49 89 d5             	mov    r13,rdx
ffffffff800047bb:	41 54                	push   r12
ffffffff800047bd:	53                   	push   rbx
ffffffff800047be:	48 85 d2             	test   rdx,rdx
ffffffff800047c1:	74 26                	je     ffffffff800047e9 <tty_write+0x39>
ffffffff800047c3:	4c 8b 67 20          	mov    r12,QWORD PTR [rdi+0x20]
ffffffff800047c7:	48 89 f3             	mov    rbx,rsi
ffffffff800047ca:	4c 8d 34 16          	lea    r14,[rsi+rdx*1]
ffffffff800047ce:	66 90                	xchg   ax,ax
ffffffff800047d0:	49 8b 84 24 58 08 00 	mov    rax,QWORD PTR [r12+0x858]
ffffffff800047d7:	00 
ffffffff800047d8:	0f be 33             	movsx  esi,BYTE PTR [rbx]
ffffffff800047db:	48 83 c3 01          	add    rbx,0x1
ffffffff800047df:	4c 89 e7             	mov    rdi,r12
ffffffff800047e2:	ff 10                	call   QWORD PTR [rax]
ffffffff800047e4:	4c 39 f3             	cmp    rbx,r14
ffffffff800047e7:	75 e7                	jne    ffffffff800047d0 <tty_write+0x20>
ffffffff800047e9:	5b                   	pop    rbx
ffffffff800047ea:	44 89 e8             	mov    eax,r13d
ffffffff800047ed:	41 5c                	pop    r12
ffffffff800047ef:	41 5d                	pop    r13
ffffffff800047f1:	41 5e                	pop    r14
ffffffff800047f3:	5d                   	pop    rbp
ffffffff800047f4:	c3                   	ret
ffffffff800047f5:	66 2e 0f 1f 84 00 00 	cs nop WORD PTR [rax+rax*1+0x0]
ffffffff800047fc:	00 00 00 
ffffffff800047ff:	90                   	nop

ffffffff80004800 <tty_ioctl>:
ffffffff80004800:	48 8b 47 20          	mov    rax,QWORD PTR [rdi+0x20]
ffffffff80004804:	48 85 f6             	test   rsi,rsi
ffffffff80004807:	74 27                	je     ffffffff80004830 <tty_ioctl+0x30>
ffffffff80004809:	48 83 fe 01          	cmp    rsi,0x1
ffffffff8000480d:	75 11                	jne    ffffffff80004820 <tty_ioctl+0x20>
ffffffff8000480f:	8b 12                	mov    edx,DWORD PTR [rdx]
ffffffff80004811:	89 90 50 08 00 00    	mov    DWORD PTR [rax+0x850],edx
ffffffff80004817:	31 c0                	xor    eax,eax
ffffffff80004819:	c3                   	ret
ffffffff8000481a:	66 0f 1f 44 00 00    	nop    WORD PTR [rax+rax*1+0x0]
ffffffff80004820:	b8 ff ff ff ff       	mov    eax,0xffffffff
ffffffff80004825:	c3                   	ret
ffffffff80004826:	66 2e 0f 1f 84 00 00 	cs nop WORD PTR [rax+rax*1+0x0]
ffffffff8000482d:	00 00 00 
ffffffff80004830:	8b 80 50 08 00 00    	mov    eax,DWORD PTR [rax+0x850]
ffffffff80004836:	89 02                	mov    DWORD PTR [rdx],eax
ffffffff80004838:	31 c0                	xor    eax,eax
ffffffff8000483a:	c3                   	ret
ffffffff8000483b:	0f 1f 44 00 00       	nop    DWORD PTR [rax+rax*1+0x0]

ffffffff80004840 <status_print_error>:
ffffffff80004840:	55                   	push   rbp
ffffffff80004841:	89 f8                	mov    eax,edi
ffffffff80004843:	48 c7 c6 98 89 00 80 	mov    rsi,0xffffffff80008998
ffffffff8000484a:	48 c7 c7 47 82 00 80 	mov    rdi,0xffffffff80008247
ffffffff80004851:	48 89 e5             	mov    rbp,rsp
ffffffff80004854:	53                   	push   rbx
ffffffff80004855:	48 89 c3             	mov    rbx,rax
ffffffff80004858:	48 83 ec 08          	sub    rsp,0x8
ffffffff8000485c:	48 8b 14 c5 00 a1 00 	mov    rdx,QWORD PTR [rax*8-0x7fff5f00]
ffffffff80004863:	80 
ffffffff80004864:	31 c0                	xor    eax,eax
ffffffff80004866:	e8 05 cc ff ff       	call   ffffffff80001470 <serial_printf>
ffffffff8000486b:	89 d8                	mov    eax,ebx
ffffffff8000486d:	48 8b 5d f8          	mov    rbx,QWORD PTR [rbp-0x8]
ffffffff80004871:	c9                   	leave
ffffffff80004872:	f7 d8                	neg    eax
ffffffff80004874:	c3                   	ret
ffffffff80004875:	66 2e 0f 1f 84 00 00 	cs nop WORD PTR [rax+rax*1+0x0]
ffffffff8000487c:	00 00 00 
ffffffff8000487f:	90                   	nop

ffffffff80004880 <unlink_from_list>:
ffffffff80004880:	48 8b 0f             	mov    rcx,QWORD PTR [rdi]
ffffffff80004883:	49 89 f9             	mov    r9,rdi
ffffffff80004886:	48 85 c9             	test   rcx,rcx
ffffffff80004889:	74 5a                	je     ffffffff800048e5 <unlink_from_list+0x65>
ffffffff8000488b:	4c 8b 41 30          	mov    r8,QWORD PTR [rcx+0x30]
ffffffff8000488f:	48 39 f1             	cmp    rcx,rsi
ffffffff80004892:	74 5c                	je     ffffffff800048f0 <unlink_from_list+0x70>
ffffffff80004894:	4c 39 c1             	cmp    rcx,r8
ffffffff80004897:	74 4c                	je     ffffffff800048e5 <unlink_from_list+0x65>
ffffffff80004899:	4c 89 c0             	mov    rax,r8
ffffffff8000489c:	48 89 cf             	mov    rdi,rcx
ffffffff8000489f:	eb 27                	jmp    ffffffff800048c8 <unlink_from_list+0x48>
ffffffff800048a1:	66 0f 1f 84 00 00 00 	nop    WORD PTR [rax+rax*1+0x0]
ffffffff800048a8:	00 00 
ffffffff800048aa:	66 66 2e 0f 1f 84 00 	data16 cs nop WORD PTR [rax+rax*1+0x0]
ffffffff800048b1:	00 00 00 00 
ffffffff800048b5:	66 66 2e 0f 1f 84 00 	data16 cs nop WORD PTR [rax+rax*1+0x0]
ffffffff800048bc:	00 00 00 00 
ffffffff800048c0:	48 89 d7             	mov    rdi,rdx
ffffffff800048c3:	48 39 c1             	cmp    rcx,rax
ffffffff800048c6:	74 18                	je     ffffffff800048e0 <unlink_from_list+0x60>
ffffffff800048c8:	48 89 c2             	mov    rdx,rax
ffffffff800048cb:	48 8b 40 30          	mov    rax,QWORD PTR [rax+0x30]
ffffffff800048cf:	48 39 d6             	cmp    rsi,rdx
ffffffff800048d2:	75 ec                	jne    ffffffff800048c0 <unlink_from_list+0x40>
ffffffff800048d4:	48 89 47 30          	mov    QWORD PTR [rdi+0x30],rax
ffffffff800048d8:	c3                   	ret
ffffffff800048d9:	0f 1f 80 00 00 00 00 	nop    DWORD PTR [rax+0x0]
ffffffff800048e0:	48 39 f1             	cmp    rcx,rsi
ffffffff800048e3:	74 1b                	je     ffffffff80004900 <unlink_from_list+0x80>
ffffffff800048e5:	c3                   	ret
ffffffff800048e6:	66 2e 0f 1f 84 00 00 	cs nop WORD PTR [rax+rax*1+0x0]
ffffffff800048ed:	00 00 00 
ffffffff800048f0:	49 39 c8             	cmp    r8,rcx
ffffffff800048f3:	75 a4                	jne    ffffffff80004899 <unlink_from_list+0x19>
ffffffff800048f5:	48 c7 07 00 00 00 00 	mov    QWORD PTR [rdi],0x0
ffffffff800048fc:	c3                   	ret
ffffffff800048fd:	0f 1f 00             	nop    DWORD PTR [rax]
ffffffff80004900:	4d 89 01             	mov    QWORD PTR [r9],r8
ffffffff80004903:	c3                   	ret
ffffffff80004904:	66 2e 0f 1f 84 00 00 	cs nop WORD PTR [rax+rax*1+0x0]
ffffffff8000490b:	00 00 00 
ffffffff8000490e:	66 90                	xchg   ax,ax

ffffffff80004910 <sched_mark_task_dead>:
ffffffff80004910:	48 8b 05 69 6b 00 00 	mov    rax,QWORD PTR [rip+0x6b69]        # ffffffff8000b480 <current_task>
ffffffff80004917:	48 83 3d 49 6b 00 00 	cmp    QWORD PTR [rip+0x6b49],0x0        # ffffffff8000b468 <dead_task_head>
ffffffff8000491e:	00 
ffffffff8000491f:	c7 40 08 04 00 00 00 	mov    DWORD PTR [rax+0x8],0x4
ffffffff80004926:	48 c7 40 38 00 00 00 	mov    QWORD PTR [rax+0x38],0x0
ffffffff8000492d:	00 
ffffffff8000492e:	74 18                	je     ffffffff80004948 <sched_mark_task_dead+0x38>
ffffffff80004930:	48 8b 15 29 6b 00 00 	mov    rdx,QWORD PTR [rip+0x6b29]        # ffffffff8000b460 <dead_task_tail>
ffffffff80004937:	48 89 05 22 6b 00 00 	mov    QWORD PTR [rip+0x6b22],rax        # ffffffff8000b460 <dead_task_tail>
ffffffff8000493e:	48 89 42 38          	mov    QWORD PTR [rdx+0x38],rax
ffffffff80004942:	c3                   	ret
ffffffff80004943:	0f 1f 44 00 00       	nop    DWORD PTR [rax+rax*1+0x0]
ffffffff80004948:	48 89 05 19 6b 00 00 	mov    QWORD PTR [rip+0x6b19],rax        # ffffffff8000b468 <dead_task_head>
ffffffff8000494f:	48 89 05 0a 6b 00 00 	mov    QWORD PTR [rip+0x6b0a],rax        # ffffffff8000b460 <dead_task_tail>
ffffffff80004956:	c3                   	ret
ffffffff80004957:	66 0f 1f 84 00 00 00 	nop    WORD PTR [rax+rax*1+0x0]
ffffffff8000495e:	00 00 

ffffffff80004960 <scheduler_reap>:
ffffffff80004960:	55                   	push   rbp
ffffffff80004961:	48 89 e5             	mov    rbp,rsp
ffffffff80004964:	41 54                	push   r12
ffffffff80004966:	53                   	push   rbx
ffffffff80004967:	66 0f 1f 84 00 00 00 	nop    WORD PTR [rax+rax*1+0x0]
ffffffff8000496e:	00 00 
ffffffff80004970:	45 31 e4             	xor    r12d,r12d
ffffffff80004973:	48 8b 1d ee 6a 00 00 	mov    rbx,QWORD PTR [rip+0x6aee]        # ffffffff8000b468 <dead_task_head>
ffffffff8000497a:	41 83 fc 0f          	cmp    r12d,0xf
ffffffff8000497e:	0f 95 c0             	setne  al
ffffffff80004981:	48 85 db             	test   rbx,rbx
ffffffff80004984:	0f 95 c2             	setne  dl
ffffffff80004987:	20 d0                	and    al,dl
ffffffff80004989:	0f 84 c2 00 00 00    	je     ffffffff80004a51 <scheduler_reap+0xf1>
ffffffff8000498f:	48 8b 0d ea 6a 00 00 	mov    rcx,QWORD PTR [rip+0x6aea]        # ffffffff8000b480 <current_task>
ffffffff80004996:	48 8b 53 38          	mov    rdx,QWORD PTR [rbx+0x38]
ffffffff8000499a:	48 85 d2             	test   rdx,rdx
ffffffff8000499d:	0f 84 8d 00 00 00    	je     ffffffff80004a30 <scheduler_reap+0xd0>
ffffffff800049a3:	48 39 d9             	cmp    rcx,rbx
ffffffff800049a6:	0f 84 b4 00 00 00    	je     ffffffff80004a60 <scheduler_reap+0x100>
ffffffff800049ac:	48 89 15 b5 6a 00 00 	mov    QWORD PTR [rip+0x6ab5],rdx        # ffffffff8000b468 <dead_task_head>
ffffffff800049b3:	8b 13                	mov    edx,DWORD PTR [rbx]
ffffffff800049b5:	31 c0                	xor    eax,eax
ffffffff800049b7:	48 c7 c6 20 9a 00 80 	mov    rsi,0xffffffff80009a20
ffffffff800049be:	48 c7 c7 fa 82 00 80 	mov    rdi,0xffffffff800082fa
ffffffff800049c5:	e8 a6 ca ff ff       	call   ffffffff80001470 <serial_printf>
ffffffff800049ca:	48 83 3d a6 6a 00 00 	cmp    QWORD PTR [rip+0x6aa6],0x0        # ffffffff8000b478 <task_queue>
ffffffff800049d1:	00 
ffffffff800049d2:	74 0f                	je     ffffffff800049e3 <scheduler_reap+0x83>
ffffffff800049d4:	48 89 de             	mov    rsi,rbx
ffffffff800049d7:	48 c7 c7 78 b4 00 80 	mov    rdi,0xffffffff8000b478
ffffffff800049de:	e8 9d fe ff ff       	call   ffffffff80004880 <unlink_from_list>
ffffffff800049e3:	48 83 3d 85 6a 00 00 	cmp    QWORD PTR [rip+0x6a85],0x0        # ffffffff8000b470 <task_list_head>
ffffffff800049ea:	00 
ffffffff800049eb:	74 0f                	je     ffffffff800049fc <scheduler_reap+0x9c>
ffffffff800049ed:	48 89 de             	mov    rsi,rbx
ffffffff800049f0:	48 c7 c7 70 b4 00 80 	mov    rdi,0xffffffff8000b470
ffffffff800049f7:	e8 84 fe ff ff       	call   ffffffff80004880 <unlink_from_list>
ffffffff800049fc:	48 8b 7b 18          	mov    rdi,QWORD PTR [rbx+0x18]
ffffffff80004a00:	48 85 ff             	test   rdi,rdi
ffffffff80004a03:	74 0a                	je     ffffffff80004a0f <scheduler_reap+0xaf>
ffffffff80004a05:	be 04 20 00 00       	mov    esi,0x2004
ffffffff80004a0a:	e8 21 0d 00 00       	call   ffffffff80005730 <kfree>
ffffffff80004a0f:	48 8b 7b 28          	mov    rdi,QWORD PTR [rbx+0x28]
ffffffff80004a13:	41 83 c4 01          	add    r12d,0x1
ffffffff80004a17:	e8 c4 0c 00 00       	call   ffffffff800056e0 <paging_destroy_address_space>
ffffffff80004a1c:	be 40 00 00 00       	mov    esi,0x40
ffffffff80004a21:	48 89 df             	mov    rdi,rbx
ffffffff80004a24:	e8 07 0d 00 00       	call   ffffffff80005730 <kfree>
ffffffff80004a29:	e9 45 ff ff ff       	jmp    ffffffff80004973 <scheduler_reap+0x13>
ffffffff80004a2e:	66 90                	xchg   ax,ax
ffffffff80004a30:	48 c7 05 25 6a 00 00 	mov    QWORD PTR [rip+0x6a25],0x0        # ffffffff8000b460 <dead_task_tail>
ffffffff80004a37:	00 00 00 00 
ffffffff80004a3b:	48 39 d9             	cmp    rcx,rbx
ffffffff80004a3e:	0f 85 68 ff ff ff    	jne    ffffffff800049ac <scheduler_reap+0x4c>
ffffffff80004a44:	31 db                	xor    ebx,ebx
ffffffff80004a46:	84 c0                	test   al,al
ffffffff80004a48:	74 07                	je     ffffffff80004a51 <scheduler_reap+0xf1>
ffffffff80004a4a:	48 89 1d 17 6a 00 00 	mov    QWORD PTR [rip+0x6a17],rbx        # ffffffff8000b468 <dead_task_head>
ffffffff80004a51:	e8 ca 03 00 00       	call   ffffffff80004e20 <sched_yield>
ffffffff80004a56:	e9 15 ff ff ff       	jmp    ffffffff80004970 <scheduler_reap+0x10>
ffffffff80004a5b:	0f 1f 44 00 00       	nop    DWORD PTR [rax+rax*1+0x0]
ffffffff80004a60:	48 8b 72 38          	mov    rsi,QWORD PTR [rdx+0x38]
ffffffff80004a64:	48 85 f6             	test   rsi,rsi
ffffffff80004a67:	74 1f                	je     ffffffff80004a88 <scheduler_reap+0x128>
ffffffff80004a69:	48 39 d3             	cmp    rbx,rdx
ffffffff80004a6c:	74 12                	je     ffffffff80004a80 <scheduler_reap+0x120>
ffffffff80004a6e:	48 89 d3             	mov    rbx,rdx
ffffffff80004a71:	48 89 f2             	mov    rdx,rsi
ffffffff80004a74:	e9 33 ff ff ff       	jmp    ffffffff800049ac <scheduler_reap+0x4c>
ffffffff80004a79:	0f 1f 80 00 00 00 00 	nop    DWORD PTR [rax+0x0]
ffffffff80004a80:	48 89 f3             	mov    rbx,rsi
ffffffff80004a83:	e9 0e ff ff ff       	jmp    ffffffff80004996 <scheduler_reap+0x36>
ffffffff80004a88:	31 c0                	xor    eax,eax
ffffffff80004a8a:	48 89 05 cf 69 00 00 	mov    QWORD PTR [rip+0x69cf],rax        # ffffffff8000b460 <dead_task_tail>
ffffffff80004a91:	48 39 da             	cmp    rdx,rbx
ffffffff80004a94:	74 0a                	je     ffffffff80004aa0 <scheduler_reap+0x140>
ffffffff80004a96:	48 89 d3             	mov    rbx,rdx
ffffffff80004a99:	31 d2                	xor    edx,edx
ffffffff80004a9b:	e9 0c ff ff ff       	jmp    ffffffff800049ac <scheduler_reap+0x4c>
ffffffff80004aa0:	31 db                	xor    ebx,ebx
ffffffff80004aa2:	eb a6                	jmp    ffffffff80004a4a <scheduler_reap+0xea>
ffffffff80004aa4:	66 2e 0f 1f 84 00 00 	cs nop WORD PTR [rax+rax*1+0x0]
ffffffff80004aab:	00 00 00 
ffffffff80004aae:	66 90                	xchg   ax,ax

ffffffff80004ab0 <sched_create_task>:
ffffffff80004ab0:	55                   	push   rbp
ffffffff80004ab1:	48 89 e5             	mov    rbp,rsp
ffffffff80004ab4:	41 57                	push   r15
ffffffff80004ab6:	49 89 d7             	mov    r15,rdx
ffffffff80004ab9:	41 56                	push   r14
ffffffff80004abb:	41 55                	push   r13
ffffffff80004abd:	41 54                	push   r12
ffffffff80004abf:	53                   	push   rbx
ffffffff80004ac0:	48 89 fb             	mov    rbx,rdi
ffffffff80004ac3:	bf 40 00 00 00       	mov    edi,0x40
ffffffff80004ac8:	48 83 ec 28          	sub    rsp,0x28
ffffffff80004acc:	48 89 75 c0          	mov    QWORD PTR [rbp-0x40],rsi
ffffffff80004ad0:	48 89 4d b8          	mov    QWORD PTR [rbp-0x48],rcx
ffffffff80004ad4:	e8 27 0c 00 00       	call   ffffffff80005700 <kmalloc>
ffffffff80004ad9:	49 89 c4             	mov    r12,rax
ffffffff80004adc:	48 85 c0             	test   rax,rax
ffffffff80004adf:	0f 84 73 01 00 00    	je     ffffffff80004c58 <sched_create_task+0x1a8>
ffffffff80004ae5:	48 8b 05 2c 65 00 00 	mov    rax,QWORD PTR [rip+0x652c]        # ffffffff8000b018 <next_pid>
ffffffff80004aec:	49 89 5c 24 28       	mov    QWORD PTR [r12+0x28],rbx
ffffffff80004af1:	bf 04 20 00 00       	mov    edi,0x2004
ffffffff80004af6:	41 c7 44 24 08 01 00 	mov    DWORD PTR [r12+0x8],0x1
ffffffff80004afd:	00 00 
ffffffff80004aff:	49 89 04 24          	mov    QWORD PTR [r12],rax
ffffffff80004b03:	48 8d 50 01          	lea    rdx,[rax+0x1]
ffffffff80004b07:	41 c7 44 24 20 05 00 	mov    DWORD PTR [r12+0x20],0x5
ffffffff80004b0e:	00 00 
ffffffff80004b10:	48 89 15 01 65 00 00 	mov    QWORD PTR [rip+0x6501],rdx        # ffffffff8000b018 <next_pid>
ffffffff80004b17:	e8 e4 0b 00 00       	call   ffffffff80005700 <kmalloc>
ffffffff80004b1c:	49 89 44 24 18       	mov    QWORD PTR [r12+0x18],rax
ffffffff80004b21:	49 89 c5             	mov    r13,rax
ffffffff80004b24:	48 85 c0             	test   rax,rax
ffffffff80004b27:	0f 84 43 01 00 00    	je     ffffffff80004c70 <sched_create_task+0x1c0>
ffffffff80004b2d:	48 bb 00 b0 ff ff ff 	movabs rbx,0x7fffffffb000
ffffffff80004b34:	7f 00 00 
ffffffff80004b37:	49 be 00 f0 ff ff ff 	movabs r14,0x7ffffffff000
ffffffff80004b3e:	7f 00 00 
ffffffff80004b41:	bf 01 00 00 00       	mov    edi,0x1
ffffffff80004b46:	e8 75 0d 00 00       	call   ffffffff800058c0 <pmm_alloc_pages>
ffffffff80004b4b:	48 85 c0             	test   rax,rax
ffffffff80004b4e:	0f 84 c4 00 00 00    	je     ffffffff80004c18 <sched_create_task+0x168>
ffffffff80004b54:	49 8b 7c 24 28       	mov    rdi,QWORD PTR [r12+0x28]
ffffffff80004b59:	48 89 da             	mov    rdx,rbx
ffffffff80004b5c:	b9 06 00 00 00       	mov    ecx,0x6
ffffffff80004b61:	48 89 c6             	mov    rsi,rax
ffffffff80004b64:	48 81 c3 00 10 00 00 	add    rbx,0x1000
ffffffff80004b6b:	e8 60 08 00 00       	call   ffffffff800053d0 <paging_map_page>
ffffffff80004b70:	4c 39 f3             	cmp    rbx,r14
ffffffff80004b73:	75 cc                	jne    ffffffff80004b41 <sched_create_task+0x91>
ffffffff80004b75:	4d 8d b5 54 1f 00 00 	lea    r14,[r13+0x1f54]
ffffffff80004b7c:	ba b0 00 00 00       	mov    edx,0xb0
ffffffff80004b81:	31 f6                	xor    esi,esi
ffffffff80004b83:	49 81 c5 04 20 00 00 	add    r13,0x2004
ffffffff80004b8a:	4c 89 f7             	mov    rdi,r14
ffffffff80004b8d:	e8 5e 26 00 00       	call   ffffffff800071f0 <memset>
ffffffff80004b92:	48 8b 45 c0          	mov    rax,QWORD PTR [rbp-0x40]
ffffffff80004b96:	4d 89 7d e0          	mov    QWORD PTR [r13-0x20],r15
ffffffff80004b9a:	49 c7 45 e8 02 02 00 	mov    QWORD PTR [r13-0x18],0x202
ffffffff80004ba1:	00 
ffffffff80004ba2:	48 8b 15 cf 68 00 00 	mov    rdx,QWORD PTR [rip+0x68cf]        # ffffffff8000b478 <task_queue>
ffffffff80004ba9:	49 89 45 d8          	mov    QWORD PTR [r13-0x28],rax
ffffffff80004bad:	48 8b 45 b8          	mov    rax,QWORD PTR [rbp-0x48]
ffffffff80004bb1:	49 89 45 f8          	mov    QWORD PTR [r13-0x8],rax
ffffffff80004bb5:	41 83 e7 03          	and    r15d,0x3
ffffffff80004bb9:	48 89 d0             	mov    rax,rdx
ffffffff80004bbc:	49 0f 44 dd          	cmove  rbx,r13
ffffffff80004bc0:	49 89 9e a0 00 00 00 	mov    QWORD PTR [r14+0xa0],rbx
ffffffff80004bc7:	4d 89 74 24 10       	mov    QWORD PTR [r12+0x10],r14
ffffffff80004bcc:	48 85 d2             	test   rdx,rdx
ffffffff80004bcf:	74 77                	je     ffffffff80004c48 <sched_create_task+0x198>
ffffffff80004bd1:	0f 1f 40 00          	nop    DWORD PTR [rax+0x0]
ffffffff80004bd5:	66 66 2e 0f 1f 84 00 	data16 cs nop WORD PTR [rax+rax*1+0x0]
ffffffff80004bdc:	00 00 00 00 
ffffffff80004be0:	48 89 c1             	mov    rcx,rax
ffffffff80004be3:	48 8b 40 30          	mov    rax,QWORD PTR [rax+0x30]
ffffffff80004be7:	48 39 c2             	cmp    rdx,rax
ffffffff80004bea:	75 f4                	jne    ffffffff80004be0 <sched_create_task+0x130>
ffffffff80004bec:	4c 89 61 30          	mov    QWORD PTR [rcx+0x30],r12
ffffffff80004bf0:	48 83 3d 78 68 00 00 	cmp    QWORD PTR [rip+0x6878],0x0        # ffffffff8000b470 <task_list_head>
ffffffff80004bf7:	00 
ffffffff80004bf8:	49 89 54 24 30       	mov    QWORD PTR [r12+0x30],rdx
ffffffff80004bfd:	74 39                	je     ffffffff80004c38 <sched_create_task+0x188>
ffffffff80004bff:	48 83 c4 28          	add    rsp,0x28
ffffffff80004c03:	4c 89 e0             	mov    rax,r12
ffffffff80004c06:	5b                   	pop    rbx
ffffffff80004c07:	41 5c                	pop    r12
ffffffff80004c09:	41 5d                	pop    r13
ffffffff80004c0b:	41 5e                	pop    r14
ffffffff80004c0d:	41 5f                	pop    r15
ffffffff80004c0f:	5d                   	pop    rbp
ffffffff80004c10:	c3                   	ret
ffffffff80004c11:	0f 1f 80 00 00 00 00 	nop    DWORD PTR [rax+0x0]
ffffffff80004c18:	48 c7 c7 70 9a 00 80 	mov    rdi,0xffffffff80009a70
ffffffff80004c1f:	48 89 45 c8          	mov    QWORD PTR [rbp-0x38],rax
ffffffff80004c23:	e8 b8 eb ff ff       	call   ffffffff800037e0 <ke_panic>
ffffffff80004c28:	48 8b 45 c8          	mov    rax,QWORD PTR [rbp-0x38]
ffffffff80004c2c:	e9 23 ff ff ff       	jmp    ffffffff80004b54 <sched_create_task+0xa4>
ffffffff80004c31:	0f 1f 80 00 00 00 00 	nop    DWORD PTR [rax+0x0]
ffffffff80004c38:	4c 89 25 31 68 00 00 	mov    QWORD PTR [rip+0x6831],r12        # ffffffff8000b470 <task_list_head>
ffffffff80004c3f:	eb be                	jmp    ffffffff80004bff <sched_create_task+0x14f>
ffffffff80004c41:	0f 1f 80 00 00 00 00 	nop    DWORD PTR [rax+0x0]
ffffffff80004c48:	4c 89 25 29 68 00 00 	mov    QWORD PTR [rip+0x6829],r12        # ffffffff8000b478 <task_queue>
ffffffff80004c4f:	4c 89 e2             	mov    rdx,r12
ffffffff80004c52:	eb 9c                	jmp    ffffffff80004bf0 <sched_create_task+0x140>
ffffffff80004c54:	0f 1f 40 00          	nop    DWORD PTR [rax+0x0]
ffffffff80004c58:	48 c7 c7 0d 83 00 80 	mov    rdi,0xffffffff8000830d
ffffffff80004c5f:	e8 7c eb ff ff       	call   ffffffff800037e0 <ke_panic>
ffffffff80004c64:	e9 7c fe ff ff       	jmp    ffffffff80004ae5 <sched_create_task+0x35>
ffffffff80004c69:	0f 1f 80 00 00 00 00 	nop    DWORD PTR [rax+0x0]
ffffffff80004c70:	48 c7 c7 50 9a 00 80 	mov    rdi,0xffffffff80009a50
ffffffff80004c77:	e8 64 eb ff ff       	call   ffffffff800037e0 <ke_panic>
ffffffff80004c7c:	4d 8b 6c 24 18       	mov    r13,QWORD PTR [r12+0x18]
ffffffff80004c81:	e9 a7 fe ff ff       	jmp    ffffffff80004b2d <sched_create_task+0x7d>
ffffffff80004c86:	66 2e 0f 1f 84 00 00 	cs nop WORD PTR [rax+rax*1+0x0]
ffffffff80004c8d:	00 00 00 

ffffffff80004c90 <exit>:
ffffffff80004c90:	55                   	push   rbp
ffffffff80004c91:	31 c0                	xor    eax,eax
ffffffff80004c93:	48 89 e5             	mov    rbp,rsp
ffffffff80004c96:	e8 35 00 00 00       	call   ffffffff80004cd0 <get_current_task>
ffffffff80004c9b:	48 c7 c6 20 9a 00 80 	mov    rsi,0xffffffff80009a20
ffffffff80004ca2:	48 c7 c7 98 9a 00 80 	mov    rdi,0xffffffff80009a98
ffffffff80004ca9:	48 8b 10             	mov    rdx,QWORD PTR [rax]
ffffffff80004cac:	31 c0                	xor    eax,eax
ffffffff80004cae:	e8 bd c7 ff ff       	call   ffffffff80001470 <serial_printf>
ffffffff80004cb3:	31 c0                	xor    eax,eax
ffffffff80004cb5:	e8 56 fc ff ff       	call   ffffffff80004910 <sched_mark_task_dead>
ffffffff80004cba:	e8 61 01 00 00       	call   ffffffff80004e20 <sched_yield>
ffffffff80004cbf:	90                   	nop
ffffffff80004cc0:	f4                   	hlt
ffffffff80004cc1:	eb fd                	jmp    ffffffff80004cc0 <exit+0x30>
ffffffff80004cc3:	66 2e 0f 1f 84 00 00 	cs nop WORD PTR [rax+rax*1+0x0]
ffffffff80004cca:	00 00 00 
ffffffff80004ccd:	0f 1f 00             	nop    DWORD PTR [rax]

ffffffff80004cd0 <get_current_task>:
ffffffff80004cd0:	48 8b 05 a9 67 00 00 	mov    rax,QWORD PTR [rip+0x67a9]        # ffffffff8000b480 <current_task>
ffffffff80004cd7:	c3                   	ret
ffffffff80004cd8:	0f 1f 84 00 00 00 00 	nop    DWORD PTR [rax+rax*1+0x0]
ffffffff80004cdf:	00 

ffffffff80004ce0 <sched_tick>:
ffffffff80004ce0:	48 8b 0d 99 67 00 00 	mov    rcx,QWORD PTR [rip+0x6799]        # ffffffff8000b480 <current_task>
ffffffff80004ce7:	48 85 c9             	test   rcx,rcx
ffffffff80004cea:	74 13                	je     ffffffff80004cff <sched_tick+0x1f>
ffffffff80004cec:	8b 41 20             	mov    eax,DWORD PTR [rcx+0x20]
ffffffff80004cef:	48 89 79 10          	mov    QWORD PTR [rcx+0x10],rdi
ffffffff80004cf3:	85 c0                	test   eax,eax
ffffffff80004cf5:	74 11                	je     ffffffff80004d08 <sched_tick+0x28>
ffffffff80004cf7:	83 e8 01             	sub    eax,0x1
ffffffff80004cfa:	89 41 20             	mov    DWORD PTR [rcx+0x20],eax
ffffffff80004cfd:	74 09                	je     ffffffff80004d08 <sched_tick+0x28>
ffffffff80004cff:	48 89 f8             	mov    rax,rdi
ffffffff80004d02:	c3                   	ret
ffffffff80004d03:	0f 1f 44 00 00       	nop    DWORD PTR [rax+rax*1+0x0]
ffffffff80004d08:	c7 41 20 05 00 00 00 	mov    DWORD PTR [rcx+0x20],0x5
ffffffff80004d0f:	83 79 08 02          	cmp    DWORD PTR [rcx+0x8],0x2
ffffffff80004d13:	74 6b                	je     ffffffff80004d80 <sched_tick+0xa0>
ffffffff80004d15:	48 8b 71 30          	mov    rsi,QWORD PTR [rcx+0x30]
ffffffff80004d19:	48 89 f2             	mov    rdx,rsi
ffffffff80004d1c:	eb 0b                	jmp    ffffffff80004d29 <sched_tick+0x49>
ffffffff80004d1e:	66 90                	xchg   ax,ax
ffffffff80004d20:	48 8b 52 30          	mov    rdx,QWORD PTR [rdx+0x30]
ffffffff80004d24:	48 39 d6             	cmp    rsi,rdx
ffffffff80004d27:	74 47                	je     ffffffff80004d70 <sched_tick+0x90>
ffffffff80004d29:	83 7a 08 01          	cmp    DWORD PTR [rdx+0x8],0x1
ffffffff80004d2d:	75 f1                	jne    ffffffff80004d20 <sched_tick+0x40>
ffffffff80004d2f:	55                   	push   rbp
ffffffff80004d30:	48 8b 42 18          	mov    rax,QWORD PTR [rdx+0x18]
ffffffff80004d34:	c7 42 08 02 00 00 00 	mov    DWORD PTR [rdx+0x8],0x2
ffffffff80004d3b:	48 8b 7a 28          	mov    rdi,QWORD PTR [rdx+0x28]
ffffffff80004d3f:	48 05 04 20 00 00    	add    rax,0x2004
ffffffff80004d45:	48 89 15 34 67 00 00 	mov    QWORD PTR [rip+0x6734],rdx        # ffffffff8000b480 <current_task>
ffffffff80004d4c:	48 89 e5             	mov    rbp,rsp
ffffffff80004d4f:	48 89 05 6e 77 00 00 	mov    QWORD PTR [rip+0x776e],rax        # ffffffff8000c4c4 <tss+0x4>
ffffffff80004d56:	e8 75 09 00 00       	call   ffffffff800056d0 <paging_switch_address_space>
ffffffff80004d5b:	48 8b 05 1e 67 00 00 	mov    rax,QWORD PTR [rip+0x671e]        # ffffffff8000b480 <current_task>
ffffffff80004d62:	5d                   	pop    rbp
ffffffff80004d63:	48 8b 40 10          	mov    rax,QWORD PTR [rax+0x10]
ffffffff80004d67:	c3                   	ret
ffffffff80004d68:	0f 1f 84 00 00 00 00 	nop    DWORD PTR [rax+rax*1+0x0]
ffffffff80004d6f:	00 
ffffffff80004d70:	c7 41 08 02 00 00 00 	mov    DWORD PTR [rcx+0x8],0x2
ffffffff80004d77:	48 89 f8             	mov    rax,rdi
ffffffff80004d7a:	c3                   	ret
ffffffff80004d7b:	0f 1f 44 00 00       	nop    DWORD PTR [rax+rax*1+0x0]
ffffffff80004d80:	c7 41 08 01 00 00 00 	mov    DWORD PTR [rcx+0x8],0x1
ffffffff80004d87:	eb 8c                	jmp    ffffffff80004d15 <sched_tick+0x35>
ffffffff80004d89:	0f 1f 80 00 00 00 00 	nop    DWORD PTR [rax+0x0]

ffffffff80004d90 <sched_bootstrap>:
ffffffff80004d90:	55                   	push   rbp
ffffffff80004d91:	48 89 e5             	mov    rbp,rsp
ffffffff80004d94:	53                   	push   rbx
ffffffff80004d95:	48 89 fb             	mov    rbx,rdi
ffffffff80004d98:	bf 40 00 00 00       	mov    edi,0x40
ffffffff80004d9d:	48 83 ec 18          	sub    rsp,0x18
ffffffff80004da1:	e8 5a 09 00 00       	call   ffffffff80005700 <kmalloc>
ffffffff80004da6:	48 85 c0             	test   rax,rax
ffffffff80004da9:	74 55                	je     ffffffff80004e00 <sched_bootstrap+0x70>
ffffffff80004dab:	48 8b 15 d6 66 00 00 	mov    rdx,QWORD PTR [rip+0x66d6]        # ffffffff8000b488 <kernel_page_map>
ffffffff80004db2:	48 c7 00 00 00 00 00 	mov    QWORD PTR [rax],0x0
ffffffff80004db9:	48 c7 c7 f0 9a 00 80 	mov    rdi,0xffffffff80009af0
ffffffff80004dc0:	48 89 58 10          	mov    QWORD PTR [rax+0x10],rbx
ffffffff80004dc4:	48 8b 5d f8          	mov    rbx,QWORD PTR [rbp-0x8]
ffffffff80004dc8:	c7 40 08 02 00 00 00 	mov    DWORD PTR [rax+0x8],0x2
ffffffff80004dcf:	c7 40 20 05 00 00 00 	mov    DWORD PTR [rax+0x20],0x5
ffffffff80004dd6:	48 89 40 30          	mov    QWORD PTR [rax+0x30],rax
ffffffff80004dda:	48 89 50 28          	mov    QWORD PTR [rax+0x28],rdx
ffffffff80004dde:	48 89 05 9b 66 00 00 	mov    QWORD PTR [rip+0x669b],rax        # ffffffff8000b480 <current_task>
ffffffff80004de5:	48 89 05 8c 66 00 00 	mov    QWORD PTR [rip+0x668c],rax        # ffffffff8000b478 <task_queue>
ffffffff80004dec:	48 89 05 7d 66 00 00 	mov    QWORD PTR [rip+0x667d],rax        # ffffffff8000b470 <task_list_head>
ffffffff80004df3:	31 c0                	xor    eax,eax
ffffffff80004df5:	c9                   	leave
ffffffff80004df6:	e9 75 c6 ff ff       	jmp    ffffffff80001470 <serial_printf>
ffffffff80004dfb:	0f 1f 44 00 00       	nop    DWORD PTR [rax+rax*1+0x0]
ffffffff80004e00:	48 c7 c7 d0 9a 00 80 	mov    rdi,0xffffffff80009ad0
ffffffff80004e07:	48 89 45 e8          	mov    QWORD PTR [rbp-0x18],rax
ffffffff80004e0b:	e8 d0 e9 ff ff       	call   ffffffff800037e0 <ke_panic>
ffffffff80004e10:	48 8b 45 e8          	mov    rax,QWORD PTR [rbp-0x18]
ffffffff80004e14:	eb 95                	jmp    ffffffff80004dab <sched_bootstrap+0x1b>
ffffffff80004e16:	66 2e 0f 1f 84 00 00 	cs nop WORD PTR [rax+rax*1+0x0]
ffffffff80004e1d:	00 00 00 

ffffffff80004e20 <sched_yield>:
ffffffff80004e20:	fa                   	cli
ffffffff80004e21:	48 8b 05 58 66 00 00 	mov    rax,QWORD PTR [rip+0x6658]        # ffffffff8000b480 <current_task>
ffffffff80004e28:	48 85 c0             	test   rax,rax
ffffffff80004e2b:	74 06                	je     ffffffff80004e33 <sched_yield+0x13>
ffffffff80004e2d:	83 78 08 02          	cmp    DWORD PTR [rax+0x8],0x2
ffffffff80004e31:	74 0d                	je     ffffffff80004e40 <sched_yield+0x20>
ffffffff80004e33:	fb                   	sti
ffffffff80004e34:	cd 20                	int    0x20
ffffffff80004e36:	c3                   	ret
ffffffff80004e37:	66 0f 1f 84 00 00 00 	nop    WORD PTR [rax+rax*1+0x0]
ffffffff80004e3e:	00 00 
ffffffff80004e40:	c7 40 20 00 00 00 00 	mov    DWORD PTR [rax+0x20],0x0
ffffffff80004e47:	c7 40 08 01 00 00 00 	mov    DWORD PTR [rax+0x8],0x1
ffffffff80004e4e:	eb e3                	jmp    ffffffff80004e33 <sched_yield+0x13>

ffffffff80004e50 <ke_exception_handler>:
ffffffff80004e50:	55                   	push   rbp
ffffffff80004e51:	48 89 e5             	mov    rbp,rsp
ffffffff80004e54:	41 57                	push   r15
ffffffff80004e56:	41 56                	push   r14
ffffffff80004e58:	41 55                	push   r13
ffffffff80004e5a:	49 89 fd             	mov    r13,rdi
ffffffff80004e5d:	41 54                	push   r12
ffffffff80004e5f:	53                   	push   rbx
ffffffff80004e60:	48 83 ec 18          	sub    rsp,0x18
ffffffff80004e64:	fa                   	cli
ffffffff80004e65:	48 8b 87 88 00 00 00 	mov    rax,QWORD PTR [rdi+0x88]
ffffffff80004e6c:	48 8b 5f 78          	mov    rbx,QWORD PTR [rdi+0x78]
ffffffff80004e70:	4c 8b a7 80 00 00 00 	mov    r12,QWORD PTR [rdi+0x80]
ffffffff80004e77:	4c 8b b7 90 00 00 00 	mov    r14,QWORD PTR [rdi+0x90]
ffffffff80004e7e:	4c 8b bf 98 00 00 00 	mov    r15,QWORD PTR [rdi+0x98]
ffffffff80004e85:	48 c7 c7 52 81 00 80 	mov    rdi,0xffffffff80008152
ffffffff80004e8c:	48 89 45 c8          	mov    QWORD PTR [rbp-0x38],rax
ffffffff80004e90:	e8 fb c4 ff ff       	call   ffffffff80001390 <serial_write>
ffffffff80004e95:	48 89 df             	mov    rdi,rbx
ffffffff80004e98:	e8 43 c5 ff ff       	call   ffffffff800013e0 <serial_write_hex>
ffffffff80004e9d:	48 c7 c7 5f 81 00 80 	mov    rdi,0xffffffff8000815f
ffffffff80004ea4:	e8 e7 c4 ff ff       	call   ffffffff80001390 <serial_write>
ffffffff80004ea9:	49 8b bd 88 00 00 00 	mov    rdi,QWORD PTR [r13+0x88]
ffffffff80004eb0:	e8 2b c5 ff ff       	call   ffffffff800013e0 <serial_write_hex>
ffffffff80004eb5:	48 c7 c7 5f 81 00 80 	mov    rdi,0xffffffff8000815f
ffffffff80004ebc:	e8 cf c4 ff ff       	call   ffffffff80001390 <serial_write>
ffffffff80004ec1:	48 c7 c7 5f 81 00 80 	mov    rdi,0xffffffff8000815f
ffffffff80004ec8:	31 c0                	xor    eax,eax
ffffffff80004eca:	e8 11 2f 00 00       	call   ffffffff80007de0 <kprintf>
ffffffff80004ecf:	48 c7 c7 38 8c 00 80 	mov    rdi,0xffffffff80008c38
ffffffff80004ed6:	31 c0                	xor    eax,eax
ffffffff80004ed8:	e8 03 2f 00 00       	call   ffffffff80007de0 <kprintf>
ffffffff80004edd:	48 c7 c7 78 8c 00 80 	mov    rdi,0xffffffff80008c78
ffffffff80004ee4:	31 c0                	xor    eax,eax
ffffffff80004ee6:	e8 f5 2e 00 00       	call   ffffffff80007de0 <kprintf>
ffffffff80004eeb:	48 c7 c7 a8 8c 00 80 	mov    rdi,0xffffffff80008ca8
ffffffff80004ef2:	31 c0                	xor    eax,eax
ffffffff80004ef4:	e8 e7 2e 00 00       	call   ffffffff80007de0 <kprintf>
ffffffff80004ef9:	48 c7 c6 25 83 00 80 	mov    rsi,0xffffffff80008325
ffffffff80004f00:	80 fb 1f             	cmp    bl,0x1f
ffffffff80004f03:	77 0b                	ja     ffffffff80004f10 <ke_exception_handler+0xc0>
ffffffff80004f05:	0f b6 c3             	movzx  eax,bl
ffffffff80004f08:	48 8b 34 c5 60 a1 00 	mov    rsi,QWORD PTR [rax*8-0x7fff5ea0]
ffffffff80004f0f:	80 
ffffffff80004f10:	48 c7 c7 38 9b 00 80 	mov    rdi,0xffffffff80009b38
ffffffff80004f17:	31 c0                	xor    eax,eax
ffffffff80004f19:	e8 c2 2e 00 00       	call   ffffffff80007de0 <kprintf>
ffffffff80004f1e:	4c 89 e2             	mov    rdx,r12
ffffffff80004f21:	48 89 de             	mov    rsi,rbx
ffffffff80004f24:	31 c0                	xor    eax,eax
ffffffff80004f26:	48 c7 c7 80 9b 00 80 	mov    rdi,0xffffffff80009b80
ffffffff80004f2d:	e8 ae 2e 00 00       	call   ffffffff80007de0 <kprintf>
ffffffff80004f32:	48 c7 c7 b0 9b 00 80 	mov    rdi,0xffffffff80009bb0
ffffffff80004f39:	31 c0                	xor    eax,eax
ffffffff80004f3b:	e8 a0 2e 00 00       	call   ffffffff80007de0 <kprintf>
ffffffff80004f40:	48 8b 75 c8          	mov    rsi,QWORD PTR [rbp-0x38]
ffffffff80004f44:	4c 89 f9             	mov    rcx,r15
ffffffff80004f47:	4c 89 f2             	mov    rdx,r14
ffffffff80004f4a:	48 c7 c7 e8 9b 00 80 	mov    rdi,0xffffffff80009be8
ffffffff80004f51:	31 c0                	xor    eax,eax
ffffffff80004f53:	e8 88 2e 00 00       	call   ffffffff80007de0 <kprintf>
ffffffff80004f58:	48 c7 c7 30 9c 00 80 	mov    rdi,0xffffffff80009c30
ffffffff80004f5f:	31 c0                	xor    eax,eax
ffffffff80004f61:	e8 7a 2e 00 00       	call   ffffffff80007de0 <kprintf>
ffffffff80004f66:	48 83 ec 08          	sub    rsp,0x8
ffffffff80004f6a:	49 8b 55 00          	mov    rdx,QWORD PTR [r13+0x0]
ffffffff80004f6e:	31 c0                	xor    eax,eax
ffffffff80004f70:	68 3d 83 00 80       	push   0xffffffff8000833d
ffffffff80004f75:	49 c7 c0 2d 83 00 80 	mov    r8,0xffffffff8000832d
ffffffff80004f7c:	4d 8b 4d 08          	mov    r9,QWORD PTR [r13+0x8]
ffffffff80004f80:	48 c7 c1 3d 83 00 80 	mov    rcx,0xffffffff8000833d
ffffffff80004f87:	41 ff 75 18          	push   QWORD PTR [r13+0x18]
ffffffff80004f8b:	4c 89 c6             	mov    rsi,r8
ffffffff80004f8e:	48 c7 c7 68 9c 00 80 	mov    rdi,0xffffffff80009c68
ffffffff80004f95:	68 2d 83 00 80       	push   0xffffffff8000832d
ffffffff80004f9a:	68 3d 83 00 80       	push   0xffffffff8000833d
ffffffff80004f9f:	41 ff 75 10          	push   QWORD PTR [r13+0x10]
ffffffff80004fa3:	68 2d 83 00 80       	push   0xffffffff8000832d
ffffffff80004fa8:	68 3d 83 00 80       	push   0xffffffff8000833d
ffffffff80004fad:	e8 2e 2e 00 00       	call   ffffffff80007de0 <kprintf>
ffffffff80004fb2:	48 83 c4 40          	add    rsp,0x40
ffffffff80004fb6:	49 8b 55 20          	mov    rdx,QWORD PTR [r13+0x20]
ffffffff80004fba:	31 c0                	xor    eax,eax
ffffffff80004fbc:	68 3d 83 00 80       	push   0xffffffff8000833d
ffffffff80004fc1:	49 c7 c0 2d 83 00 80 	mov    r8,0xffffffff8000832d
ffffffff80004fc8:	4d 8b 4d 28          	mov    r9,QWORD PTR [r13+0x28]
ffffffff80004fcc:	48 c7 c1 3d 83 00 80 	mov    rcx,0xffffffff8000833d
ffffffff80004fd3:	41 ff 75 30          	push   QWORD PTR [r13+0x30]
ffffffff80004fd7:	4c 89 c6             	mov    rsi,r8
ffffffff80004fda:	48 c7 c7 b0 9c 00 80 	mov    rdi,0xffffffff80009cb0
ffffffff80004fe1:	68 2d 83 00 80       	push   0xffffffff8000832d
ffffffff80004fe6:	68 3d 83 00 80       	push   0xffffffff8000833d
ffffffff80004feb:	e8 f0 2d 00 00       	call   ffffffff80007de0 <kprintf>
ffffffff80004ff0:	48 83 c4 18          	add    rsp,0x18
ffffffff80004ff4:	49 8b 55 38          	mov    rdx,QWORD PTR [r13+0x38]
ffffffff80004ff8:	31 c0                	xor    eax,eax
ffffffff80004ffa:	68 3d 83 00 80       	push   0xffffffff8000833d
ffffffff80004fff:	49 c7 c0 2d 83 00 80 	mov    r8,0xffffffff8000832d
ffffffff80005006:	4d 8b 4d 40          	mov    r9,QWORD PTR [r13+0x40]
ffffffff8000500a:	48 c7 c1 3d 83 00 80 	mov    rcx,0xffffffff8000833d
ffffffff80005011:	41 ff 75 50          	push   QWORD PTR [r13+0x50]
ffffffff80005015:	4c 89 c6             	mov    rsi,r8
ffffffff80005018:	48 c7 c7 e8 9c 00 80 	mov    rdi,0xffffffff80009ce8
ffffffff8000501f:	68 2d 83 00 80       	push   0xffffffff8000832d
ffffffff80005024:	68 3d 83 00 80       	push   0xffffffff8000833d
ffffffff80005029:	41 ff 75 48          	push   QWORD PTR [r13+0x48]
ffffffff8000502d:	68 2d 83 00 80       	push   0xffffffff8000832d
ffffffff80005032:	68 3d 83 00 80       	push   0xffffffff8000833d
ffffffff80005037:	e8 a4 2d 00 00       	call   ffffffff80007de0 <kprintf>
ffffffff8000503c:	48 83 c4 38          	add    rsp,0x38
ffffffff80005040:	49 8b 55 58          	mov    rdx,QWORD PTR [r13+0x58]
ffffffff80005044:	31 c0                	xor    eax,eax
ffffffff80005046:	68 3d 83 00 80       	push   0xffffffff8000833d
ffffffff8000504b:	49 c7 c0 2d 83 00 80 	mov    r8,0xffffffff8000832d
ffffffff80005052:	4d 8b 4d 60          	mov    r9,QWORD PTR [r13+0x60]
ffffffff80005056:	48 c7 c1 3d 83 00 80 	mov    rcx,0xffffffff8000833d
ffffffff8000505d:	41 ff 75 70          	push   QWORD PTR [r13+0x70]
ffffffff80005061:	4c 89 c6             	mov    rsi,r8
ffffffff80005064:	48 c7 c7 30 9d 00 80 	mov    rdi,0xffffffff80009d30
ffffffff8000506b:	68 2d 83 00 80       	push   0xffffffff8000832d
ffffffff80005070:	68 3d 83 00 80       	push   0xffffffff8000833d
ffffffff80005075:	41 ff 75 68          	push   QWORD PTR [r13+0x68]
ffffffff80005079:	68 2d 83 00 80       	push   0xffffffff8000832d
ffffffff8000507e:	68 3d 83 00 80       	push   0xffffffff8000833d
ffffffff80005083:	e8 58 2d 00 00       	call   ffffffff80007de0 <kprintf>
ffffffff80005088:	48 83 c4 40          	add    rsp,0x40
ffffffff8000508c:	48 83 fb 0e          	cmp    rbx,0xe
ffffffff80005090:	74 19                	je     ffffffff800050ab <ke_exception_handler+0x25b>
ffffffff80005092:	48 89 ef             	mov    rdi,rbp
ffffffff80005095:	e8 16 01 00 00       	call   ffffffff800051b0 <stack_trace_print>
ffffffff8000509a:	48 c7 c7 20 8d 00 80 	mov    rdi,0xffffffff80008d20
ffffffff800050a1:	31 c0                	xor    eax,eax
ffffffff800050a3:	e8 38 2d 00 00       	call   ffffffff80007de0 <kprintf>
ffffffff800050a8:	f4                   	hlt
ffffffff800050a9:	eb fe                	jmp    ffffffff800050a9 <ke_exception_handler+0x259>
ffffffff800050ab:	48 c7 c7 78 9d 00 80 	mov    rdi,0xffffffff80009d78
ffffffff800050b2:	31 c0                	xor    eax,eax
ffffffff800050b4:	e8 27 2d 00 00       	call   ffffffff80007de0 <kprintf>
ffffffff800050b9:	0f 20 d6             	mov    rsi,cr2
ffffffff800050bc:	31 c0                	xor    eax,eax
ffffffff800050be:	48 c7 c7 b8 9d 00 80 	mov    rdi,0xffffffff80009db8
ffffffff800050c5:	e8 16 2d 00 00       	call   ffffffff80007de0 <kprintf>
ffffffff800050ca:	4c 89 e2             	mov    rdx,r12
ffffffff800050cd:	31 c0                	xor    eax,eax
ffffffff800050cf:	48 c7 c1 3d 83 00 80 	mov    rcx,0xffffffff8000833d
ffffffff800050d6:	48 c7 c6 2d 83 00 80 	mov    rsi,0xffffffff8000832d
ffffffff800050dd:	48 c7 c7 51 83 00 80 	mov    rdi,0xffffffff80008351
ffffffff800050e4:	e8 f7 2c 00 00       	call   ffffffff80007de0 <kprintf>
ffffffff800050e9:	44 89 e2             	mov    edx,r12d
ffffffff800050ec:	31 c0                	xor    eax,eax
ffffffff800050ee:	48 c7 c1 3d 83 00 80 	mov    rcx,0xffffffff8000833d
ffffffff800050f5:	83 e2 01             	and    edx,0x1
ffffffff800050f8:	48 c7 c6 2d 83 00 80 	mov    rsi,0xffffffff8000832d
ffffffff800050ff:	48 c7 c7 6a 83 00 80 	mov    rdi,0xffffffff8000836a
ffffffff80005106:	e8 d5 2c 00 00       	call   ffffffff80007de0 <kprintf>
ffffffff8000510b:	4c 89 e2             	mov    rdx,r12
ffffffff8000510e:	31 c0                	xor    eax,eax
ffffffff80005110:	48 c7 c1 3d 83 00 80 	mov    rcx,0xffffffff8000833d
ffffffff80005117:	48 d1 ea             	shr    rdx,1
ffffffff8000511a:	48 c7 c6 2d 83 00 80 	mov    rsi,0xffffffff8000832d
ffffffff80005121:	48 c7 c7 7a 83 00 80 	mov    rdi,0xffffffff8000837a
ffffffff80005128:	83 e2 01             	and    edx,0x1
ffffffff8000512b:	e8 b0 2c 00 00       	call   ffffffff80007de0 <kprintf>
ffffffff80005130:	4c 89 e2             	mov    rdx,r12
ffffffff80005133:	31 c0                	xor    eax,eax
ffffffff80005135:	48 c7 c1 3d 83 00 80 	mov    rcx,0xffffffff8000833d
ffffffff8000513c:	48 c1 ea 02          	shr    rdx,0x2
ffffffff80005140:	48 c7 c6 2d 83 00 80 	mov    rsi,0xffffffff8000832d
ffffffff80005147:	48 c7 c7 8a 83 00 80 	mov    rdi,0xffffffff8000838a
ffffffff8000514e:	83 e2 01             	and    edx,0x1
ffffffff80005151:	e8 8a 2c 00 00       	call   ffffffff80007de0 <kprintf>
ffffffff80005156:	4c 89 e2             	mov    rdx,r12
ffffffff80005159:	31 c0                	xor    eax,eax
ffffffff8000515b:	48 c7 c1 3d 83 00 80 	mov    rcx,0xffffffff8000833d
ffffffff80005162:	48 c1 ea 03          	shr    rdx,0x3
ffffffff80005166:	48 c7 c6 2d 83 00 80 	mov    rsi,0xffffffff8000832d
ffffffff8000516d:	48 c7 c7 9a 83 00 80 	mov    rdi,0xffffffff8000839a
ffffffff80005174:	83 e2 01             	and    edx,0x1
ffffffff80005177:	e8 64 2c 00 00       	call   ffffffff80007de0 <kprintf>
ffffffff8000517c:	4c 89 e2             	mov    rdx,r12
ffffffff8000517f:	31 c0                	xor    eax,eax
ffffffff80005181:	48 c7 c1 3d 83 00 80 	mov    rcx,0xffffffff8000833d
ffffffff80005188:	48 c1 ea 04          	shr    rdx,0x4
ffffffff8000518c:	48 c7 c6 2d 83 00 80 	mov    rsi,0xffffffff8000832d
ffffffff80005193:	48 c7 c7 aa 83 00 80 	mov    rdi,0xffffffff800083aa
ffffffff8000519a:	83 e2 01             	and    edx,0x1
ffffffff8000519d:	e8 3e 2c 00 00       	call   ffffffff80007de0 <kprintf>
ffffffff800051a2:	e9 eb fe ff ff       	jmp    ffffffff80005092 <ke_exception_handler+0x242>
ffffffff800051a7:	66 0f 1f 84 00 00 00 	nop    WORD PTR [rax+rax*1+0x0]
ffffffff800051ae:	00 00 

ffffffff800051b0 <stack_trace_print>:
ffffffff800051b0:	55                   	push   rbp
ffffffff800051b1:	31 c0                	xor    eax,eax
ffffffff800051b3:	48 c7 c2 3d 83 00 80 	mov    rdx,0xffffffff8000833d
ffffffff800051ba:	48 c7 c6 5f 85 00 80 	mov    rsi,0xffffffff8000855f
ffffffff800051c1:	48 89 e5             	mov    rbp,rsp
ffffffff800051c4:	41 54                	push   r12
ffffffff800051c6:	53                   	push   rbx
ffffffff800051c7:	48 89 fb             	mov    rbx,rdi
ffffffff800051ca:	48 c7 c7 71 85 00 80 	mov    rdi,0xffffffff80008571
ffffffff800051d1:	e8 0a 2c 00 00       	call   ffffffff80007de0 <kprintf>
ffffffff800051d6:	48 81 fb ff 0f 00 00 	cmp    rbx,0xfff
ffffffff800051dd:	76 54                	jbe    ffffffff80005233 <stack_trace_print+0x83>
ffffffff800051df:	45 31 e4             	xor    r12d,r12d
ffffffff800051e2:	eb 4a                	jmp    ffffffff8000522e <stack_trace_print+0x7e>
ffffffff800051e4:	0f 1f 40 00          	nop    DWORD PTR [rax+0x0]
ffffffff800051e8:	48 8b 4b 08          	mov    rcx,QWORD PTR [rbx+0x8]
ffffffff800051ec:	48 85 c9             	test   rcx,rcx
ffffffff800051ef:	74 42                	je     ffffffff80005233 <stack_trace_print+0x83>
ffffffff800051f1:	31 c0                	xor    eax,eax
ffffffff800051f3:	48 c7 c2 3d 83 00 80 	mov    rdx,0xffffffff8000833d
ffffffff800051fa:	41 83 c4 01          	add    r12d,0x1
ffffffff800051fe:	48 c7 c6 84 85 00 80 	mov    rsi,0xffffffff80008584
ffffffff80005205:	48 c7 c7 98 85 00 80 	mov    rdi,0xffffffff80008598
ffffffff8000520c:	e8 cf 2b 00 00       	call   ffffffff80007de0 <kprintf>
ffffffff80005211:	48 8b 1b             	mov    rbx,QWORD PTR [rbx]
ffffffff80005214:	41 83 fc 10          	cmp    r12d,0x10
ffffffff80005218:	0f 95 c2             	setne  dl
ffffffff8000521b:	48 85 db             	test   rbx,rbx
ffffffff8000521e:	0f 95 c0             	setne  al
ffffffff80005221:	84 c2                	test   dl,al
ffffffff80005223:	74 0e                	je     ffffffff80005233 <stack_trace_print+0x83>
ffffffff80005225:	48 81 fb ff 0f 00 00 	cmp    rbx,0xfff
ffffffff8000522c:	76 05                	jbe    ffffffff80005233 <stack_trace_print+0x83>
ffffffff8000522e:	f6 c3 0f             	test   bl,0xf
ffffffff80005231:	74 b5                	je     ffffffff800051e8 <stack_trace_print+0x38>
ffffffff80005233:	5b                   	pop    rbx
ffffffff80005234:	41 5c                	pop    r12
ffffffff80005236:	5d                   	pop    rbp
ffffffff80005237:	c3                   	ret
ffffffff80005238:	0f 1f 84 00 00 00 00 	nop    DWORD PTR [rax+rax*1+0x0]
ffffffff8000523f:	00 

ffffffff80005240 <paging_write_table_entry>:
ffffffff80005240:	55                   	push   rbp
ffffffff80005241:	48 89 e5             	mov    rbp,rsp
ffffffff80005244:	41 56                	push   r14
ffffffff80005246:	53                   	push   rbx
ffffffff80005247:	48 8d 1c f7          	lea    rbx,[rdi+rsi*8]
ffffffff8000524b:	48 83 ec 10          	sub    rsp,0x10
ffffffff8000524f:	48 8b 03             	mov    rax,QWORD PTR [rbx]
ffffffff80005252:	a8 01                	test   al,0x1
ffffffff80005254:	74 1a                	je     ffffffff80005270 <paging_write_table_entry+0x30>
ffffffff80005256:	48 ba 00 f0 ff ff ff 	movabs rdx,0xffffffffff000
ffffffff8000525d:	ff 0f 00 
ffffffff80005260:	48 21 d0             	and    rax,rdx
ffffffff80005263:	48 83 c4 10          	add    rsp,0x10
ffffffff80005267:	5b                   	pop    rbx
ffffffff80005268:	41 5e                	pop    r14
ffffffff8000526a:	5d                   	pop    rbp
ffffffff8000526b:	c3                   	ret
ffffffff8000526c:	0f 1f 40 00          	nop    DWORD PTR [rax+0x0]
ffffffff80005270:	bf 01 00 00 00       	mov    edi,0x1
ffffffff80005275:	49 89 d6             	mov    r14,rdx
ffffffff80005278:	e8 43 06 00 00       	call   ffffffff800058c0 <pmm_alloc_pages>
ffffffff8000527d:	48 89 c1             	mov    rcx,rax
ffffffff80005280:	48 85 c0             	test   rax,rax
ffffffff80005283:	74 53                	je     ffffffff800052d8 <paging_write_table_entry+0x98>
ffffffff80005285:	48 8b 05 dc ad ff ff 	mov    rax,QWORD PTR [rip+0xffffffffffffaddc]        # ffffffff80000068 <hhdm_request+0x28>
ffffffff8000528c:	48 89 ce             	mov    rsi,rcx
ffffffff8000528f:	48 03 70 08          	add    rsi,QWORD PTR [rax+0x8]
ffffffff80005293:	48 89 f0             	mov    rax,rsi
ffffffff80005296:	74 cb                	je     ffffffff80005263 <paging_write_table_entry+0x23>
ffffffff80005298:	ba 00 10 00 00       	mov    edx,0x1000
ffffffff8000529d:	31 f6                	xor    esi,esi
ffffffff8000529f:	48 89 c7             	mov    rdi,rax
ffffffff800052a2:	48 89 4d e8          	mov    QWORD PTR [rbp-0x18],rcx
ffffffff800052a6:	e8 45 1f 00 00       	call   ffffffff800071f0 <memset>
ffffffff800052ab:	48 ba ff 0f 00 00 00 	movabs rdx,0xfff0000000000fff
ffffffff800052b2:	00 f0 ff 
ffffffff800052b5:	48 b8 00 f0 ff ff ff 	movabs rax,0xffffffffff000
ffffffff800052bc:	ff 0f 00 
ffffffff800052bf:	48 23 45 e8          	and    rax,QWORD PTR [rbp-0x18]
ffffffff800052c3:	4c 21 f2             	and    rdx,r14
ffffffff800052c6:	48 09 c2             	or     rdx,rax
ffffffff800052c9:	48 89 13             	mov    QWORD PTR [rbx],rdx
ffffffff800052cc:	48 83 c4 10          	add    rsp,0x10
ffffffff800052d0:	5b                   	pop    rbx
ffffffff800052d1:	41 5e                	pop    r14
ffffffff800052d3:	5d                   	pop    rbp
ffffffff800052d4:	c3                   	ret
ffffffff800052d5:	0f 1f 00             	nop    DWORD PTR [rax]
ffffffff800052d8:	48 89 45 e8          	mov    QWORD PTR [rbp-0x18],rax
ffffffff800052dc:	48 c7 c7 f8 9d 00 80 	mov    rdi,0xffffffff80009df8
ffffffff800052e3:	31 c0                	xor    eax,eax
ffffffff800052e5:	e8 f6 2a 00 00       	call   ffffffff80007de0 <kprintf>
ffffffff800052ea:	48 8b 4d e8          	mov    rcx,QWORD PTR [rbp-0x18]
ffffffff800052ee:	eb 95                	jmp    ffffffff80005285 <paging_write_table_entry+0x45>

ffffffff800052f0 <paging_walk_page_tables>:
ffffffff800052f0:	55                   	push   rbp
ffffffff800052f1:	48 89 e5             	mov    rbp,rsp
ffffffff800052f4:	41 57                	push   r15
ffffffff800052f6:	49 89 f7             	mov    r15,rsi
ffffffff800052f9:	41 56                	push   r14
ffffffff800052fb:	49 89 d6             	mov    r14,rdx
ffffffff800052fe:	49 c1 ef 15          	shr    r15,0x15
ffffffff80005302:	48 ba 00 f0 ff ff ff 	movabs rdx,0xffffffffff000
ffffffff80005309:	ff 0f 00 
ffffffff8000530c:	41 55                	push   r13
ffffffff8000530e:	48 21 d7             	and    rdi,rdx
ffffffff80005311:	49 89 cd             	mov    r13,rcx
ffffffff80005314:	41 81 e7 ff 01 00 00 	and    r15d,0x1ff
ffffffff8000531b:	41 54                	push   r12
ffffffff8000531d:	4d 89 c4             	mov    r12,r8
ffffffff80005320:	53                   	push   rbx
ffffffff80005321:	49 83 cc 03          	or     r12,0x3
ffffffff80005325:	48 89 f3             	mov    rbx,rsi
ffffffff80005328:	48 c1 ee 27          	shr    rsi,0x27
ffffffff8000532c:	81 e6 ff 01 00 00    	and    esi,0x1ff
ffffffff80005332:	4c 89 e2             	mov    rdx,r12
ffffffff80005335:	48 83 ec 18          	sub    rsp,0x18
ffffffff80005339:	48 8b 05 28 ad ff ff 	mov    rax,QWORD PTR [rip+0xffffffffffffad28]        # ffffffff80000068 <hhdm_request+0x28>
ffffffff80005340:	4c 89 45 c8          	mov    QWORD PTR [rbp-0x38],r8
ffffffff80005344:	48 03 78 08          	add    rdi,QWORD PTR [rax+0x8]
ffffffff80005348:	e8 f3 fe ff ff       	call   ffffffff80005240 <paging_write_table_entry>
ffffffff8000534d:	48 8b 15 14 ad ff ff 	mov    rdx,QWORD PTR [rip+0xffffffffffffad14]        # ffffffff80000068 <hhdm_request+0x28>
ffffffff80005354:	48 89 de             	mov    rsi,rbx
ffffffff80005357:	48 c1 ee 1e          	shr    rsi,0x1e
ffffffff8000535b:	48 03 42 08          	add    rax,QWORD PTR [rdx+0x8]
ffffffff8000535f:	81 e6 ff 01 00 00    	and    esi,0x1ff
ffffffff80005365:	4c 89 e2             	mov    rdx,r12
ffffffff80005368:	48 89 c7             	mov    rdi,rax
ffffffff8000536b:	e8 d0 fe ff ff       	call   ffffffff80005240 <paging_write_table_entry>
ffffffff80005370:	48 8b 15 f1 ac ff ff 	mov    rdx,QWORD PTR [rip+0xffffffffffffacf1]        # ffffffff80000068 <hhdm_request+0x28>
ffffffff80005377:	48 03 42 08          	add    rax,QWORD PTR [rdx+0x8]
ffffffff8000537b:	f6 45 c8 80          	test   BYTE PTR [rbp-0x38],0x80
ffffffff8000537f:	74 1f                	je     ffffffff800053a0 <paging_walk_page_tables+0xb0>
ffffffff80005381:	49 89 06             	mov    QWORD PTR [r14],rax
ffffffff80005384:	4d 89 7d 00          	mov    QWORD PTR [r13+0x0],r15
ffffffff80005388:	48 83 c4 18          	add    rsp,0x18
ffffffff8000538c:	5b                   	pop    rbx
ffffffff8000538d:	41 5c                	pop    r12
ffffffff8000538f:	41 5d                	pop    r13
ffffffff80005391:	41 5e                	pop    r14
ffffffff80005393:	41 5f                	pop    r15
ffffffff80005395:	5d                   	pop    rbp
ffffffff80005396:	c3                   	ret
ffffffff80005397:	66 0f 1f 84 00 00 00 	nop    WORD PTR [rax+rax*1+0x0]
ffffffff8000539e:	00 00 
ffffffff800053a0:	4c 89 e2             	mov    rdx,r12
ffffffff800053a3:	4c 89 fe             	mov    rsi,r15
ffffffff800053a6:	48 89 c7             	mov    rdi,rax
ffffffff800053a9:	48 c1 eb 0c          	shr    rbx,0xc
ffffffff800053ad:	e8 8e fe ff ff       	call   ffffffff80005240 <paging_write_table_entry>
ffffffff800053b2:	48 8b 15 af ac ff ff 	mov    rdx,QWORD PTR [rip+0xffffffffffffacaf]        # ffffffff80000068 <hhdm_request+0x28>
ffffffff800053b9:	81 e3 ff 01 00 00    	and    ebx,0x1ff
ffffffff800053bf:	49 89 df             	mov    r15,rbx
ffffffff800053c2:	48 03 42 08          	add    rax,QWORD PTR [rdx+0x8]
ffffffff800053c6:	eb b9                	jmp    ffffffff80005381 <paging_walk_page_tables+0x91>
ffffffff800053c8:	0f 1f 84 00 00 00 00 	nop    DWORD PTR [rax+rax*1+0x0]
ffffffff800053cf:	00 

ffffffff800053d0 <paging_map_page>:
ffffffff800053d0:	55                   	push   rbp
ffffffff800053d1:	48 89 e5             	mov    rbp,rsp
ffffffff800053d4:	41 55                	push   r13
ffffffff800053d6:	49 89 d5             	mov    r13,rdx
ffffffff800053d9:	41 54                	push   r12
ffffffff800053db:	49 89 cc             	mov    r12,rcx
ffffffff800053de:	48 8d 55 d0          	lea    rdx,[rbp-0x30]
ffffffff800053e2:	53                   	push   rbx
ffffffff800053e3:	4d 89 e0             	mov    r8,r12
ffffffff800053e6:	48 89 f3             	mov    rbx,rsi
ffffffff800053e9:	48 83 ec 18          	sub    rsp,0x18
ffffffff800053ed:	81 e1 80 00 00 00    	and    ecx,0x80
ffffffff800053f3:	48 8d 4d d8          	lea    rcx,[rbp-0x28]
ffffffff800053f7:	74 57                	je     ffffffff80005450 <paging_map_page+0x80>
ffffffff800053f9:	41 81 e0 84 00 00 00 	and    r8d,0x84
ffffffff80005400:	4c 89 ee             	mov    rsi,r13
ffffffff80005403:	e8 e8 fe ff ff       	call   ffffffff800052f0 <paging_walk_page_tables>
ffffffff80005408:	48 8b 45 d0          	mov    rax,QWORD PTR [rbp-0x30]
ffffffff8000540c:	48 85 c0             	test   rax,rax
ffffffff8000540f:	74 2e                	je     ffffffff8000543f <paging_map_page+0x6f>
ffffffff80005411:	48 ba 00 f0 ff ff ff 	movabs rdx,0xffffffffff000
ffffffff80005418:	ff 0f 00 
ffffffff8000541b:	48 21 d3             	and    rbx,rdx
ffffffff8000541e:	48 ba ff 0f 00 00 00 	movabs rdx,0xfff0000000000fff
ffffffff80005425:	00 f0 ff 
ffffffff80005428:	49 21 d4             	and    r12,rdx
ffffffff8000542b:	48 8b 55 d8          	mov    rdx,QWORD PTR [rbp-0x28]
ffffffff8000542f:	4c 09 e3             	or     rbx,r12
ffffffff80005432:	48 83 cb 01          	or     rbx,0x1
ffffffff80005436:	48 89 1c d0          	mov    QWORD PTR [rax+rdx*8],rbx
ffffffff8000543a:	41 0f 01 7d 00       	invlpg BYTE PTR [r13+0x0]
ffffffff8000543f:	48 83 c4 18          	add    rsp,0x18
ffffffff80005443:	5b                   	pop    rbx
ffffffff80005444:	41 5c                	pop    r12
ffffffff80005446:	41 5d                	pop    r13
ffffffff80005448:	5d                   	pop    rbp
ffffffff80005449:	c3                   	ret
ffffffff8000544a:	66 0f 1f 44 00 00    	nop    WORD PTR [rax+rax*1+0x0]
ffffffff80005450:	41 83 e0 04          	and    r8d,0x4
ffffffff80005454:	4c 89 ee             	mov    rsi,r13
ffffffff80005457:	e8 94 fe ff ff       	call   ffffffff800052f0 <paging_walk_page_tables>
ffffffff8000545c:	eb aa                	jmp    ffffffff80005408 <paging_map_page+0x38>
ffffffff8000545e:	66 2e 0f 1f 84 00 00 	cs nop WORD PTR [rax+rax*1+0x0]
ffffffff80005465:	00 00 00 
ffffffff80005468:	66 2e 0f 1f 84 00 00 	cs nop WORD PTR [rax+rax*1+0x0]
ffffffff8000546f:	00 00 00 
ffffffff80005472:	66 2e 0f 1f 84 00 00 	cs nop WORD PTR [rax+rax*1+0x0]
ffffffff80005479:	00 00 00 
ffffffff8000547c:	0f 1f 40 00          	nop    DWORD PTR [rax+0x0]

ffffffff80005480 <reinit_paging>:
ffffffff80005480:	55                   	push   rbp
ffffffff80005481:	48 89 e5             	mov    rbp,rsp
ffffffff80005484:	41 57                	push   r15
ffffffff80005486:	41 56                	push   r14
ffffffff80005488:	41 55                	push   r13
ffffffff8000548a:	45 31 ed             	xor    r13d,r13d
ffffffff8000548d:	41 54                	push   r12
ffffffff8000548f:	53                   	push   rbx
ffffffff80005490:	48 83 ec 28          	sub    rsp,0x28
ffffffff80005494:	48 8b 05 0d ac ff ff 	mov    rax,QWORD PTR [rip+0xffffffffffffac0d]        # ffffffff800000a8 <memmap_request+0x28>
ffffffff8000549b:	48 89 45 b8          	mov    QWORD PTR [rbp-0x48],rax
ffffffff8000549f:	48 83 78 08 00       	cmp    QWORD PTR [rax+0x8],0x0
ffffffff800054a4:	75 2c                	jne    ffffffff800054d2 <reinit_paging+0x52>
ffffffff800054a6:	e9 d5 00 00 00       	jmp    ffffffff80005580 <reinit_paging+0x100>
ffffffff800054ab:	66 2e 0f 1f 84 00 00 	cs nop WORD PTR [rax+rax*1+0x0]
ffffffff800054b2:	00 00 00 
ffffffff800054b5:	66 66 2e 0f 1f 84 00 	data16 cs nop WORD PTR [rax+rax*1+0x0]
ffffffff800054bc:	00 00 00 00 
ffffffff800054c0:	48 8b 45 b8          	mov    rax,QWORD PTR [rbp-0x48]
ffffffff800054c4:	49 83 c5 01          	add    r13,0x1
ffffffff800054c8:	4c 3b 68 08          	cmp    r13,QWORD PTR [rax+0x8]
ffffffff800054cc:	0f 83 ae 00 00 00    	jae    ffffffff80005580 <reinit_paging+0x100>
ffffffff800054d2:	48 8b 45 b8          	mov    rax,QWORD PTR [rbp-0x48]
ffffffff800054d6:	48 8b 40 10          	mov    rax,QWORD PTR [rax+0x10]
ffffffff800054da:	4a 8b 04 e8          	mov    rax,QWORD PTR [rax+r13*8]
ffffffff800054de:	48 83 78 10 00       	cmp    QWORD PTR [rax+0x10],0x0
ffffffff800054e3:	75 db                	jne    ffffffff800054c0 <reinit_paging+0x40>
ffffffff800054e5:	4c 8b 30             	mov    r14,QWORD PTR [rax]
ffffffff800054e8:	4c 8b 78 08          	mov    r15,QWORD PTR [rax+0x8]
ffffffff800054ec:	4d 01 f7             	add    r15,r14
ffffffff800054ef:	49 81 e6 00 00 e0 ff 	and    r14,0xffffffffffe00000
ffffffff800054f6:	66 2e 0f 1f 84 00 00 	cs nop WORD PTR [rax+rax*1+0x0]
ffffffff800054fd:	00 00 00 
ffffffff80005500:	49 81 c6 00 00 20 00 	add    r14,0x200000
ffffffff80005507:	4d 39 f7             	cmp    r15,r14
ffffffff8000550a:	72 b4                	jb     ffffffff800054c0 <reinit_paging+0x40>
ffffffff8000550c:	48 8b 05 55 ab ff ff 	mov    rax,QWORD PTR [rip+0xffffffffffffab55]        # ffffffff80000068 <hhdm_request+0x28>
ffffffff80005513:	49 8d 9e 00 00 e0 ff 	lea    rbx,[r14-0x200000]
ffffffff8000551a:	49 89 dc             	mov    r12,rbx
ffffffff8000551d:	4c 03 60 08          	add    r12,QWORD PTR [rax+0x8]
ffffffff80005521:	74 dd                	je     ffffffff80005500 <reinit_paging+0x80>
ffffffff80005523:	0f 20 df             	mov    rdi,cr3
ffffffff80005526:	41 b8 80 00 00 00    	mov    r8d,0x80
ffffffff8000552c:	48 8d 55 c0          	lea    rdx,[rbp-0x40]
ffffffff80005530:	48 8d 4d c8          	lea    rcx,[rbp-0x38]
ffffffff80005534:	4c 89 e6             	mov    rsi,r12
ffffffff80005537:	e8 b4 fd ff ff       	call   ffffffff800052f0 <paging_walk_page_tables>
ffffffff8000553c:	48 8b 55 c0          	mov    rdx,QWORD PTR [rbp-0x40]
ffffffff80005540:	48 85 d2             	test   rdx,rdx
ffffffff80005543:	74 bb                	je     ffffffff80005500 <reinit_paging+0x80>
ffffffff80005545:	48 b8 00 f0 ff ff ff 	movabs rax,0xffffffffff000
ffffffff8000554c:	ff 0f 00 
ffffffff8000554f:	48 8b 4d c8          	mov    rcx,QWORD PTR [rbp-0x38]
ffffffff80005553:	48 21 c3             	and    rbx,rax
ffffffff80005556:	80 cb 83             	or     bl,0x83
ffffffff80005559:	48 89 1c ca          	mov    QWORD PTR [rdx+rcx*8],rbx
ffffffff8000555d:	41 0f 01 3c 24       	invlpg BYTE PTR [r12]
ffffffff80005562:	49 81 c6 00 00 20 00 	add    r14,0x200000
ffffffff80005569:	4d 39 f7             	cmp    r15,r14
ffffffff8000556c:	73 9e                	jae    ffffffff8000550c <reinit_paging+0x8c>
ffffffff8000556e:	48 8b 45 b8          	mov    rax,QWORD PTR [rbp-0x48]
ffffffff80005572:	49 83 c5 01          	add    r13,0x1
ffffffff80005576:	4c 3b 68 08          	cmp    r13,QWORD PTR [rax+0x8]
ffffffff8000557a:	0f 82 52 ff ff ff    	jb     ffffffff800054d2 <reinit_paging+0x52>
ffffffff80005580:	0f 20 de             	mov    rsi,cr3
ffffffff80005583:	48 b8 00 f0 ff ff ff 	movabs rax,0xffffffffff000
ffffffff8000558a:	ff 0f 00 
ffffffff8000558d:	48 21 c6             	and    rsi,rax
ffffffff80005590:	48 8b 05 d1 aa ff ff 	mov    rax,QWORD PTR [rip+0xffffffffffffaad1]        # ffffffff80000068 <hhdm_request+0x28>
ffffffff80005597:	48 89 f7             	mov    rdi,rsi
ffffffff8000559a:	48 89 35 e7 5e 00 00 	mov    QWORD PTR [rip+0x5ee7],rsi        # ffffffff8000b488 <kernel_page_map>
ffffffff800055a1:	48 03 78 08          	add    rdi,QWORD PTR [rax+0x8]
ffffffff800055a5:	74 21                	je     ffffffff800055c8 <reinit_paging+0x148>
ffffffff800055a7:	48 83 c4 28          	add    rsp,0x28
ffffffff800055ab:	48 c7 c7 bb 85 00 80 	mov    rdi,0xffffffff800085bb
ffffffff800055b2:	31 c0                	xor    eax,eax
ffffffff800055b4:	5b                   	pop    rbx
ffffffff800055b5:	41 5c                	pop    r12
ffffffff800055b7:	41 5d                	pop    r13
ffffffff800055b9:	41 5e                	pop    r14
ffffffff800055bb:	41 5f                	pop    r15
ffffffff800055bd:	5d                   	pop    rbp
ffffffff800055be:	e9 ad be ff ff       	jmp    ffffffff80001470 <serial_printf>
ffffffff800055c3:	0f 1f 44 00 00       	nop    DWORD PTR [rax+rax*1+0x0]
ffffffff800055c8:	48 c7 c7 a4 85 00 80 	mov    rdi,0xffffffff800085a4
ffffffff800055cf:	e8 0c e2 ff ff       	call   ffffffff800037e0 <ke_panic>
ffffffff800055d4:	48 8b 35 ad 5e 00 00 	mov    rsi,QWORD PTR [rip+0x5ead]        # ffffffff8000b488 <kernel_page_map>
ffffffff800055db:	eb ca                	jmp    ffffffff800055a7 <reinit_paging+0x127>
ffffffff800055dd:	0f 1f 00             	nop    DWORD PTR [rax]

ffffffff800055e0 <paging_create_address_space>:
ffffffff800055e0:	55                   	push   rbp
ffffffff800055e1:	bf 01 00 00 00       	mov    edi,0x1
ffffffff800055e6:	48 89 e5             	mov    rbp,rsp
ffffffff800055e9:	41 55                	push   r13
ffffffff800055eb:	41 54                	push   r12
ffffffff800055ed:	53                   	push   rbx
ffffffff800055ee:	48 83 ec 08          	sub    rsp,0x8
ffffffff800055f2:	e8 c9 02 00 00       	call   ffffffff800058c0 <pmm_alloc_pages>
ffffffff800055f7:	49 89 c4             	mov    r12,rax
ffffffff800055fa:	48 85 c0             	test   rax,rax
ffffffff800055fd:	0f 84 7f 00 00 00    	je     ffffffff80005682 <paging_create_address_space+0xa2>
ffffffff80005603:	48 8b 05 5e aa ff ff 	mov    rax,QWORD PTR [rip+0xffffffffffffaa5e]        # ffffffff80000068 <hhdm_request+0x28>
ffffffff8000560a:	4c 89 e1             	mov    rcx,r12
ffffffff8000560d:	48 03 48 08          	add    rcx,QWORD PTR [rax+0x8]
ffffffff80005611:	75 5b                	jne    ffffffff8000566e <paging_create_address_space+0x8e>
ffffffff80005613:	31 db                	xor    ebx,ebx
ffffffff80005615:	48 8b 05 4c aa ff ff 	mov    rax,QWORD PTR [rip+0xffffffffffffaa4c]        # ffffffff80000068 <hhdm_request+0x28>
ffffffff8000561c:	31 f6                	xor    esi,esi
ffffffff8000561e:	48 89 df             	mov    rdi,rbx
ffffffff80005621:	ba 00 10 00 00       	mov    edx,0x1000
ffffffff80005626:	4c 8b 68 08          	mov    r13,QWORD PTR [rax+0x8]
ffffffff8000562a:	4c 03 2d 57 5e 00 00 	add    r13,QWORD PTR [rip+0x5e57]        # ffffffff8000b488 <kernel_page_map>
ffffffff80005631:	e8 ba 1b 00 00       	call   ffffffff800071f0 <memset>
ffffffff80005636:	4c 29 eb             	sub    rbx,r13
ffffffff80005639:	49 8d 85 00 08 00 00 	lea    rax,[r13+0x800]
ffffffff80005640:	49 8d b5 00 10 00 00 	lea    rsi,[r13+0x1000]
ffffffff80005647:	48 89 d9             	mov    rcx,rbx
ffffffff8000564a:	66 0f 1f 44 00 00    	nop    WORD PTR [rax+rax*1+0x0]
ffffffff80005650:	48 8b 10             	mov    rdx,QWORD PTR [rax]
ffffffff80005653:	48 89 14 01          	mov    QWORD PTR [rcx+rax*1],rdx
ffffffff80005657:	48 83 c0 08          	add    rax,0x8
ffffffff8000565b:	48 39 f0             	cmp    rax,rsi
ffffffff8000565e:	75 f0                	jne    ffffffff80005650 <paging_create_address_space+0x70>
ffffffff80005660:	48 83 c4 08          	add    rsp,0x8
ffffffff80005664:	4c 89 e0             	mov    rax,r12
ffffffff80005667:	5b                   	pop    rbx
ffffffff80005668:	41 5c                	pop    r12
ffffffff8000566a:	41 5d                	pop    r13
ffffffff8000566c:	5d                   	pop    rbp
ffffffff8000566d:	c3                   	ret
ffffffff8000566e:	ba 00 10 00 00       	mov    edx,0x1000
ffffffff80005673:	31 f6                	xor    esi,esi
ffffffff80005675:	48 89 cf             	mov    rdi,rcx
ffffffff80005678:	48 89 cb             	mov    rbx,rcx
ffffffff8000567b:	e8 70 1b 00 00       	call   ffffffff800071f0 <memset>
ffffffff80005680:	eb 93                	jmp    ffffffff80005615 <paging_create_address_space+0x35>
ffffffff80005682:	48 c7 c7 f8 9d 00 80 	mov    rdi,0xffffffff80009df8
ffffffff80005689:	31 c0                	xor    eax,eax
ffffffff8000568b:	e8 50 27 00 00       	call   ffffffff80007de0 <kprintf>
ffffffff80005690:	48 8b 05 d1 a9 ff ff 	mov    rax,QWORD PTR [rip+0xffffffffffffa9d1]        # ffffffff80000068 <hhdm_request+0x28>
ffffffff80005697:	48 8b 78 08          	mov    rdi,QWORD PTR [rax+0x8]
ffffffff8000569b:	48 85 ff             	test   rdi,rdi
ffffffff8000569e:	75 1c                	jne    ffffffff800056bc <paging_create_address_space+0xdc>
ffffffff800056a0:	31 c0                	xor    eax,eax
ffffffff800056a2:	48 c7 c7 d1 85 00 80 	mov    rdi,0xffffffff800085d1
ffffffff800056a9:	e8 c2 bd ff ff       	call   ffffffff80001470 <serial_printf>
ffffffff800056ae:	48 83 c4 08          	add    rsp,0x8
ffffffff800056b2:	4c 89 e0             	mov    rax,r12
ffffffff800056b5:	5b                   	pop    rbx
ffffffff800056b6:	41 5c                	pop    r12
ffffffff800056b8:	41 5d                	pop    r13
ffffffff800056ba:	5d                   	pop    rbp
ffffffff800056bb:	c3                   	ret
ffffffff800056bc:	ba 00 10 00 00       	mov    edx,0x1000
ffffffff800056c1:	31 f6                	xor    esi,esi
ffffffff800056c3:	e8 28 1b 00 00       	call   ffffffff800071f0 <memset>
ffffffff800056c8:	eb d6                	jmp    ffffffff800056a0 <paging_create_address_space+0xc0>
ffffffff800056ca:	66 0f 1f 44 00 00    	nop    WORD PTR [rax+rax*1+0x0]

ffffffff800056d0 <paging_switch_address_space>:
ffffffff800056d0:	0f 22 df             	mov    cr3,rdi
ffffffff800056d3:	c3                   	ret
ffffffff800056d4:	66 2e 0f 1f 84 00 00 	cs nop WORD PTR [rax+rax*1+0x0]
ffffffff800056db:	00 00 00 
ffffffff800056de:	66 90                	xchg   ax,ax

ffffffff800056e0 <paging_destroy_address_space>:
ffffffff800056e0:	48 85 ff             	test   rdi,rdi
ffffffff800056e3:	75 0b                	jne    ffffffff800056f0 <paging_destroy_address_space+0x10>
ffffffff800056e5:	c3                   	ret
ffffffff800056e6:	66 2e 0f 1f 84 00 00 	cs nop WORD PTR [rax+rax*1+0x0]
ffffffff800056ed:	00 00 00 
ffffffff800056f0:	be 01 00 00 00       	mov    esi,0x1
ffffffff800056f5:	e9 06 03 00 00       	jmp    ffffffff80005a00 <pmm_free_pages>
ffffffff800056fa:	66 0f 1f 44 00 00    	nop    WORD PTR [rax+rax*1+0x0]

ffffffff80005700 <kmalloc>:
ffffffff80005700:	55                   	push   rbp
ffffffff80005701:	48 81 c7 ff 0f 00 00 	add    rdi,0xfff
ffffffff80005708:	48 c1 ef 0c          	shr    rdi,0xc
ffffffff8000570c:	48 89 e5             	mov    rbp,rsp
ffffffff8000570f:	e8 ac 01 00 00       	call   ffffffff800058c0 <pmm_alloc_pages>
ffffffff80005714:	48 85 c0             	test   rax,rax
ffffffff80005717:	74 0b                	je     ffffffff80005724 <kmalloc+0x24>
ffffffff80005719:	48 8b 15 48 a9 ff ff 	mov    rdx,QWORD PTR [rip+0xffffffffffffa948]        # ffffffff80000068 <hhdm_request+0x28>
ffffffff80005720:	48 03 42 08          	add    rax,QWORD PTR [rdx+0x8]
ffffffff80005724:	5d                   	pop    rbp
ffffffff80005725:	c3                   	ret
ffffffff80005726:	66 2e 0f 1f 84 00 00 	cs nop WORD PTR [rax+rax*1+0x0]
ffffffff8000572d:	00 00 00 

ffffffff80005730 <kfree>:
ffffffff80005730:	48 8b 05 31 a9 ff ff 	mov    rax,QWORD PTR [rip+0xffffffffffffa931]        # ffffffff80000068 <hhdm_request+0x28>
ffffffff80005737:	48 81 c6 ff 0f 00 00 	add    rsi,0xfff
ffffffff8000573e:	48 c1 ee 0c          	shr    rsi,0xc
ffffffff80005742:	48 2b 78 08          	sub    rdi,QWORD PTR [rax+0x8]
ffffffff80005746:	e9 b5 02 00 00       	jmp    ffffffff80005a00 <pmm_free_pages>
ffffffff8000574b:	66 2e 0f 1f 84 00 00 	cs nop WORD PTR [rax+rax*1+0x0]
ffffffff80005752:	00 00 00 
ffffffff80005755:	66 2e 0f 1f 84 00 00 	cs nop WORD PTR [rax+rax*1+0x0]
ffffffff8000575c:	00 00 00 
ffffffff8000575f:	66 2e 0f 1f 84 00 00 	cs nop WORD PTR [rax+rax*1+0x0]
ffffffff80005766:	00 00 00 
ffffffff80005769:	66 2e 0f 1f 84 00 00 	cs nop WORD PTR [rax+rax*1+0x0]
ffffffff80005770:	00 00 00 
ffffffff80005773:	66 2e 0f 1f 84 00 00 	cs nop WORD PTR [rax+rax*1+0x0]
ffffffff8000577a:	00 00 00 
ffffffff8000577d:	0f 1f 00             	nop    DWORD PTR [rax]

ffffffff80005780 <pmm_init>:
ffffffff80005780:	55                   	push   rbp
ffffffff80005781:	48 89 e5             	mov    rbp,rsp
ffffffff80005784:	41 57                	push   r15
ffffffff80005786:	41 56                	push   r14
ffffffff80005788:	41 55                	push   r13
ffffffff8000578a:	41 54                	push   r12
ffffffff8000578c:	53                   	push   rbx
ffffffff8000578d:	48 83 ec 18          	sub    rsp,0x18
ffffffff80005791:	4c 8b 25 10 a9 ff ff 	mov    r12,QWORD PTR [rip+0xffffffffffffa910]        # ffffffff800000a8 <memmap_request+0x28>
ffffffff80005798:	48 8b 05 c9 a8 ff ff 	mov    rax,QWORD PTR [rip+0xffffffffffffa8c9]        # ffffffff80000068 <hhdm_request+0x28>
ffffffff8000579f:	48 89 45 c0          	mov    QWORD PTR [rbp-0x40],rax
ffffffff800057a3:	49 83 7c 24 08 00    	cmp    QWORD PTR [r12+0x8],0x0
ffffffff800057a9:	0f 84 df 00 00 00    	je     ffffffff8000588e <pmm_init+0x10e>
ffffffff800057af:	48 c7 45 c8 90 b4 00 	mov    QWORD PTR [rbp-0x38],0xffffffff8000b490
ffffffff800057b6:	80 
ffffffff800057b7:	45 31 ed             	xor    r13d,r13d
ffffffff800057ba:	66 0f 1f 44 00 00    	nop    WORD PTR [rax+rax*1+0x0]
ffffffff800057c0:	49 8b 44 24 10       	mov    rax,QWORD PTR [r12+0x10]
ffffffff800057c5:	4a 8b 04 e8          	mov    rax,QWORD PTR [rax+r13*8]
ffffffff800057c9:	48 8b 58 10          	mov    rbx,QWORD PTR [rax+0x10]
ffffffff800057cd:	48 85 db             	test   rbx,rbx
ffffffff800057d0:	0f 85 a9 00 00 00    	jne    ffffffff8000587f <pmm_init+0xff>
ffffffff800057d6:	48 8b 7d c0          	mov    rdi,QWORD PTR [rbp-0x40]
ffffffff800057da:	48 8b 50 08          	mov    rdx,QWORD PTR [rax+0x8]
ffffffff800057de:	31 f6                	xor    esi,esi
ffffffff800057e0:	4c 8b 77 08          	mov    r14,QWORD PTR [rdi+0x8]
ffffffff800057e4:	48 8b 7d c8          	mov    rdi,QWORD PTR [rbp-0x38]
ffffffff800057e8:	48 c1 ea 0c          	shr    rdx,0xc
ffffffff800057ec:	4c 03 30             	add    r14,QWORD PTR [rax]
ffffffff800057ef:	4c 89 37             	mov    QWORD PTR [rdi],r14
ffffffff800057f2:	49 8d 7e 18          	lea    rdi,[r14+0x18]
ffffffff800057f6:	49 89 56 10          	mov    QWORD PTR [r14+0x10],rdx
ffffffff800057fa:	49 89 56 08          	mov    QWORD PTR [r14+0x8],rdx
ffffffff800057fe:	48 83 c2 07          	add    rdx,0x7
ffffffff80005802:	49 c7 06 00 00 00 00 	mov    QWORD PTR [r14],0x0
ffffffff80005809:	48 c1 ea 03          	shr    rdx,0x3
ffffffff8000580d:	4c 89 75 c8          	mov    QWORD PTR [rbp-0x38],r14
ffffffff80005811:	e8 da 19 00 00       	call   ffffffff800071f0 <memset>
ffffffff80005816:	49 8b 46 10          	mov    rax,QWORD PTR [r14+0x10]
ffffffff8000581a:	48 8d 70 07          	lea    rsi,[rax+0x7]
ffffffff8000581e:	48 c1 ee 03          	shr    rsi,0x3
ffffffff80005822:	48 81 c6 17 10 00 00 	add    rsi,0x1017
ffffffff80005829:	48 c1 ee 0c          	shr    rsi,0xc
ffffffff8000582d:	0f 1f 84 00 00 00 00 	nop    DWORD PTR [rax+rax*1+0x0]
ffffffff80005834:	00 
ffffffff80005835:	66 66 2e 0f 1f 84 00 	data16 cs nop WORD PTR [rax+rax*1+0x0]
ffffffff8000583c:	00 00 00 00 
ffffffff80005840:	89 d9                	mov    ecx,ebx
ffffffff80005842:	48 89 da             	mov    rdx,rbx
ffffffff80005845:	b8 01 00 00 00       	mov    eax,0x1
ffffffff8000584a:	48 83 c3 01          	add    rbx,0x1
ffffffff8000584e:	83 e1 07             	and    ecx,0x7
ffffffff80005851:	48 c1 ea 03          	shr    rdx,0x3
ffffffff80005855:	d3 e0                	shl    eax,cl
ffffffff80005857:	48 98                	cdqe
ffffffff80005859:	49 09 44 d6 18       	or     QWORD PTR [r14+rdx*8+0x18],rax
ffffffff8000585e:	48 39 de             	cmp    rsi,rbx
ffffffff80005861:	75 dd                	jne    ffffffff80005840 <pmm_init+0xc0>
ffffffff80005863:	49 8b 56 08          	mov    rdx,QWORD PTR [r14+0x8]
ffffffff80005867:	48 c7 c7 50 9e 00 80 	mov    rdi,0xffffffff80009e50
ffffffff8000586e:	31 c0                	xor    eax,eax
ffffffff80005870:	48 29 f2             	sub    rdx,rsi
ffffffff80005873:	4c 89 f6             	mov    rsi,r14
ffffffff80005876:	49 89 56 08          	mov    QWORD PTR [r14+0x8],rdx
ffffffff8000587a:	e8 f1 bb ff ff       	call   ffffffff80001470 <serial_printf>
ffffffff8000587f:	49 83 c5 01          	add    r13,0x1
ffffffff80005883:	4d 3b 6c 24 08       	cmp    r13,QWORD PTR [r12+0x8]
ffffffff80005888:	0f 82 32 ff ff ff    	jb     ffffffff800057c0 <pmm_init+0x40>
ffffffff8000588e:	31 c0                	xor    eax,eax
ffffffff80005890:	48 c7 c7 b0 9e 00 80 	mov    rdi,0xffffffff80009eb0
ffffffff80005897:	e8 d4 bb ff ff       	call   ffffffff80001470 <serial_printf>
ffffffff8000589c:	48 83 c4 18          	add    rsp,0x18
ffffffff800058a0:	31 c0                	xor    eax,eax
ffffffff800058a2:	5b                   	pop    rbx
ffffffff800058a3:	41 5c                	pop    r12
ffffffff800058a5:	41 5d                	pop    r13
ffffffff800058a7:	41 5e                	pop    r14
ffffffff800058a9:	41 5f                	pop    r15
ffffffff800058ab:	5d                   	pop    rbp
ffffffff800058ac:	c3                   	ret
ffffffff800058ad:	66 2e 0f 1f 84 00 00 	cs nop WORD PTR [rax+rax*1+0x0]
ffffffff800058b4:	00 00 00 
ffffffff800058b7:	66 0f 1f 84 00 00 00 	nop    WORD PTR [rax+rax*1+0x0]
ffffffff800058be:	00 00 

ffffffff800058c0 <pmm_alloc_pages>:
ffffffff800058c0:	31 c0                	xor    eax,eax
ffffffff800058c2:	48 85 ff             	test   rdi,rdi
ffffffff800058c5:	0f 84 fd 00 00 00    	je     ffffffff800059c8 <pmm_alloc_pages+0x108>
ffffffff800058cb:	55                   	push   rbp
ffffffff800058cc:	48 89 e5             	mov    rbp,rsp
ffffffff800058cf:	41 56                	push   r14
ffffffff800058d1:	41 54                	push   r12
ffffffff800058d3:	53                   	push   rbx
ffffffff800058d4:	48 89 fb             	mov    rbx,rdi
ffffffff800058d7:	48 83 ec 08          	sub    rsp,0x8
ffffffff800058db:	48 8b 05 ae 5b 00 00 	mov    rax,QWORD PTR [rip+0x5bae]        # ffffffff8000b490 <bitmap_head>
ffffffff800058e2:	4c 8b 35 7f a7 ff ff 	mov    r14,QWORD PTR [rip+0xffffffffffffa77f]        # ffffffff80000068 <hhdm_request+0x28>
ffffffff800058e9:	48 85 c0             	test   rax,rax
ffffffff800058ec:	75 1e                	jne    ffffffff8000590c <pmm_alloc_pages+0x4c>
ffffffff800058ee:	e9 dd 00 00 00       	jmp    ffffffff800059d0 <pmm_alloc_pages+0x110>
ffffffff800058f3:	66 90                	xchg   ax,ax
ffffffff800058f5:	66 66 2e 0f 1f 84 00 	data16 cs nop WORD PTR [rax+rax*1+0x0]
ffffffff800058fc:	00 00 00 00 
ffffffff80005900:	48 8b 00             	mov    rax,QWORD PTR [rax]
ffffffff80005903:	48 85 c0             	test   rax,rax
ffffffff80005906:	0f 84 c4 00 00 00    	je     ffffffff800059d0 <pmm_alloc_pages+0x110>
ffffffff8000590c:	4c 8b 60 08          	mov    r12,QWORD PTR [rax+0x8]
ffffffff80005910:	49 39 dc             	cmp    r12,rbx
ffffffff80005913:	72 eb                	jb     ffffffff80005900 <pmm_alloc_pages+0x40>
ffffffff80005915:	4c 8b 50 10          	mov    r10,QWORD PTR [rax+0x10]
ffffffff80005919:	4d 85 d2             	test   r10,r10
ffffffff8000591c:	74 e2                	je     ffffffff80005900 <pmm_alloc_pages+0x40>
ffffffff8000591e:	31 ff                	xor    edi,edi
ffffffff80005920:	45 31 c0             	xor    r8d,r8d
ffffffff80005923:	31 f6                	xor    esi,esi
ffffffff80005925:	eb 22                	jmp    ffffffff80005949 <pmm_alloc_pages+0x89>
ffffffff80005927:	66 0f 1f 84 00 00 00 	nop    WORD PTR [rax+rax*1+0x0]
ffffffff8000592e:	00 00 
ffffffff80005930:	4d 85 c0             	test   r8,r8
ffffffff80005933:	48 0f 44 fe          	cmove  rdi,rsi
ffffffff80005937:	49 83 c0 01          	add    r8,0x1
ffffffff8000593b:	4c 39 c3             	cmp    rbx,r8
ffffffff8000593e:	74 30                	je     ffffffff80005970 <pmm_alloc_pages+0xb0>
ffffffff80005940:	48 83 c6 01          	add    rsi,0x1
ffffffff80005944:	4c 39 d6             	cmp    rsi,r10
ffffffff80005947:	74 b7                	je     ffffffff80005900 <pmm_alloc_pages+0x40>
ffffffff80005949:	89 f1                	mov    ecx,esi
ffffffff8000594b:	49 89 f1             	mov    r9,rsi
ffffffff8000594e:	ba 01 00 00 00       	mov    edx,0x1
ffffffff80005953:	83 e1 07             	and    ecx,0x7
ffffffff80005956:	49 c1 e9 03          	shr    r9,0x3
ffffffff8000595a:	d3 e2                	shl    edx,cl
ffffffff8000595c:	48 63 d2             	movsxd rdx,edx
ffffffff8000595f:	4a 23 54 c8 18       	and    rdx,QWORD PTR [rax+r9*8+0x18]
ffffffff80005964:	74 ca                	je     ffffffff80005930 <pmm_alloc_pages+0x70>
ffffffff80005966:	45 31 c0             	xor    r8d,r8d
ffffffff80005969:	eb d5                	jmp    ffffffff80005940 <pmm_alloc_pages+0x80>
ffffffff8000596b:	0f 1f 44 00 00       	nop    DWORD PTR [rax+rax*1+0x0]
ffffffff80005970:	49 89 f8             	mov    r8,rdi
ffffffff80005973:	48 85 ff             	test   rdi,rdi
ffffffff80005976:	78 88                	js     ffffffff80005900 <pmm_alloc_pages+0x40>
ffffffff80005978:	4c 8d 14 3b          	lea    r10,[rbx+rdi*1]
ffffffff8000597c:	0f 1f 40 00          	nop    DWORD PTR [rax+0x0]
ffffffff80005980:	89 f9                	mov    ecx,edi
ffffffff80005982:	48 89 fe             	mov    rsi,rdi
ffffffff80005985:	ba 01 00 00 00       	mov    edx,0x1
ffffffff8000598a:	48 83 c7 01          	add    rdi,0x1
ffffffff8000598e:	83 e1 07             	and    ecx,0x7
ffffffff80005991:	48 c1 ee 03          	shr    rsi,0x3
ffffffff80005995:	d3 e2                	shl    edx,cl
ffffffff80005997:	48 63 d2             	movsxd rdx,edx
ffffffff8000599a:	48 09 54 f0 18       	or     QWORD PTR [rax+rsi*8+0x18],rdx
ffffffff8000599f:	49 39 fa             	cmp    r10,rdi
ffffffff800059a2:	75 dc                	jne    ffffffff80005980 <pmm_alloc_pages+0xc0>
ffffffff800059a4:	49 29 dc             	sub    r12,rbx
ffffffff800059a7:	49 c1 e0 0c          	shl    r8,0xc
ffffffff800059ab:	4c 89 60 08          	mov    QWORD PTR [rax+0x8],r12
ffffffff800059af:	49 2b 46 08          	sub    rax,QWORD PTR [r14+0x8]
ffffffff800059b3:	48 83 c4 08          	add    rsp,0x8
ffffffff800059b7:	5b                   	pop    rbx
ffffffff800059b8:	4c 01 c0             	add    rax,r8
ffffffff800059bb:	41 5c                	pop    r12
ffffffff800059bd:	41 5e                	pop    r14
ffffffff800059bf:	5d                   	pop    rbp
ffffffff800059c0:	c3                   	ret
ffffffff800059c1:	0f 1f 80 00 00 00 00 	nop    DWORD PTR [rax+0x0]
ffffffff800059c8:	c3                   	ret
ffffffff800059c9:	0f 1f 80 00 00 00 00 	nop    DWORD PTR [rax+0x0]
ffffffff800059d0:	31 ff                	xor    edi,edi
ffffffff800059d2:	e8 69 ee ff ff       	call   ffffffff80004840 <status_print_error>
ffffffff800059d7:	48 83 c4 08          	add    rsp,0x8
ffffffff800059db:	5b                   	pop    rbx
ffffffff800059dc:	89 c0                	mov    eax,eax
ffffffff800059de:	41 5c                	pop    r12
ffffffff800059e0:	41 5e                	pop    r14
ffffffff800059e2:	5d                   	pop    rbp
ffffffff800059e3:	c3                   	ret
ffffffff800059e4:	66 2e 0f 1f 84 00 00 	cs nop WORD PTR [rax+rax*1+0x0]
ffffffff800059eb:	00 00 00 
ffffffff800059ee:	66 2e 0f 1f 84 00 00 	cs nop WORD PTR [rax+rax*1+0x0]
ffffffff800059f5:	00 00 00 
ffffffff800059f8:	0f 1f 84 00 00 00 00 	nop    DWORD PTR [rax+rax*1+0x0]
ffffffff800059ff:	00 

ffffffff80005a00 <pmm_free_pages>:
ffffffff80005a00:	48 8b 05 89 5a 00 00 	mov    rax,QWORD PTR [rip+0x5a89]        # ffffffff8000b490 <bitmap_head>
ffffffff80005a07:	49 89 f8             	mov    r8,rdi
ffffffff80005a0a:	48 89 f7             	mov    rdi,rsi
ffffffff80005a0d:	48 85 c0             	test   rax,rax
ffffffff80005a10:	75 3a                	jne    ffffffff80005a4c <pmm_free_pages+0x4c>
ffffffff80005a12:	c3                   	ret
ffffffff80005a13:	90                   	nop
ffffffff80005a14:	66 66 2e 0f 1f 84 00 	data16 cs nop WORD PTR [rax+rax*1+0x0]
ffffffff80005a1b:	00 00 00 00 
ffffffff80005a1f:	66 66 2e 0f 1f 84 00 	data16 cs nop WORD PTR [rax+rax*1+0x0]
ffffffff80005a26:	00 00 00 00 
ffffffff80005a2a:	66 66 2e 0f 1f 84 00 	data16 cs nop WORD PTR [rax+rax*1+0x0]
ffffffff80005a31:	00 00 00 00 
ffffffff80005a35:	66 66 2e 0f 1f 84 00 	data16 cs nop WORD PTR [rax+rax*1+0x0]
ffffffff80005a3c:	00 00 00 00 
ffffffff80005a40:	48 8b 00             	mov    rax,QWORD PTR [rax]
ffffffff80005a43:	48 85 c0             	test   rax,rax
ffffffff80005a46:	0f 84 a4 00 00 00    	je     ffffffff80005af0 <pmm_free_pages+0xf0>
ffffffff80005a4c:	48 8b 15 15 a6 ff ff 	mov    rdx,QWORD PTR [rip+0xffffffffffffa615]        # ffffffff80000068 <hhdm_request+0x28>
ffffffff80005a53:	48 89 c6             	mov    rsi,rax
ffffffff80005a56:	48 8b 4a 08          	mov    rcx,QWORD PTR [rdx+0x8]
ffffffff80005a5a:	48 8b 50 10          	mov    rdx,QWORD PTR [rax+0x10]
ffffffff80005a5e:	48 29 ce             	sub    rsi,rcx
ffffffff80005a61:	48 c1 e2 0c          	shl    rdx,0xc
ffffffff80005a65:	48 01 f2             	add    rdx,rsi
ffffffff80005a68:	49 39 d0             	cmp    r8,rdx
ffffffff80005a6b:	73 d3                	jae    ffffffff80005a40 <pmm_free_pages+0x40>
ffffffff80005a6d:	49 39 f0             	cmp    r8,rsi
ffffffff80005a70:	72 ce                	jb     ffffffff80005a40 <pmm_free_pages+0x40>
ffffffff80005a72:	48 85 ff             	test   rdi,rdi
ffffffff80005a75:	74 74                	je     ffffffff80005aeb <pmm_free_pages+0xeb>
ffffffff80005a77:	4a 8d 14 01          	lea    rdx,[rcx+r8*1]
ffffffff80005a7b:	48 29 c2             	sub    rdx,rax
ffffffff80005a7e:	48 c1 ea 0c          	shr    rdx,0xc
ffffffff80005a82:	4c 8d 0c 3a          	lea    r9,[rdx+rdi*1]
ffffffff80005a86:	0f 1f 00             	nop    DWORD PTR [rax]
ffffffff80005a89:	66 66 2e 0f 1f 84 00 	data16 cs nop WORD PTR [rax+rax*1+0x0]
ffffffff80005a90:	00 00 00 00 
ffffffff80005a94:	66 66 2e 0f 1f 84 00 	data16 cs nop WORD PTR [rax+rax*1+0x0]
ffffffff80005a9b:	00 00 00 00 
ffffffff80005a9f:	66 66 2e 0f 1f 84 00 	data16 cs nop WORD PTR [rax+rax*1+0x0]
ffffffff80005aa6:	00 00 00 00 
ffffffff80005aaa:	66 66 2e 0f 1f 84 00 	data16 cs nop WORD PTR [rax+rax*1+0x0]
ffffffff80005ab1:	00 00 00 00 
ffffffff80005ab5:	66 66 2e 0f 1f 84 00 	data16 cs nop WORD PTR [rax+rax*1+0x0]
ffffffff80005abc:	00 00 00 00 
ffffffff80005ac0:	89 d1                	mov    ecx,edx
ffffffff80005ac2:	41 ba 01 00 00 00    	mov    r10d,0x1
ffffffff80005ac8:	48 89 d6             	mov    rsi,rdx
ffffffff80005acb:	48 83 c2 01          	add    rdx,0x1
ffffffff80005acf:	83 e1 07             	and    ecx,0x7
ffffffff80005ad2:	48 c1 ee 03          	shr    rsi,0x3
ffffffff80005ad6:	41 d3 e2             	shl    r10d,cl
ffffffff80005ad9:	44 89 d1             	mov    ecx,r10d
ffffffff80005adc:	f7 d1                	not    ecx
ffffffff80005ade:	48 63 c9             	movsxd rcx,ecx
ffffffff80005ae1:	48 21 4c f0 18       	and    QWORD PTR [rax+rsi*8+0x18],rcx
ffffffff80005ae6:	49 39 d1             	cmp    r9,rdx
ffffffff80005ae9:	75 d5                	jne    ffffffff80005ac0 <pmm_free_pages+0xc0>
ffffffff80005aeb:	48 01 78 08          	add    QWORD PTR [rax+0x8],rdi
ffffffff80005aef:	c3                   	ret
ffffffff80005af0:	c3                   	ret
ffffffff80005af1:	66 2e 0f 1f 84 00 00 	cs nop WORD PTR [rax+rax*1+0x0]
ffffffff80005af8:	00 00 00 
ffffffff80005afb:	0f 1f 44 00 00       	nop    DWORD PTR [rax+rax*1+0x0]

ffffffff80005b00 <syscall_dispatch>:
ffffffff80005b00:	48 8b 47 70          	mov    rax,QWORD PTR [rdi+0x70]
ffffffff80005b04:	4c 8b 57 48          	mov    r10,QWORD PTR [rdi+0x48]
ffffffff80005b08:	48 8b 4f 28          	mov    rcx,QWORD PTR [rdi+0x28]
ffffffff80005b0c:	48 8b 57 58          	mov    rdx,QWORD PTR [rdi+0x58]
ffffffff80005b10:	48 8b 77 50          	mov    rsi,QWORD PTR [rdi+0x50]
ffffffff80005b14:	4c 8b 4f 30          	mov    r9,QWORD PTR [rdi+0x30]
ffffffff80005b18:	4c 8b 47 38          	mov    r8,QWORD PTR [rdi+0x38]
ffffffff80005b1c:	48 8b 04 c5 20 b0 00 	mov    rax,QWORD PTR [rax*8-0x7fff4fe0]
ffffffff80005b23:	80 
ffffffff80005b24:	4c 89 d7             	mov    rdi,r10
ffffffff80005b27:	ff e0                	jmp    rax
ffffffff80005b29:	0f 1f 80 00 00 00 00 	nop    DWORD PTR [rax+0x0]

ffffffff80005b30 <sys_write>:
ffffffff80005b30:	48 85 f6             	test   rsi,rsi
ffffffff80005b33:	0f 84 9f 00 00 00    	je     ffffffff80005bd8 <sys_write+0xa8>
ffffffff80005b39:	48 85 d2             	test   rdx,rdx
ffffffff80005b3c:	0f 84 96 00 00 00    	je     ffffffff80005bd8 <sys_write+0xa8>
ffffffff80005b42:	48 83 ef 01          	sub    rdi,0x1
ffffffff80005b46:	48 83 ff 01          	cmp    rdi,0x1
ffffffff80005b4a:	76 0c                	jbe    ffffffff80005b58 <sys_write+0x28>
ffffffff80005b4c:	48 c7 c0 ff ff ff ff 	mov    rax,0xffffffffffffffff
ffffffff80005b53:	c3                   	ret
ffffffff80005b54:	0f 1f 40 00          	nop    DWORD PTR [rax+0x0]
ffffffff80005b58:	55                   	push   rbp
ffffffff80005b59:	48 c7 c7 ea 85 00 80 	mov    rdi,0xffffffff800085ea
ffffffff80005b60:	48 89 e5             	mov    rbp,rsp
ffffffff80005b63:	41 56                	push   r14
ffffffff80005b65:	49 89 f6             	mov    r14,rsi
ffffffff80005b68:	53                   	push   rbx
ffffffff80005b69:	48 89 d3             	mov    rbx,rdx
ffffffff80005b6c:	48 83 ec 10          	sub    rsp,0x10
ffffffff80005b70:	e8 0b eb ff ff       	call   ffffffff80004680 <device_get_by_name>
ffffffff80005b75:	48 85 c0             	test   rax,rax
ffffffff80005b78:	74 66                	je     ffffffff80005be0 <sys_write+0xb0>
ffffffff80005b7a:	48 83 78 10 00       	cmp    QWORD PTR [rax+0x10],0x0
ffffffff80005b7f:	74 5f                	je     ffffffff80005be0 <sys_write+0xb0>
ffffffff80005b81:	48 89 df             	mov    rdi,rbx
ffffffff80005b84:	48 89 45 e8          	mov    QWORD PTR [rbp-0x18],rax
ffffffff80005b88:	e8 73 fb ff ff       	call   ffffffff80005700 <kmalloc>
ffffffff80005b8d:	48 85 c0             	test   rax,rax
ffffffff80005b90:	74 4e                	je     ffffffff80005be0 <sys_write+0xb0>
ffffffff80005b92:	48 89 da             	mov    rdx,rbx
ffffffff80005b95:	4c 89 f6             	mov    rsi,r14
ffffffff80005b98:	48 89 c7             	mov    rdi,rax
ffffffff80005b9b:	48 89 45 e0          	mov    QWORD PTR [rbp-0x20],rax
ffffffff80005b9f:	e8 1c 16 00 00       	call   ffffffff800071c0 <memcpy>
ffffffff80005ba4:	48 8b 4d e8          	mov    rcx,QWORD PTR [rbp-0x18]
ffffffff80005ba8:	48 8b 75 e0          	mov    rsi,QWORD PTR [rbp-0x20]
ffffffff80005bac:	48 89 da             	mov    rdx,rbx
ffffffff80005baf:	48 89 cf             	mov    rdi,rcx
ffffffff80005bb2:	ff 51 10             	call   QWORD PTR [rcx+0x10]
ffffffff80005bb5:	48 8b 7d e0          	mov    rdi,QWORD PTR [rbp-0x20]
ffffffff80005bb9:	48 89 de             	mov    rsi,rbx
ffffffff80005bbc:	48 98                	cdqe
ffffffff80005bbe:	48 89 45 e8          	mov    QWORD PTR [rbp-0x18],rax
ffffffff80005bc2:	e8 69 fb ff ff       	call   ffffffff80005730 <kfree>
ffffffff80005bc7:	48 8b 45 e8          	mov    rax,QWORD PTR [rbp-0x18]
ffffffff80005bcb:	48 83 c4 10          	add    rsp,0x10
ffffffff80005bcf:	5b                   	pop    rbx
ffffffff80005bd0:	41 5e                	pop    r14
ffffffff80005bd2:	5d                   	pop    rbp
ffffffff80005bd3:	c3                   	ret
ffffffff80005bd4:	0f 1f 40 00          	nop    DWORD PTR [rax+0x0]
ffffffff80005bd8:	31 c0                	xor    eax,eax
ffffffff80005bda:	c3                   	ret
ffffffff80005bdb:	0f 1f 44 00 00       	nop    DWORD PTR [rax+rax*1+0x0]
ffffffff80005be0:	48 83 c4 10          	add    rsp,0x10
ffffffff80005be4:	48 c7 c0 ff ff ff ff 	mov    rax,0xffffffffffffffff
ffffffff80005beb:	5b                   	pop    rbx
ffffffff80005bec:	41 5e                	pop    r14
ffffffff80005bee:	5d                   	pop    rbp
ffffffff80005bef:	c3                   	ret

ffffffff80005bf0 <sys_exit>:
ffffffff80005bf0:	e9 9b f0 ff ff       	jmp    ffffffff80004c90 <exit>
ffffffff80005bf5:	66 2e 0f 1f 84 00 00 	cs nop WORD PTR [rax+rax*1+0x0]
ffffffff80005bfc:	00 00 00 
ffffffff80005bff:	90                   	nop

ffffffff80005c00 <sys_clear>:
ffffffff80005c00:	48 83 ef 01          	sub    rdi,0x1
ffffffff80005c04:	48 83 ff 01          	cmp    rdi,0x1
ffffffff80005c08:	76 0e                	jbe    ffffffff80005c18 <sys_clear+0x18>
ffffffff80005c0a:	48 c7 c0 ff ff ff ff 	mov    rax,0xffffffffffffffff
ffffffff80005c11:	c3                   	ret
ffffffff80005c12:	66 0f 1f 44 00 00    	nop    WORD PTR [rax+rax*1+0x0]
ffffffff80005c18:	55                   	push   rbp
ffffffff80005c19:	48 c7 c7 ea 85 00 80 	mov    rdi,0xffffffff800085ea
ffffffff80005c20:	48 89 e5             	mov    rbp,rsp
ffffffff80005c23:	e8 58 ea ff ff       	call   ffffffff80004680 <device_get_by_name>
ffffffff80005c28:	48 8b 78 20          	mov    rdi,QWORD PTR [rax+0x20]
ffffffff80005c2c:	48 8b 87 58 08 00 00 	mov    rax,QWORD PTR [rdi+0x858]
ffffffff80005c33:	ff 50 10             	call   QWORD PTR [rax+0x10]
ffffffff80005c36:	31 c0                	xor    eax,eax
ffffffff80005c38:	5d                   	pop    rbp
ffffffff80005c39:	c3                   	ret
ffffffff80005c3a:	66 0f 1f 44 00 00    	nop    WORD PTR [rax+rax*1+0x0]

ffffffff80005c40 <sys_yield>:
ffffffff80005c40:	e9 db f1 ff ff       	jmp    ffffffff80004e20 <sched_yield>
ffffffff80005c45:	66 2e 0f 1f 84 00 00 	cs nop WORD PTR [rax+rax*1+0x0]
ffffffff80005c4c:	00 00 00 
ffffffff80005c4f:	90                   	nop

ffffffff80005c50 <sys_read>:
ffffffff80005c50:	48 85 f6             	test   rsi,rsi
ffffffff80005c53:	74 5b                	je     ffffffff80005cb0 <sys_read+0x60>
ffffffff80005c55:	48 85 d2             	test   rdx,rdx
ffffffff80005c58:	74 56                	je     ffffffff80005cb0 <sys_read+0x60>
ffffffff80005c5a:	48 85 ff             	test   rdi,rdi
ffffffff80005c5d:	74 11                	je     ffffffff80005c70 <sys_read+0x20>
ffffffff80005c5f:	48 c7 c0 ff ff ff ff 	mov    rax,0xffffffffffffffff
ffffffff80005c66:	c3                   	ret
ffffffff80005c67:	66 0f 1f 84 00 00 00 	nop    WORD PTR [rax+rax*1+0x0]
ffffffff80005c6e:	00 00 
ffffffff80005c70:	55                   	push   rbp
ffffffff80005c71:	48 c7 c7 ea 85 00 80 	mov    rdi,0xffffffff800085ea
ffffffff80005c78:	48 89 e5             	mov    rbp,rsp
ffffffff80005c7b:	41 56                	push   r14
ffffffff80005c7d:	49 89 d6             	mov    r14,rdx
ffffffff80005c80:	53                   	push   rbx
ffffffff80005c81:	48 89 f3             	mov    rbx,rsi
ffffffff80005c84:	e8 f7 e9 ff ff       	call   ffffffff80004680 <device_get_by_name>
ffffffff80005c89:	48 85 c0             	test   rax,rax
ffffffff80005c8c:	74 2a                	je     ffffffff80005cb8 <sys_read+0x68>
ffffffff80005c8e:	48 8b 48 08          	mov    rcx,QWORD PTR [rax+0x8]
ffffffff80005c92:	48 85 c9             	test   rcx,rcx
ffffffff80005c95:	74 21                	je     ffffffff80005cb8 <sys_read+0x68>
ffffffff80005c97:	4c 89 f2             	mov    rdx,r14
ffffffff80005c9a:	48 89 de             	mov    rsi,rbx
ffffffff80005c9d:	48 89 c7             	mov    rdi,rax
ffffffff80005ca0:	5b                   	pop    rbx
ffffffff80005ca1:	41 5e                	pop    r14
ffffffff80005ca3:	5d                   	pop    rbp
ffffffff80005ca4:	ff e1                	jmp    rcx
ffffffff80005ca6:	66 2e 0f 1f 84 00 00 	cs nop WORD PTR [rax+rax*1+0x0]
ffffffff80005cad:	00 00 00 
ffffffff80005cb0:	31 c0                	xor    eax,eax
ffffffff80005cb2:	c3                   	ret
ffffffff80005cb3:	0f 1f 44 00 00       	nop    DWORD PTR [rax+rax*1+0x0]
ffffffff80005cb8:	5b                   	pop    rbx
ffffffff80005cb9:	48 c7 c0 ff ff ff ff 	mov    rax,0xffffffffffffffff
ffffffff80005cc0:	41 5e                	pop    r14
ffffffff80005cc2:	5d                   	pop    rbp
ffffffff80005cc3:	c3                   	ret
ffffffff80005cc4:	66 2e 0f 1f 84 00 00 	cs nop WORD PTR [rax+rax*1+0x0]
ffffffff80005ccb:	00 00 00 
ffffffff80005cce:	66 90                	xchg   ax,ax

ffffffff80005cd0 <console_set>:
ffffffff80005cd0:	48 89 3d c1 57 00 00 	mov    QWORD PTR [rip+0x57c1],rdi        # ffffffff8000b498 <active_console>
ffffffff80005cd7:	c3                   	ret
ffffffff80005cd8:	0f 1f 84 00 00 00 00 	nop    DWORD PTR [rax+rax*1+0x0]
ffffffff80005cdf:	00 

ffffffff80005ce0 <console_get_active_console>:
ffffffff80005ce0:	48 8b 05 b1 57 00 00 	mov    rax,QWORD PTR [rip+0x57b1]        # ffffffff8000b498 <active_console>
ffffffff80005ce7:	c3                   	ret
ffffffff80005ce8:	66 2e 0f 1f 84 00 00 	cs nop WORD PTR [rax+rax*1+0x0]
ffffffff80005cef:	00 00 00 
ffffffff80005cf2:	66 2e 0f 1f 84 00 00 	cs nop WORD PTR [rax+rax*1+0x0]
ffffffff80005cf9:	00 00 00 
ffffffff80005cfc:	0f 1f 40 00          	nop    DWORD PTR [rax+0x0]

ffffffff80005d00 <idt_init>:
ffffffff80005d00:	41 b8 ff 0f 00 00    	mov    r8d,0xfff
ffffffff80005d06:	48 c7 c6 68 69 00 80 	mov    rsi,0xffffffff80006968
ffffffff80005d0d:	48 c7 05 8a 57 00 00 	mov    QWORD PTR [rip+0x578a],0xffffffff8000b4b0        # ffffffff8000b4a2 <idt_ptr+0x2>
ffffffff80005d14:	b0 b4 00 80 
ffffffff80005d18:	48 c7 c1 b0 b6 00 80 	mov    rcx,0xffffffff8000b6b0
ffffffff80005d1f:	66 44 89 05 79 57 00 	mov    WORD PTR [rip+0x5779],r8w        # ffffffff8000b4a0 <idt_ptr>
ffffffff80005d26:	00 
ffffffff80005d27:	44 0f b7 05 31 45 00 	movzx  r8d,WORD PTR [rip+0x4531]        # ffffffff8000a260 <names.0+0x100>
ffffffff80005d2e:	00 
ffffffff80005d2f:	48 c7 c0 b0 b4 00 80 	mov    rax,0xffffffff8000b4b0
ffffffff80005d36:	66 2e 0f 1f 84 00 00 	cs nop WORD PTR [rax+rax*1+0x0]
ffffffff80005d3d:	00 00 00 
ffffffff80005d40:	48 8b 16             	mov    rdx,QWORD PTR [rsi]
ffffffff80005d43:	bf 08 00 00 00       	mov    edi,0x8
ffffffff80005d48:	48 83 c0 10          	add    rax,0x10
ffffffff80005d4c:	48 83 c6 08          	add    rsi,0x8
ffffffff80005d50:	66 89 78 f2          	mov    WORD PTR [rax-0xe],di
ffffffff80005d54:	48 89 d7             	mov    rdi,rdx
ffffffff80005d57:	66 89 50 f0          	mov    WORD PTR [rax-0x10],dx
ffffffff80005d5b:	48 c1 ea 20          	shr    rdx,0x20
ffffffff80005d5f:	48 c1 ef 10          	shr    rdi,0x10
ffffffff80005d63:	66 44 89 40 f4       	mov    WORD PTR [rax-0xc],r8w
ffffffff80005d68:	66 89 78 f6          	mov    WORD PTR [rax-0xa],di
ffffffff80005d6c:	89 50 f8             	mov    DWORD PTR [rax-0x8],edx
ffffffff80005d6f:	c7 40 fc 00 00 00 00 	mov    DWORD PTR [rax-0x4],0x0
ffffffff80005d76:	48 3d b0 b6 00 80    	cmp    rax,0xffffffff8000b6b0
ffffffff80005d7c:	75 c2                	jne    ffffffff80005d40 <idt_init+0x40>
ffffffff80005d7e:	48 c7 c2 e8 6e 00 80 	mov    rdx,0xffffffff80006ee8
ffffffff80005d85:	48 c7 c7 b0 b7 00 80 	mov    rdi,0xffffffff8000b7b0
ffffffff80005d8c:	0f 1f 84 00 00 00 00 	nop    DWORD PTR [rax+rax*1+0x0]
ffffffff80005d93:	00 
ffffffff80005d94:	66 66 2e 0f 1f 84 00 	data16 cs nop WORD PTR [rax+rax*1+0x0]
ffffffff80005d9b:	00 00 00 00 
ffffffff80005d9f:	66 66 2e 0f 1f 84 00 	data16 cs nop WORD PTR [rax+rax*1+0x0]
ffffffff80005da6:	00 00 00 00 
ffffffff80005daa:	66 66 2e 0f 1f 84 00 	data16 cs nop WORD PTR [rax+rax*1+0x0]
ffffffff80005db1:	00 00 00 00 
ffffffff80005db5:	66 66 2e 0f 1f 84 00 	data16 cs nop WORD PTR [rax+rax*1+0x0]
ffffffff80005dbc:	00 00 00 00 
ffffffff80005dc0:	48 8b 02             	mov    rax,QWORD PTR [rdx]
ffffffff80005dc3:	be 08 00 00 00       	mov    esi,0x8
ffffffff80005dc8:	48 83 c1 10          	add    rcx,0x10
ffffffff80005dcc:	48 83 c2 08          	add    rdx,0x8
ffffffff80005dd0:	66 89 71 f2          	mov    WORD PTR [rcx-0xe],si
ffffffff80005dd4:	48 89 c6             	mov    rsi,rax
ffffffff80005dd7:	66 89 41 f0          	mov    WORD PTR [rcx-0x10],ax
ffffffff80005ddb:	48 c1 e8 20          	shr    rax,0x20
ffffffff80005ddf:	48 c1 ee 10          	shr    rsi,0x10
ffffffff80005de3:	66 44 89 41 f4       	mov    WORD PTR [rcx-0xc],r8w
ffffffff80005de8:	66 89 71 f6          	mov    WORD PTR [rcx-0xa],si
ffffffff80005dec:	89 41 f8             	mov    DWORD PTR [rcx-0x8],eax
ffffffff80005def:	c7 41 fc 00 00 00 00 	mov    DWORD PTR [rcx-0x4],0x0
ffffffff80005df6:	48 39 cf             	cmp    rdi,rcx
ffffffff80005df9:	75 c5                	jne    ffffffff80005dc0 <idt_init+0xc0>
ffffffff80005dfb:	48 c7 c0 68 6f 00 80 	mov    rax,0xffffffff80006f68
ffffffff80005e02:	c7 05 a6 5e 00 00 08 	mov    DWORD PTR [rip+0x5ea6],0xef000008        # ffffffff8000bcb2 <idt+0x802>
ffffffff80005e09:	00 00 ef 
ffffffff80005e0c:	48 89 c2             	mov    rdx,rax
ffffffff80005e0f:	66 89 05 9a 5e 00 00 	mov    WORD PTR [rip+0x5e9a],ax        # ffffffff8000bcb0 <idt+0x800>
ffffffff80005e16:	48 c1 e8 20          	shr    rax,0x20
ffffffff80005e1a:	48 c1 ea 10          	shr    rdx,0x10
ffffffff80005e1e:	89 05 94 5e 00 00    	mov    DWORD PTR [rip+0x5e94],eax        # ffffffff8000bcb8 <idt+0x808>
ffffffff80005e24:	66 89 15 8b 5e 00 00 	mov    WORD PTR [rip+0x5e8b],dx        # ffffffff8000bcb6 <idt+0x806>
ffffffff80005e2b:	c7 05 87 5e 00 00 00 	mov    DWORD PTR [rip+0x5e87],0x0        # ffffffff8000bcbc <idt+0x80c>
ffffffff80005e32:	00 00 00 
ffffffff80005e35:	0f 01 1d 64 56 00 00 	lidt   [rip+0x5664]        # ffffffff8000b4a0 <idt_ptr>
ffffffff80005e3c:	48 c7 c6 b0 b4 00 80 	mov    rsi,0xffffffff8000b4b0
ffffffff80005e43:	48 c7 c7 f0 9e 00 80 	mov    rdi,0xffffffff80009ef0
ffffffff80005e4a:	31 c0                	xor    eax,eax
ffffffff80005e4c:	e9 1f b6 ff ff       	jmp    ffffffff80001470 <serial_printf>
ffffffff80005e51:	66 2e 0f 1f 84 00 00 	cs nop WORD PTR [rax+rax*1+0x0]
ffffffff80005e58:	00 00 00 
ffffffff80005e5b:	0f 1f 44 00 00       	nop    DWORD PTR [rax+rax*1+0x0]

ffffffff80005e60 <tss_init>:
ffffffff80005e60:	c7 05 1a 53 00 00 00 	mov    DWORD PTR [rip+0x531a],0x0        # ffffffff8000b184 <gdt+0x44>
ffffffff80005e67:	00 00 00 
ffffffff80005e6a:	b8 67 00 00 00       	mov    eax,0x67
ffffffff80005e6f:	66 89 05 02 53 00 00 	mov    WORD PTR [rip+0x5302],ax        # ffffffff8000b178 <gdt+0x38>
ffffffff80005e76:	48 c7 c0 c0 c4 00 80 	mov    rax,0xffffffff8000c4c0
ffffffff80005e7d:	48 89 c2             	mov    rdx,rax
ffffffff80005e80:	66 89 05 f3 52 00 00 	mov    WORD PTR [rip+0x52f3],ax        # ffffffff8000b17a <gdt+0x3a>
ffffffff80005e87:	48 c1 ea 10          	shr    rdx,0x10
ffffffff80005e8b:	88 15 eb 52 00 00    	mov    BYTE PTR [rip+0x52eb],dl        # ffffffff8000b17c <gdt+0x3c>
ffffffff80005e91:	48 89 c2             	mov    rdx,rax
ffffffff80005e94:	48 c1 e8 20          	shr    rax,0x20
ffffffff80005e98:	48 c1 ea 18          	shr    rdx,0x18
ffffffff80005e9c:	89 05 de 52 00 00    	mov    DWORD PTR [rip+0x52de],eax        # ffffffff8000b180 <gdt+0x40>
ffffffff80005ea2:	b8 38 00 00 00       	mov    eax,0x38
ffffffff80005ea7:	88 15 d2 52 00 00    	mov    BYTE PTR [rip+0x52d2],dl        # ffffffff8000b17f <gdt+0x3f>
ffffffff80005ead:	ba 89 20 00 00       	mov    edx,0x2089
ffffffff80005eb2:	66 89 15 c4 52 00 00 	mov    WORD PTR [rip+0x52c4],dx        # ffffffff8000b17d <gdt+0x3d>
ffffffff80005eb9:	0f 00 d8             	ltr    eax
ffffffff80005ebc:	c3                   	ret
ffffffff80005ebd:	0f 1f 00             	nop    DWORD PTR [rax]

ffffffff80005ec0 <initrd_load>:
ffffffff80005ec0:	48 8b 05 61 a2 ff ff 	mov    rax,QWORD PTR [rip+0xffffffffffffa261]        # ffffffff80000128 <module_request+0x28>
ffffffff80005ec7:	48 85 c0             	test   rax,rax
ffffffff80005eca:	74 0e                	je     ffffffff80005eda <initrd_load+0x1a>
ffffffff80005ecc:	48 8b 05 55 a2 ff ff 	mov    rax,QWORD PTR [rip+0xffffffffffffa255]        # ffffffff80000128 <module_request+0x28>
ffffffff80005ed3:	48 83 78 08 00       	cmp    QWORD PTR [rax+0x8],0x0
ffffffff80005ed8:	75 16                	jne    ffffffff80005ef0 <initrd_load+0x30>
ffffffff80005eda:	48 c7 c7 48 9f 00 80 	mov    rdi,0xffffffff80009f48
ffffffff80005ee1:	31 c0                	xor    eax,eax
ffffffff80005ee3:	e9 88 b5 ff ff       	jmp    ffffffff80001470 <serial_printf>
ffffffff80005ee8:	0f 1f 84 00 00 00 00 	nop    DWORD PTR [rax+rax*1+0x0]
ffffffff80005eef:	00 
ffffffff80005ef0:	48 8b 05 31 a2 ff ff 	mov    rax,QWORD PTR [rip+0xffffffffffffa231]        # ffffffff80000128 <module_request+0x28>
ffffffff80005ef7:	48 8b 40 10          	mov    rax,QWORD PTR [rax+0x10]
ffffffff80005efb:	48 8b 00             	mov    rax,QWORD PTR [rax]
ffffffff80005efe:	48 8b 70 10          	mov    rsi,QWORD PTR [rax+0x10]
ffffffff80005f02:	48 8b 78 08          	mov    rdi,QWORD PTR [rax+0x8]
ffffffff80005f06:	e9 95 ca ff ff       	jmp    ffffffff800029a0 <tar_extract>
ffffffff80005f0b:	0f 1f 44 00 00       	nop    DWORD PTR [rax+rax*1+0x0]

ffffffff80005f10 <load_elf_from_initrd>:
ffffffff80005f10:	55                   	push   rbp
ffffffff80005f11:	48 89 fe             	mov    rsi,rdi
ffffffff80005f14:	48 89 e5             	mov    rbp,rsp
ffffffff80005f17:	48 83 ec 40          	sub    rsp,0x40
ffffffff80005f1b:	48 8d 7d e0          	lea    rdi,[rbp-0x20]
ffffffff80005f1f:	48 c7 45 d0 00 00 00 	mov    QWORD PTR [rbp-0x30],0x0
ffffffff80005f26:	00 
ffffffff80005f27:	e8 b4 d2 ff ff       	call   ffffffff800031e0 <vfs_path_from_abs>
ffffffff80005f2c:	48 8d 7d e0          	lea    rdi,[rbp-0x20]
ffffffff80005f30:	48 8d 75 d0          	lea    rsi,[rbp-0x30]
ffffffff80005f34:	e8 97 d0 ff ff       	call   ffffffff80002fd0 <vfs_lookup>
ffffffff80005f39:	e8 a2 f6 ff ff       	call   ffffffff800055e0 <paging_create_address_space>
ffffffff80005f3e:	48 8b 7d d0          	mov    rdi,QWORD PTR [rbp-0x30]
ffffffff80005f42:	49 89 c0             	mov    r8,rax
ffffffff80005f45:	48 85 ff             	test   rdi,rdi
ffffffff80005f48:	74 14                	je     ffffffff80005f5e <load_elf_from_initrd+0x4e>
ffffffff80005f4a:	48 8d 55 d8          	lea    rdx,[rbp-0x28]
ffffffff80005f4e:	48 89 c6             	mov    rsi,rax
ffffffff80005f51:	48 89 45 c8          	mov    QWORD PTR [rbp-0x38],rax
ffffffff80005f55:	e8 86 d4 ff ff       	call   ffffffff800033e0 <elf_load>
ffffffff80005f5a:	4c 8b 45 c8          	mov    r8,QWORD PTR [rbp-0x38]
ffffffff80005f5e:	48 8b 75 d8          	mov    rsi,QWORD PTR [rbp-0x28]
ffffffff80005f62:	b9 23 00 00 00       	mov    ecx,0x23
ffffffff80005f67:	ba 1b 00 00 00       	mov    edx,0x1b
ffffffff80005f6c:	4c 89 c7             	mov    rdi,r8
ffffffff80005f6f:	e8 3c eb ff ff       	call   ffffffff80004ab0 <sched_create_task>
ffffffff80005f74:	c9                   	leave
ffffffff80005f75:	c3                   	ret
ffffffff80005f76:	66 2e 0f 1f 84 00 00 	cs nop WORD PTR [rax+rax*1+0x0]
ffffffff80005f7d:	00 00 00 

ffffffff80005f80 <kernel_self_test>:
ffffffff80005f80:	55                   	push   rbp
ffffffff80005f81:	48 89 e5             	mov    rbp,rsp
ffffffff80005f84:	e8 27 da ff ff       	call   ffffffff800039b0 <paging_test_self_test>
ffffffff80005f89:	e8 52 e3 ff ff       	call   ffffffff800042e0 <pmm_test_self_test>
ffffffff80005f8e:	e8 3d e1 ff ff       	call   ffffffff800040d0 <pit_test_self_test>
ffffffff80005f93:	e8 18 e2 ff ff       	call   ffffffff800041b0 <scheduler_test_self_test>
ffffffff80005f98:	e8 83 dd ff ff       	call   ffffffff80003d20 <vfs_test_self_test>
ffffffff80005f9d:	48 8b 05 b4 6e 00 00 	mov    rax,QWORD PTR [rip+0x6eb4]        # ffffffff8000ce58 <tty0+0x858>
ffffffff80005fa4:	48 c7 c7 00 c6 00 80 	mov    rdi,0xffffffff8000c600
ffffffff80005fab:	5d                   	pop    rbp
ffffffff80005fac:	48 8b 40 10          	mov    rax,QWORD PTR [rax+0x10]
ffffffff80005fb0:	ff e0                	jmp    rax
ffffffff80005fb2:	66 2e 0f 1f 84 00 00 	cs nop WORD PTR [rax+rax*1+0x0]
ffffffff80005fb9:	00 00 00 
ffffffff80005fbc:	0f 1f 40 00          	nop    DWORD PTR [rax+0x0]

ffffffff80005fc0 <console_init>:
ffffffff80005fc0:	55                   	push   rbp
ffffffff80005fc1:	31 c0                	xor    eax,eax
ffffffff80005fc3:	b9 08 00 00 00       	mov    ecx,0x8
ffffffff80005fc8:	48 89 e5             	mov    rbp,rsp
ffffffff80005fcb:	48 83 ec 40          	sub    rsp,0x40
ffffffff80005fcf:	48 8d 7d c0          	lea    rdi,[rbp-0x40]
ffffffff80005fd3:	f3 48 ab             	rep stos QWORD PTR [rdi],rax
ffffffff80005fd6:	31 ff                	xor    edi,edi
ffffffff80005fd8:	e8 73 ba ff ff       	call   ffffffff80001a50 <framebuffer_get_addr>
ffffffff80005fdd:	31 ff                	xor    edi,edi
ffffffff80005fdf:	48 89 45 c0          	mov    QWORD PTR [rbp-0x40],rax
ffffffff80005fe3:	e8 a8 ba ff ff       	call   ffffffff80001a90 <framebuffer_get_width>
ffffffff80005fe8:	31 ff                	xor    edi,edi
ffffffff80005fea:	48 89 45 c8          	mov    QWORD PTR [rbp-0x38],rax
ffffffff80005fee:	e8 bd ba ff ff       	call   ffffffff80001ab0 <framebuffer_get_height>
ffffffff80005ff3:	31 ff                	xor    edi,edi
ffffffff80005ff5:	48 89 45 d0          	mov    QWORD PTR [rbp-0x30],rax
ffffffff80005ff9:	e8 72 ba ff ff       	call   ffffffff80001a70 <framebuffer_get_pitch>
ffffffff80005ffe:	48 89 45 d8          	mov    QWORD PTR [rbp-0x28],rax
ffffffff80006002:	31 c0                	xor    eax,eax
ffffffff80006004:	e8 b7 bf ff ff       	call   ffffffff80001fc0 <psf_get_current_font>
ffffffff80006009:	48 8d 4d c0          	lea    rcx,[rbp-0x40]
ffffffff8000600d:	41 b8 06 00 00 00    	mov    r8d,0x6
ffffffff80006013:	48 c7 c2 ea 85 00 80 	mov    rdx,0xffffffff800085ea
ffffffff8000601a:	48 c7 c6 40 c5 00 80 	mov    rsi,0xffffffff8000c540
ffffffff80006021:	48 c7 c7 00 c6 00 80 	mov    rdi,0xffffffff8000c600
ffffffff80006028:	48 89 45 e0          	mov    QWORD PTR [rbp-0x20],rax
ffffffff8000602c:	c7 45 e8 ff ff ff 00 	mov    DWORD PTR [rbp-0x18],0xffffff
ffffffff80006033:	e8 f8 e4 ff ff       	call   ffffffff80004530 <tty_init_framebuffer>
ffffffff80006038:	48 c7 c7 00 c6 00 80 	mov    rdi,0xffffffff8000c600
ffffffff8000603f:	e8 ac e5 ff ff       	call   ffffffff800045f0 <device_register>
ffffffff80006044:	48 c7 c7 ea 85 00 80 	mov    rdi,0xffffffff800085ea
ffffffff8000604b:	e8 30 e6 ff ff       	call   ffffffff80004680 <device_get_by_name>
ffffffff80006050:	48 89 c7             	mov    rdi,rax
ffffffff80006053:	e8 78 fc ff ff       	call   ffffffff80005cd0 <console_set>
ffffffff80006058:	c9                   	leave
ffffffff80006059:	c3                   	ret
ffffffff8000605a:	66 0f 1f 44 00 00    	nop    WORD PTR [rax+rax*1+0x0]

ffffffff80006060 <kmain>:
ffffffff80006060:	55                   	push   rbp
ffffffff80006061:	48 89 e5             	mov    rbp,rsp
ffffffff80006064:	fa                   	cli
ffffffff80006065:	e8 e7 00 00 00       	call   ffffffff80006151 <init_sse>
ffffffff8000606a:	31 c0                	xor    eax,eax
ffffffff8000606c:	e8 7f b2 ff ff       	call   ffffffff800012f0 <serial_init>
ffffffff80006071:	31 c0                	xor    eax,eax
ffffffff80006073:	e8 08 f7 ff ff       	call   ffffffff80005780 <pmm_init>
ffffffff80006078:	31 c0                	xor    eax,eax
ffffffff8000607a:	e8 01 f4 ff ff       	call   ffffffff80005480 <reinit_paging>
ffffffff8000607f:	31 c0                	xor    eax,eax
ffffffff80006081:	e8 ca ce ff ff       	call   ffffffff80002f50 <vfs_mount_root>
ffffffff80006086:	31 c0                	xor    eax,eax
ffffffff80006088:	e8 33 fe ff ff       	call   ffffffff80005ec0 <initrd_load>
ffffffff8000608d:	48 c7 c7 ef 85 00 80 	mov    rdi,0xffffffff800085ef
ffffffff80006094:	e8 87 c1 ff ff       	call   ffffffff80002220 <psf_init>
ffffffff80006099:	31 c0                	xor    eax,eax
ffffffff8000609b:	e8 20 ff ff ff       	call   ffffffff80005fc0 <console_init>
ffffffff800060a0:	31 c0                	xor    eax,eax
ffffffff800060a2:	e8 a9 d6 ff ff       	call   ffffffff80003750 <gdt_init>
ffffffff800060a7:	31 c0                	xor    eax,eax
ffffffff800060a9:	e8 52 fc ff ff       	call   ffffffff80005d00 <idt_init>
ffffffff800060ae:	31 c0                	xor    eax,eax
ffffffff800060b0:	e8 ab fd ff ff       	call   ffffffff80005e60 <tss_init>
ffffffff800060b5:	bf e8 03 00 00       	mov    edi,0x3e8
ffffffff800060ba:	e8 e1 b0 ff ff       	call   ffffffff800011a0 <pit_init>
ffffffff800060bf:	be 28 00 00 00       	mov    esi,0x28
ffffffff800060c4:	bf 20 00 00 00       	mov    edi,0x20
ffffffff800060c9:	e8 a2 b8 ff ff       	call   ffffffff80001970 <pic_init>
ffffffff800060ce:	48 89 e7             	mov    rdi,rsp
ffffffff800060d1:	e8 ba ec ff ff       	call   ffffffff80004d90 <sched_bootstrap>
ffffffff800060d6:	0f 20 df             	mov    rdi,cr3
ffffffff800060d9:	b9 10 00 00 00       	mov    ecx,0x10
ffffffff800060de:	ba 08 00 00 00       	mov    edx,0x8
ffffffff800060e3:	48 c7 c6 60 49 00 80 	mov    rsi,0xffffffff80004960
ffffffff800060ea:	e8 c1 e9 ff ff       	call   ffffffff80004ab0 <sched_create_task>
ffffffff800060ef:	31 c0                	xor    eax,eax
ffffffff800060f1:	e8 8a fe ff ff       	call   ffffffff80005f80 <kernel_self_test>
ffffffff800060f6:	fb                   	sti
ffffffff800060f7:	48 81 ec 70 08 00 00 	sub    rsp,0x870
ffffffff800060fe:	48 c7 c6 00 c6 00 80 	mov    rsi,0xffffffff8000c600
ffffffff80006105:	b9 0d 01 00 00       	mov    ecx,0x10d
ffffffff8000610a:	31 c0                	xor    eax,eax
ffffffff8000610c:	48 89 e7             	mov    rdi,rsp
ffffffff8000610f:	f3 48 a5             	rep movs QWORD PTR [rdi],QWORD PTR [rsi]
ffffffff80006112:	e8 69 b0 ff ff       	call   ffffffff80001180 <PS2_Keyboard_init>
ffffffff80006117:	48 81 c4 70 08 00 00 	add    rsp,0x870
ffffffff8000611e:	48 c7 c7 08 86 00 80 	mov    rdi,0xffffffff80008608
ffffffff80006125:	e8 e6 fd ff ff       	call   ffffffff80005f10 <load_elf_from_initrd>
ffffffff8000612a:	eb fe                	jmp    ffffffff8000612a <kmain+0xca>

ffffffff8000612c <reload_segments>:
ffffffff8000612c:	66 b8 10 00          	mov    ax,0x10
ffffffff80006130:	8e d8                	mov    ds,eax
ffffffff80006132:	8e c0                	mov    es,eax
ffffffff80006134:	8e e0                	mov    fs,eax
ffffffff80006136:	8e e8                	mov    gs,eax
ffffffff80006138:	8e d0                	mov    ss,eax
ffffffff8000613a:	6a 08                	push   0x8
ffffffff8000613c:	48 8d 04 25 47 61 00 	lea    rax,ds:0xffffffff80006147
ffffffff80006143:	80 
ffffffff80006144:	50                   	push   rax
ffffffff80006145:	48 cb                	retfq

ffffffff80006147 <.flush_cs>:
ffffffff80006147:	c3                   	ret

ffffffff80006148 <gdt_load>:
ffffffff80006148:	0f 01 17             	lgdt   [rdi]
ffffffff8000614b:	e8 dc ff ff ff       	call   ffffffff8000612c <reload_segments>
ffffffff80006150:	c3                   	ret

ffffffff80006151 <init_sse>:
ffffffff80006151:	0f 20 c0             	mov    rax,cr0
ffffffff80006154:	48 83 e0 fb          	and    rax,0xfffffffffffffffb
ffffffff80006158:	48 83 c8 02          	or     rax,0x2
ffffffff8000615c:	0f 22 c0             	mov    cr0,rax
ffffffff8000615f:	0f 20 e0             	mov    rax,cr4
ffffffff80006162:	48 0d 00 06 00 00    	or     rax,0x600
ffffffff80006168:	0f 22 e0             	mov    cr4,rax
ffffffff8000616b:	f3 0f 10 05 d9 4e 00 	movss  xmm0,DWORD PTR [rip+0x4ed9]        # ffffffff8000b04c <valA>
ffffffff80006172:	00 
ffffffff80006173:	f3 0f 10 0d d5 4e 00 	movss  xmm1,DWORD PTR [rip+0x4ed5]        # ffffffff8000b050 <valB>
ffffffff8000617a:	00 
ffffffff8000617b:	f3 0f 58 c1          	addss  xmm0,xmm1
ffffffff8000617f:	f3 0f 11 05 c1 4e 00 	movss  DWORD PTR [rip+0x4ec1],xmm0        # ffffffff8000b048 <sse_result>
ffffffff80006186:	00 
ffffffff80006187:	c3                   	ret

ffffffff80006188 <isr_0>:
ffffffff80006188:	6a 00                	push   0x0
ffffffff8000618a:	6a 00                	push   0x0
ffffffff8000618c:	50                   	push   rax
ffffffff8000618d:	53                   	push   rbx
ffffffff8000618e:	51                   	push   rcx
ffffffff8000618f:	52                   	push   rdx
ffffffff80006190:	56                   	push   rsi
ffffffff80006191:	57                   	push   rdi
ffffffff80006192:	55                   	push   rbp
ffffffff80006193:	41 50                	push   r8
ffffffff80006195:	41 51                	push   r9
ffffffff80006197:	41 52                	push   r10
ffffffff80006199:	41 53                	push   r11
ffffffff8000619b:	41 54                	push   r12
ffffffff8000619d:	41 55                	push   r13
ffffffff8000619f:	41 56                	push   r14
ffffffff800061a1:	41 57                	push   r15
ffffffff800061a3:	48 89 e7             	mov    rdi,rsp
ffffffff800061a6:	41 5f                	pop    r15
ffffffff800061a8:	41 5e                	pop    r14
ffffffff800061aa:	41 5d                	pop    r13
ffffffff800061ac:	41 5c                	pop    r12
ffffffff800061ae:	41 5b                	pop    r11
ffffffff800061b0:	41 5a                	pop    r10
ffffffff800061b2:	41 59                	pop    r9
ffffffff800061b4:	41 58                	pop    r8
ffffffff800061b6:	5d                   	pop    rbp
ffffffff800061b7:	5f                   	pop    rdi
ffffffff800061b8:	5e                   	pop    rsi
ffffffff800061b9:	5a                   	pop    rdx
ffffffff800061ba:	59                   	pop    rcx
ffffffff800061bb:	5b                   	pop    rbx
ffffffff800061bc:	58                   	pop    rax
ffffffff800061bd:	48 83 c4 08          	add    rsp,0x8
ffffffff800061c1:	48 83 c4 08          	add    rsp,0x8
ffffffff800061c5:	48 cf                	iretq

ffffffff800061c7 <isr_1>:
ffffffff800061c7:	6a 00                	push   0x0
ffffffff800061c9:	6a 01                	push   0x1
ffffffff800061cb:	50                   	push   rax
ffffffff800061cc:	53                   	push   rbx
ffffffff800061cd:	51                   	push   rcx
ffffffff800061ce:	52                   	push   rdx
ffffffff800061cf:	56                   	push   rsi
ffffffff800061d0:	57                   	push   rdi
ffffffff800061d1:	55                   	push   rbp
ffffffff800061d2:	41 50                	push   r8
ffffffff800061d4:	41 51                	push   r9
ffffffff800061d6:	41 52                	push   r10
ffffffff800061d8:	41 53                	push   r11
ffffffff800061da:	41 54                	push   r12
ffffffff800061dc:	41 55                	push   r13
ffffffff800061de:	41 56                	push   r14
ffffffff800061e0:	41 57                	push   r15
ffffffff800061e2:	48 89 e7             	mov    rdi,rsp
ffffffff800061e5:	41 5f                	pop    r15
ffffffff800061e7:	41 5e                	pop    r14
ffffffff800061e9:	41 5d                	pop    r13
ffffffff800061eb:	41 5c                	pop    r12
ffffffff800061ed:	41 5b                	pop    r11
ffffffff800061ef:	41 5a                	pop    r10
ffffffff800061f1:	41 59                	pop    r9
ffffffff800061f3:	41 58                	pop    r8
ffffffff800061f5:	5d                   	pop    rbp
ffffffff800061f6:	5f                   	pop    rdi
ffffffff800061f7:	5e                   	pop    rsi
ffffffff800061f8:	5a                   	pop    rdx
ffffffff800061f9:	59                   	pop    rcx
ffffffff800061fa:	5b                   	pop    rbx
ffffffff800061fb:	58                   	pop    rax
ffffffff800061fc:	48 83 c4 08          	add    rsp,0x8
ffffffff80006200:	48 83 c4 08          	add    rsp,0x8
ffffffff80006204:	48 cf                	iretq

ffffffff80006206 <isr_2>:
ffffffff80006206:	6a 00                	push   0x0
ffffffff80006208:	6a 02                	push   0x2
ffffffff8000620a:	50                   	push   rax
ffffffff8000620b:	53                   	push   rbx
ffffffff8000620c:	51                   	push   rcx
ffffffff8000620d:	52                   	push   rdx
ffffffff8000620e:	56                   	push   rsi
ffffffff8000620f:	57                   	push   rdi
ffffffff80006210:	55                   	push   rbp
ffffffff80006211:	41 50                	push   r8
ffffffff80006213:	41 51                	push   r9
ffffffff80006215:	41 52                	push   r10
ffffffff80006217:	41 53                	push   r11
ffffffff80006219:	41 54                	push   r12
ffffffff8000621b:	41 55                	push   r13
ffffffff8000621d:	41 56                	push   r14
ffffffff8000621f:	41 57                	push   r15
ffffffff80006221:	48 89 e7             	mov    rdi,rsp
ffffffff80006224:	41 5f                	pop    r15
ffffffff80006226:	41 5e                	pop    r14
ffffffff80006228:	41 5d                	pop    r13
ffffffff8000622a:	41 5c                	pop    r12
ffffffff8000622c:	41 5b                	pop    r11
ffffffff8000622e:	41 5a                	pop    r10
ffffffff80006230:	41 59                	pop    r9
ffffffff80006232:	41 58                	pop    r8
ffffffff80006234:	5d                   	pop    rbp
ffffffff80006235:	5f                   	pop    rdi
ffffffff80006236:	5e                   	pop    rsi
ffffffff80006237:	5a                   	pop    rdx
ffffffff80006238:	59                   	pop    rcx
ffffffff80006239:	5b                   	pop    rbx
ffffffff8000623a:	58                   	pop    rax
ffffffff8000623b:	48 83 c4 08          	add    rsp,0x8
ffffffff8000623f:	48 83 c4 08          	add    rsp,0x8
ffffffff80006243:	48 cf                	iretq

ffffffff80006245 <isr_3>:
ffffffff80006245:	6a 00                	push   0x0
ffffffff80006247:	6a 03                	push   0x3
ffffffff80006249:	50                   	push   rax
ffffffff8000624a:	53                   	push   rbx
ffffffff8000624b:	51                   	push   rcx
ffffffff8000624c:	52                   	push   rdx
ffffffff8000624d:	56                   	push   rsi
ffffffff8000624e:	57                   	push   rdi
ffffffff8000624f:	55                   	push   rbp
ffffffff80006250:	41 50                	push   r8
ffffffff80006252:	41 51                	push   r9
ffffffff80006254:	41 52                	push   r10
ffffffff80006256:	41 53                	push   r11
ffffffff80006258:	41 54                	push   r12
ffffffff8000625a:	41 55                	push   r13
ffffffff8000625c:	41 56                	push   r14
ffffffff8000625e:	41 57                	push   r15
ffffffff80006260:	48 89 e7             	mov    rdi,rsp
ffffffff80006263:	41 5f                	pop    r15
ffffffff80006265:	41 5e                	pop    r14
ffffffff80006267:	41 5d                	pop    r13
ffffffff80006269:	41 5c                	pop    r12
ffffffff8000626b:	41 5b                	pop    r11
ffffffff8000626d:	41 5a                	pop    r10
ffffffff8000626f:	41 59                	pop    r9
ffffffff80006271:	41 58                	pop    r8
ffffffff80006273:	5d                   	pop    rbp
ffffffff80006274:	5f                   	pop    rdi
ffffffff80006275:	5e                   	pop    rsi
ffffffff80006276:	5a                   	pop    rdx
ffffffff80006277:	59                   	pop    rcx
ffffffff80006278:	5b                   	pop    rbx
ffffffff80006279:	58                   	pop    rax
ffffffff8000627a:	48 83 c4 08          	add    rsp,0x8
ffffffff8000627e:	48 83 c4 08          	add    rsp,0x8
ffffffff80006282:	48 cf                	iretq

ffffffff80006284 <isr_4>:
ffffffff80006284:	6a 00                	push   0x0
ffffffff80006286:	6a 04                	push   0x4
ffffffff80006288:	50                   	push   rax
ffffffff80006289:	53                   	push   rbx
ffffffff8000628a:	51                   	push   rcx
ffffffff8000628b:	52                   	push   rdx
ffffffff8000628c:	56                   	push   rsi
ffffffff8000628d:	57                   	push   rdi
ffffffff8000628e:	55                   	push   rbp
ffffffff8000628f:	41 50                	push   r8
ffffffff80006291:	41 51                	push   r9
ffffffff80006293:	41 52                	push   r10
ffffffff80006295:	41 53                	push   r11
ffffffff80006297:	41 54                	push   r12
ffffffff80006299:	41 55                	push   r13
ffffffff8000629b:	41 56                	push   r14
ffffffff8000629d:	41 57                	push   r15
ffffffff8000629f:	48 89 e7             	mov    rdi,rsp
ffffffff800062a2:	41 5f                	pop    r15
ffffffff800062a4:	41 5e                	pop    r14
ffffffff800062a6:	41 5d                	pop    r13
ffffffff800062a8:	41 5c                	pop    r12
ffffffff800062aa:	41 5b                	pop    r11
ffffffff800062ac:	41 5a                	pop    r10
ffffffff800062ae:	41 59                	pop    r9
ffffffff800062b0:	41 58                	pop    r8
ffffffff800062b2:	5d                   	pop    rbp
ffffffff800062b3:	5f                   	pop    rdi
ffffffff800062b4:	5e                   	pop    rsi
ffffffff800062b5:	5a                   	pop    rdx
ffffffff800062b6:	59                   	pop    rcx
ffffffff800062b7:	5b                   	pop    rbx
ffffffff800062b8:	58                   	pop    rax
ffffffff800062b9:	48 83 c4 08          	add    rsp,0x8
ffffffff800062bd:	48 83 c4 08          	add    rsp,0x8
ffffffff800062c1:	48 cf                	iretq

ffffffff800062c3 <isr_5>:
ffffffff800062c3:	6a 00                	push   0x0
ffffffff800062c5:	6a 05                	push   0x5
ffffffff800062c7:	50                   	push   rax
ffffffff800062c8:	53                   	push   rbx
ffffffff800062c9:	51                   	push   rcx
ffffffff800062ca:	52                   	push   rdx
ffffffff800062cb:	56                   	push   rsi
ffffffff800062cc:	57                   	push   rdi
ffffffff800062cd:	55                   	push   rbp
ffffffff800062ce:	41 50                	push   r8
ffffffff800062d0:	41 51                	push   r9
ffffffff800062d2:	41 52                	push   r10
ffffffff800062d4:	41 53                	push   r11
ffffffff800062d6:	41 54                	push   r12
ffffffff800062d8:	41 55                	push   r13
ffffffff800062da:	41 56                	push   r14
ffffffff800062dc:	41 57                	push   r15
ffffffff800062de:	48 89 e7             	mov    rdi,rsp
ffffffff800062e1:	41 5f                	pop    r15
ffffffff800062e3:	41 5e                	pop    r14
ffffffff800062e5:	41 5d                	pop    r13
ffffffff800062e7:	41 5c                	pop    r12
ffffffff800062e9:	41 5b                	pop    r11
ffffffff800062eb:	41 5a                	pop    r10
ffffffff800062ed:	41 59                	pop    r9
ffffffff800062ef:	41 58                	pop    r8
ffffffff800062f1:	5d                   	pop    rbp
ffffffff800062f2:	5f                   	pop    rdi
ffffffff800062f3:	5e                   	pop    rsi
ffffffff800062f4:	5a                   	pop    rdx
ffffffff800062f5:	59                   	pop    rcx
ffffffff800062f6:	5b                   	pop    rbx
ffffffff800062f7:	58                   	pop    rax
ffffffff800062f8:	48 83 c4 08          	add    rsp,0x8
ffffffff800062fc:	48 83 c4 08          	add    rsp,0x8
ffffffff80006300:	48 cf                	iretq

ffffffff80006302 <isr_6>:
ffffffff80006302:	6a 00                	push   0x0
ffffffff80006304:	6a 06                	push   0x6
ffffffff80006306:	50                   	push   rax
ffffffff80006307:	53                   	push   rbx
ffffffff80006308:	51                   	push   rcx
ffffffff80006309:	52                   	push   rdx
ffffffff8000630a:	56                   	push   rsi
ffffffff8000630b:	57                   	push   rdi
ffffffff8000630c:	55                   	push   rbp
ffffffff8000630d:	41 50                	push   r8
ffffffff8000630f:	41 51                	push   r9
ffffffff80006311:	41 52                	push   r10
ffffffff80006313:	41 53                	push   r11
ffffffff80006315:	41 54                	push   r12
ffffffff80006317:	41 55                	push   r13
ffffffff80006319:	41 56                	push   r14
ffffffff8000631b:	41 57                	push   r15
ffffffff8000631d:	48 89 e7             	mov    rdi,rsp
ffffffff80006320:	41 5f                	pop    r15
ffffffff80006322:	41 5e                	pop    r14
ffffffff80006324:	41 5d                	pop    r13
ffffffff80006326:	41 5c                	pop    r12
ffffffff80006328:	41 5b                	pop    r11
ffffffff8000632a:	41 5a                	pop    r10
ffffffff8000632c:	41 59                	pop    r9
ffffffff8000632e:	41 58                	pop    r8
ffffffff80006330:	5d                   	pop    rbp
ffffffff80006331:	5f                   	pop    rdi
ffffffff80006332:	5e                   	pop    rsi
ffffffff80006333:	5a                   	pop    rdx
ffffffff80006334:	59                   	pop    rcx
ffffffff80006335:	5b                   	pop    rbx
ffffffff80006336:	58                   	pop    rax
ffffffff80006337:	48 83 c4 08          	add    rsp,0x8
ffffffff8000633b:	48 83 c4 08          	add    rsp,0x8
ffffffff8000633f:	48 cf                	iretq

ffffffff80006341 <isr_7>:
ffffffff80006341:	6a 00                	push   0x0
ffffffff80006343:	6a 07                	push   0x7
ffffffff80006345:	50                   	push   rax
ffffffff80006346:	53                   	push   rbx
ffffffff80006347:	51                   	push   rcx
ffffffff80006348:	52                   	push   rdx
ffffffff80006349:	56                   	push   rsi
ffffffff8000634a:	57                   	push   rdi
ffffffff8000634b:	55                   	push   rbp
ffffffff8000634c:	41 50                	push   r8
ffffffff8000634e:	41 51                	push   r9
ffffffff80006350:	41 52                	push   r10
ffffffff80006352:	41 53                	push   r11
ffffffff80006354:	41 54                	push   r12
ffffffff80006356:	41 55                	push   r13
ffffffff80006358:	41 56                	push   r14
ffffffff8000635a:	41 57                	push   r15
ffffffff8000635c:	48 89 e7             	mov    rdi,rsp
ffffffff8000635f:	41 5f                	pop    r15
ffffffff80006361:	41 5e                	pop    r14
ffffffff80006363:	41 5d                	pop    r13
ffffffff80006365:	41 5c                	pop    r12
ffffffff80006367:	41 5b                	pop    r11
ffffffff80006369:	41 5a                	pop    r10
ffffffff8000636b:	41 59                	pop    r9
ffffffff8000636d:	41 58                	pop    r8
ffffffff8000636f:	5d                   	pop    rbp
ffffffff80006370:	5f                   	pop    rdi
ffffffff80006371:	5e                   	pop    rsi
ffffffff80006372:	5a                   	pop    rdx
ffffffff80006373:	59                   	pop    rcx
ffffffff80006374:	5b                   	pop    rbx
ffffffff80006375:	58                   	pop    rax
ffffffff80006376:	48 83 c4 08          	add    rsp,0x8
ffffffff8000637a:	48 83 c4 08          	add    rsp,0x8
ffffffff8000637e:	48 cf                	iretq

ffffffff80006380 <isr_8>:
ffffffff80006380:	6a 08                	push   0x8
ffffffff80006382:	50                   	push   rax
ffffffff80006383:	53                   	push   rbx
ffffffff80006384:	51                   	push   rcx
ffffffff80006385:	52                   	push   rdx
ffffffff80006386:	56                   	push   rsi
ffffffff80006387:	57                   	push   rdi
ffffffff80006388:	55                   	push   rbp
ffffffff80006389:	41 50                	push   r8
ffffffff8000638b:	41 51                	push   r9
ffffffff8000638d:	41 52                	push   r10
ffffffff8000638f:	41 53                	push   r11
ffffffff80006391:	41 54                	push   r12
ffffffff80006393:	41 55                	push   r13
ffffffff80006395:	41 56                	push   r14
ffffffff80006397:	41 57                	push   r15
ffffffff80006399:	48 89 e7             	mov    rdi,rsp
ffffffff8000639c:	e8 af ea ff ff       	call   ffffffff80004e50 <ke_exception_handler>
ffffffff800063a1:	41 5f                	pop    r15
ffffffff800063a3:	41 5e                	pop    r14
ffffffff800063a5:	41 5d                	pop    r13
ffffffff800063a7:	41 5c                	pop    r12
ffffffff800063a9:	41 5b                	pop    r11
ffffffff800063ab:	41 5a                	pop    r10
ffffffff800063ad:	41 59                	pop    r9
ffffffff800063af:	41 58                	pop    r8
ffffffff800063b1:	5d                   	pop    rbp
ffffffff800063b2:	5f                   	pop    rdi
ffffffff800063b3:	5e                   	pop    rsi
ffffffff800063b4:	5a                   	pop    rdx
ffffffff800063b5:	59                   	pop    rcx
ffffffff800063b6:	5b                   	pop    rbx
ffffffff800063b7:	58                   	pop    rax
ffffffff800063b8:	48 83 c4 08          	add    rsp,0x8
ffffffff800063bc:	48 cf                	iretq

ffffffff800063be <isr_9>:
ffffffff800063be:	6a 00                	push   0x0
ffffffff800063c0:	6a 09                	push   0x9
ffffffff800063c2:	50                   	push   rax
ffffffff800063c3:	53                   	push   rbx
ffffffff800063c4:	51                   	push   rcx
ffffffff800063c5:	52                   	push   rdx
ffffffff800063c6:	56                   	push   rsi
ffffffff800063c7:	57                   	push   rdi
ffffffff800063c8:	55                   	push   rbp
ffffffff800063c9:	41 50                	push   r8
ffffffff800063cb:	41 51                	push   r9
ffffffff800063cd:	41 52                	push   r10
ffffffff800063cf:	41 53                	push   r11
ffffffff800063d1:	41 54                	push   r12
ffffffff800063d3:	41 55                	push   r13
ffffffff800063d5:	41 56                	push   r14
ffffffff800063d7:	41 57                	push   r15
ffffffff800063d9:	48 89 e7             	mov    rdi,rsp
ffffffff800063dc:	41 5f                	pop    r15
ffffffff800063de:	41 5e                	pop    r14
ffffffff800063e0:	41 5d                	pop    r13
ffffffff800063e2:	41 5c                	pop    r12
ffffffff800063e4:	41 5b                	pop    r11
ffffffff800063e6:	41 5a                	pop    r10
ffffffff800063e8:	41 59                	pop    r9
ffffffff800063ea:	41 58                	pop    r8
ffffffff800063ec:	5d                   	pop    rbp
ffffffff800063ed:	5f                   	pop    rdi
ffffffff800063ee:	5e                   	pop    rsi
ffffffff800063ef:	5a                   	pop    rdx
ffffffff800063f0:	59                   	pop    rcx
ffffffff800063f1:	5b                   	pop    rbx
ffffffff800063f2:	58                   	pop    rax
ffffffff800063f3:	48 83 c4 08          	add    rsp,0x8
ffffffff800063f7:	48 83 c4 08          	add    rsp,0x8
ffffffff800063fb:	48 cf                	iretq

ffffffff800063fd <isr_10>:
ffffffff800063fd:	6a 0a                	push   0xa
ffffffff800063ff:	50                   	push   rax
ffffffff80006400:	53                   	push   rbx
ffffffff80006401:	51                   	push   rcx
ffffffff80006402:	52                   	push   rdx
ffffffff80006403:	56                   	push   rsi
ffffffff80006404:	57                   	push   rdi
ffffffff80006405:	55                   	push   rbp
ffffffff80006406:	41 50                	push   r8
ffffffff80006408:	41 51                	push   r9
ffffffff8000640a:	41 52                	push   r10
ffffffff8000640c:	41 53                	push   r11
ffffffff8000640e:	41 54                	push   r12
ffffffff80006410:	41 55                	push   r13
ffffffff80006412:	41 56                	push   r14
ffffffff80006414:	41 57                	push   r15
ffffffff80006416:	48 89 e7             	mov    rdi,rsp
ffffffff80006419:	e8 32 ea ff ff       	call   ffffffff80004e50 <ke_exception_handler>
ffffffff8000641e:	41 5f                	pop    r15
ffffffff80006420:	41 5e                	pop    r14
ffffffff80006422:	41 5d                	pop    r13
ffffffff80006424:	41 5c                	pop    r12
ffffffff80006426:	41 5b                	pop    r11
ffffffff80006428:	41 5a                	pop    r10
ffffffff8000642a:	41 59                	pop    r9
ffffffff8000642c:	41 58                	pop    r8
ffffffff8000642e:	5d                   	pop    rbp
ffffffff8000642f:	5f                   	pop    rdi
ffffffff80006430:	5e                   	pop    rsi
ffffffff80006431:	5a                   	pop    rdx
ffffffff80006432:	59                   	pop    rcx
ffffffff80006433:	5b                   	pop    rbx
ffffffff80006434:	58                   	pop    rax
ffffffff80006435:	48 83 c4 08          	add    rsp,0x8
ffffffff80006439:	48 cf                	iretq

ffffffff8000643b <isr_11>:
ffffffff8000643b:	6a 0b                	push   0xb
ffffffff8000643d:	50                   	push   rax
ffffffff8000643e:	53                   	push   rbx
ffffffff8000643f:	51                   	push   rcx
ffffffff80006440:	52                   	push   rdx
ffffffff80006441:	56                   	push   rsi
ffffffff80006442:	57                   	push   rdi
ffffffff80006443:	55                   	push   rbp
ffffffff80006444:	41 50                	push   r8
ffffffff80006446:	41 51                	push   r9
ffffffff80006448:	41 52                	push   r10
ffffffff8000644a:	41 53                	push   r11
ffffffff8000644c:	41 54                	push   r12
ffffffff8000644e:	41 55                	push   r13
ffffffff80006450:	41 56                	push   r14
ffffffff80006452:	41 57                	push   r15
ffffffff80006454:	48 89 e7             	mov    rdi,rsp
ffffffff80006457:	e8 f4 e9 ff ff       	call   ffffffff80004e50 <ke_exception_handler>
ffffffff8000645c:	41 5f                	pop    r15
ffffffff8000645e:	41 5e                	pop    r14
ffffffff80006460:	41 5d                	pop    r13
ffffffff80006462:	41 5c                	pop    r12
ffffffff80006464:	41 5b                	pop    r11
ffffffff80006466:	41 5a                	pop    r10
ffffffff80006468:	41 59                	pop    r9
ffffffff8000646a:	41 58                	pop    r8
ffffffff8000646c:	5d                   	pop    rbp
ffffffff8000646d:	5f                   	pop    rdi
ffffffff8000646e:	5e                   	pop    rsi
ffffffff8000646f:	5a                   	pop    rdx
ffffffff80006470:	59                   	pop    rcx
ffffffff80006471:	5b                   	pop    rbx
ffffffff80006472:	58                   	pop    rax
ffffffff80006473:	48 83 c4 08          	add    rsp,0x8
ffffffff80006477:	48 cf                	iretq

ffffffff80006479 <isr_12>:
ffffffff80006479:	6a 0c                	push   0xc
ffffffff8000647b:	50                   	push   rax
ffffffff8000647c:	53                   	push   rbx
ffffffff8000647d:	51                   	push   rcx
ffffffff8000647e:	52                   	push   rdx
ffffffff8000647f:	56                   	push   rsi
ffffffff80006480:	57                   	push   rdi
ffffffff80006481:	55                   	push   rbp
ffffffff80006482:	41 50                	push   r8
ffffffff80006484:	41 51                	push   r9
ffffffff80006486:	41 52                	push   r10
ffffffff80006488:	41 53                	push   r11
ffffffff8000648a:	41 54                	push   r12
ffffffff8000648c:	41 55                	push   r13
ffffffff8000648e:	41 56                	push   r14
ffffffff80006490:	41 57                	push   r15
ffffffff80006492:	48 89 e7             	mov    rdi,rsp
ffffffff80006495:	e8 b6 e9 ff ff       	call   ffffffff80004e50 <ke_exception_handler>
ffffffff8000649a:	41 5f                	pop    r15
ffffffff8000649c:	41 5e                	pop    r14
ffffffff8000649e:	41 5d                	pop    r13
ffffffff800064a0:	41 5c                	pop    r12
ffffffff800064a2:	41 5b                	pop    r11
ffffffff800064a4:	41 5a                	pop    r10
ffffffff800064a6:	41 59                	pop    r9
ffffffff800064a8:	41 58                	pop    r8
ffffffff800064aa:	5d                   	pop    rbp
ffffffff800064ab:	5f                   	pop    rdi
ffffffff800064ac:	5e                   	pop    rsi
ffffffff800064ad:	5a                   	pop    rdx
ffffffff800064ae:	59                   	pop    rcx
ffffffff800064af:	5b                   	pop    rbx
ffffffff800064b0:	58                   	pop    rax
ffffffff800064b1:	48 83 c4 08          	add    rsp,0x8
ffffffff800064b5:	48 cf                	iretq

ffffffff800064b7 <isr_13>:
ffffffff800064b7:	6a 0d                	push   0xd
ffffffff800064b9:	50                   	push   rax
ffffffff800064ba:	53                   	push   rbx
ffffffff800064bb:	51                   	push   rcx
ffffffff800064bc:	52                   	push   rdx
ffffffff800064bd:	56                   	push   rsi
ffffffff800064be:	57                   	push   rdi
ffffffff800064bf:	55                   	push   rbp
ffffffff800064c0:	41 50                	push   r8
ffffffff800064c2:	41 51                	push   r9
ffffffff800064c4:	41 52                	push   r10
ffffffff800064c6:	41 53                	push   r11
ffffffff800064c8:	41 54                	push   r12
ffffffff800064ca:	41 55                	push   r13
ffffffff800064cc:	41 56                	push   r14
ffffffff800064ce:	41 57                	push   r15
ffffffff800064d0:	48 89 e7             	mov    rdi,rsp
ffffffff800064d3:	e8 78 e9 ff ff       	call   ffffffff80004e50 <ke_exception_handler>
ffffffff800064d8:	41 5f                	pop    r15
ffffffff800064da:	41 5e                	pop    r14
ffffffff800064dc:	41 5d                	pop    r13
ffffffff800064de:	41 5c                	pop    r12
ffffffff800064e0:	41 5b                	pop    r11
ffffffff800064e2:	41 5a                	pop    r10
ffffffff800064e4:	41 59                	pop    r9
ffffffff800064e6:	41 58                	pop    r8
ffffffff800064e8:	5d                   	pop    rbp
ffffffff800064e9:	5f                   	pop    rdi
ffffffff800064ea:	5e                   	pop    rsi
ffffffff800064eb:	5a                   	pop    rdx
ffffffff800064ec:	59                   	pop    rcx
ffffffff800064ed:	5b                   	pop    rbx
ffffffff800064ee:	58                   	pop    rax
ffffffff800064ef:	48 83 c4 08          	add    rsp,0x8
ffffffff800064f3:	48 cf                	iretq

ffffffff800064f5 <isr_14>:
ffffffff800064f5:	6a 0e                	push   0xe
ffffffff800064f7:	50                   	push   rax
ffffffff800064f8:	53                   	push   rbx
ffffffff800064f9:	51                   	push   rcx
ffffffff800064fa:	52                   	push   rdx
ffffffff800064fb:	56                   	push   rsi
ffffffff800064fc:	57                   	push   rdi
ffffffff800064fd:	55                   	push   rbp
ffffffff800064fe:	41 50                	push   r8
ffffffff80006500:	41 51                	push   r9
ffffffff80006502:	41 52                	push   r10
ffffffff80006504:	41 53                	push   r11
ffffffff80006506:	41 54                	push   r12
ffffffff80006508:	41 55                	push   r13
ffffffff8000650a:	41 56                	push   r14
ffffffff8000650c:	41 57                	push   r15
ffffffff8000650e:	48 89 e7             	mov    rdi,rsp
ffffffff80006511:	e8 3a e9 ff ff       	call   ffffffff80004e50 <ke_exception_handler>
ffffffff80006516:	41 5f                	pop    r15
ffffffff80006518:	41 5e                	pop    r14
ffffffff8000651a:	41 5d                	pop    r13
ffffffff8000651c:	41 5c                	pop    r12
ffffffff8000651e:	41 5b                	pop    r11
ffffffff80006520:	41 5a                	pop    r10
ffffffff80006522:	41 59                	pop    r9
ffffffff80006524:	41 58                	pop    r8
ffffffff80006526:	5d                   	pop    rbp
ffffffff80006527:	5f                   	pop    rdi
ffffffff80006528:	5e                   	pop    rsi
ffffffff80006529:	5a                   	pop    rdx
ffffffff8000652a:	59                   	pop    rcx
ffffffff8000652b:	5b                   	pop    rbx
ffffffff8000652c:	58                   	pop    rax
ffffffff8000652d:	48 83 c4 08          	add    rsp,0x8
ffffffff80006531:	48 cf                	iretq

ffffffff80006533 <isr_15>:
ffffffff80006533:	6a 00                	push   0x0
ffffffff80006535:	6a 0f                	push   0xf
ffffffff80006537:	50                   	push   rax
ffffffff80006538:	53                   	push   rbx
ffffffff80006539:	51                   	push   rcx
ffffffff8000653a:	52                   	push   rdx
ffffffff8000653b:	56                   	push   rsi
ffffffff8000653c:	57                   	push   rdi
ffffffff8000653d:	55                   	push   rbp
ffffffff8000653e:	41 50                	push   r8
ffffffff80006540:	41 51                	push   r9
ffffffff80006542:	41 52                	push   r10
ffffffff80006544:	41 53                	push   r11
ffffffff80006546:	41 54                	push   r12
ffffffff80006548:	41 55                	push   r13
ffffffff8000654a:	41 56                	push   r14
ffffffff8000654c:	41 57                	push   r15
ffffffff8000654e:	48 89 e7             	mov    rdi,rsp
ffffffff80006551:	41 5f                	pop    r15
ffffffff80006553:	41 5e                	pop    r14
ffffffff80006555:	41 5d                	pop    r13
ffffffff80006557:	41 5c                	pop    r12
ffffffff80006559:	41 5b                	pop    r11
ffffffff8000655b:	41 5a                	pop    r10
ffffffff8000655d:	41 59                	pop    r9
ffffffff8000655f:	41 58                	pop    r8
ffffffff80006561:	5d                   	pop    rbp
ffffffff80006562:	5f                   	pop    rdi
ffffffff80006563:	5e                   	pop    rsi
ffffffff80006564:	5a                   	pop    rdx
ffffffff80006565:	59                   	pop    rcx
ffffffff80006566:	5b                   	pop    rbx
ffffffff80006567:	58                   	pop    rax
ffffffff80006568:	48 83 c4 08          	add    rsp,0x8
ffffffff8000656c:	48 83 c4 08          	add    rsp,0x8
ffffffff80006570:	48 cf                	iretq

ffffffff80006572 <isr_16>:
ffffffff80006572:	6a 00                	push   0x0
ffffffff80006574:	6a 10                	push   0x10
ffffffff80006576:	50                   	push   rax
ffffffff80006577:	53                   	push   rbx
ffffffff80006578:	51                   	push   rcx
ffffffff80006579:	52                   	push   rdx
ffffffff8000657a:	56                   	push   rsi
ffffffff8000657b:	57                   	push   rdi
ffffffff8000657c:	55                   	push   rbp
ffffffff8000657d:	41 50                	push   r8
ffffffff8000657f:	41 51                	push   r9
ffffffff80006581:	41 52                	push   r10
ffffffff80006583:	41 53                	push   r11
ffffffff80006585:	41 54                	push   r12
ffffffff80006587:	41 55                	push   r13
ffffffff80006589:	41 56                	push   r14
ffffffff8000658b:	41 57                	push   r15
ffffffff8000658d:	48 89 e7             	mov    rdi,rsp
ffffffff80006590:	41 5f                	pop    r15
ffffffff80006592:	41 5e                	pop    r14
ffffffff80006594:	41 5d                	pop    r13
ffffffff80006596:	41 5c                	pop    r12
ffffffff80006598:	41 5b                	pop    r11
ffffffff8000659a:	41 5a                	pop    r10
ffffffff8000659c:	41 59                	pop    r9
ffffffff8000659e:	41 58                	pop    r8
ffffffff800065a0:	5d                   	pop    rbp
ffffffff800065a1:	5f                   	pop    rdi
ffffffff800065a2:	5e                   	pop    rsi
ffffffff800065a3:	5a                   	pop    rdx
ffffffff800065a4:	59                   	pop    rcx
ffffffff800065a5:	5b                   	pop    rbx
ffffffff800065a6:	58                   	pop    rax
ffffffff800065a7:	48 83 c4 08          	add    rsp,0x8
ffffffff800065ab:	48 83 c4 08          	add    rsp,0x8
ffffffff800065af:	48 cf                	iretq

ffffffff800065b1 <isr_17>:
ffffffff800065b1:	6a 11                	push   0x11
ffffffff800065b3:	50                   	push   rax
ffffffff800065b4:	53                   	push   rbx
ffffffff800065b5:	51                   	push   rcx
ffffffff800065b6:	52                   	push   rdx
ffffffff800065b7:	56                   	push   rsi
ffffffff800065b8:	57                   	push   rdi
ffffffff800065b9:	55                   	push   rbp
ffffffff800065ba:	41 50                	push   r8
ffffffff800065bc:	41 51                	push   r9
ffffffff800065be:	41 52                	push   r10
ffffffff800065c0:	41 53                	push   r11
ffffffff800065c2:	41 54                	push   r12
ffffffff800065c4:	41 55                	push   r13
ffffffff800065c6:	41 56                	push   r14
ffffffff800065c8:	41 57                	push   r15
ffffffff800065ca:	48 89 e7             	mov    rdi,rsp
ffffffff800065cd:	e8 7e e8 ff ff       	call   ffffffff80004e50 <ke_exception_handler>
ffffffff800065d2:	41 5f                	pop    r15
ffffffff800065d4:	41 5e                	pop    r14
ffffffff800065d6:	41 5d                	pop    r13
ffffffff800065d8:	41 5c                	pop    r12
ffffffff800065da:	41 5b                	pop    r11
ffffffff800065dc:	41 5a                	pop    r10
ffffffff800065de:	41 59                	pop    r9
ffffffff800065e0:	41 58                	pop    r8
ffffffff800065e2:	5d                   	pop    rbp
ffffffff800065e3:	5f                   	pop    rdi
ffffffff800065e4:	5e                   	pop    rsi
ffffffff800065e5:	5a                   	pop    rdx
ffffffff800065e6:	59                   	pop    rcx
ffffffff800065e7:	5b                   	pop    rbx
ffffffff800065e8:	58                   	pop    rax
ffffffff800065e9:	48 83 c4 08          	add    rsp,0x8
ffffffff800065ed:	48 cf                	iretq

ffffffff800065ef <isr_18>:
ffffffff800065ef:	6a 00                	push   0x0
ffffffff800065f1:	6a 12                	push   0x12
ffffffff800065f3:	50                   	push   rax
ffffffff800065f4:	53                   	push   rbx
ffffffff800065f5:	51                   	push   rcx
ffffffff800065f6:	52                   	push   rdx
ffffffff800065f7:	56                   	push   rsi
ffffffff800065f8:	57                   	push   rdi
ffffffff800065f9:	55                   	push   rbp
ffffffff800065fa:	41 50                	push   r8
ffffffff800065fc:	41 51                	push   r9
ffffffff800065fe:	41 52                	push   r10
ffffffff80006600:	41 53                	push   r11
ffffffff80006602:	41 54                	push   r12
ffffffff80006604:	41 55                	push   r13
ffffffff80006606:	41 56                	push   r14
ffffffff80006608:	41 57                	push   r15
ffffffff8000660a:	48 89 e7             	mov    rdi,rsp
ffffffff8000660d:	41 5f                	pop    r15
ffffffff8000660f:	41 5e                	pop    r14
ffffffff80006611:	41 5d                	pop    r13
ffffffff80006613:	41 5c                	pop    r12
ffffffff80006615:	41 5b                	pop    r11
ffffffff80006617:	41 5a                	pop    r10
ffffffff80006619:	41 59                	pop    r9
ffffffff8000661b:	41 58                	pop    r8
ffffffff8000661d:	5d                   	pop    rbp
ffffffff8000661e:	5f                   	pop    rdi
ffffffff8000661f:	5e                   	pop    rsi
ffffffff80006620:	5a                   	pop    rdx
ffffffff80006621:	59                   	pop    rcx
ffffffff80006622:	5b                   	pop    rbx
ffffffff80006623:	58                   	pop    rax
ffffffff80006624:	48 83 c4 08          	add    rsp,0x8
ffffffff80006628:	48 83 c4 08          	add    rsp,0x8
ffffffff8000662c:	48 cf                	iretq

ffffffff8000662e <isr_19>:
ffffffff8000662e:	6a 00                	push   0x0
ffffffff80006630:	6a 13                	push   0x13
ffffffff80006632:	50                   	push   rax
ffffffff80006633:	53                   	push   rbx
ffffffff80006634:	51                   	push   rcx
ffffffff80006635:	52                   	push   rdx
ffffffff80006636:	56                   	push   rsi
ffffffff80006637:	57                   	push   rdi
ffffffff80006638:	55                   	push   rbp
ffffffff80006639:	41 50                	push   r8
ffffffff8000663b:	41 51                	push   r9
ffffffff8000663d:	41 52                	push   r10
ffffffff8000663f:	41 53                	push   r11
ffffffff80006641:	41 54                	push   r12
ffffffff80006643:	41 55                	push   r13
ffffffff80006645:	41 56                	push   r14
ffffffff80006647:	41 57                	push   r15
ffffffff80006649:	48 89 e7             	mov    rdi,rsp
ffffffff8000664c:	41 5f                	pop    r15
ffffffff8000664e:	41 5e                	pop    r14
ffffffff80006650:	41 5d                	pop    r13
ffffffff80006652:	41 5c                	pop    r12
ffffffff80006654:	41 5b                	pop    r11
ffffffff80006656:	41 5a                	pop    r10
ffffffff80006658:	41 59                	pop    r9
ffffffff8000665a:	41 58                	pop    r8
ffffffff8000665c:	5d                   	pop    rbp
ffffffff8000665d:	5f                   	pop    rdi
ffffffff8000665e:	5e                   	pop    rsi
ffffffff8000665f:	5a                   	pop    rdx
ffffffff80006660:	59                   	pop    rcx
ffffffff80006661:	5b                   	pop    rbx
ffffffff80006662:	58                   	pop    rax
ffffffff80006663:	48 83 c4 08          	add    rsp,0x8
ffffffff80006667:	48 83 c4 08          	add    rsp,0x8
ffffffff8000666b:	48 cf                	iretq

ffffffff8000666d <isr_20>:
ffffffff8000666d:	6a 00                	push   0x0
ffffffff8000666f:	6a 14                	push   0x14
ffffffff80006671:	50                   	push   rax
ffffffff80006672:	53                   	push   rbx
ffffffff80006673:	51                   	push   rcx
ffffffff80006674:	52                   	push   rdx
ffffffff80006675:	56                   	push   rsi
ffffffff80006676:	57                   	push   rdi
ffffffff80006677:	55                   	push   rbp
ffffffff80006678:	41 50                	push   r8
ffffffff8000667a:	41 51                	push   r9
ffffffff8000667c:	41 52                	push   r10
ffffffff8000667e:	41 53                	push   r11
ffffffff80006680:	41 54                	push   r12
ffffffff80006682:	41 55                	push   r13
ffffffff80006684:	41 56                	push   r14
ffffffff80006686:	41 57                	push   r15
ffffffff80006688:	48 89 e7             	mov    rdi,rsp
ffffffff8000668b:	41 5f                	pop    r15
ffffffff8000668d:	41 5e                	pop    r14
ffffffff8000668f:	41 5d                	pop    r13
ffffffff80006691:	41 5c                	pop    r12
ffffffff80006693:	41 5b                	pop    r11
ffffffff80006695:	41 5a                	pop    r10
ffffffff80006697:	41 59                	pop    r9
ffffffff80006699:	41 58                	pop    r8
ffffffff8000669b:	5d                   	pop    rbp
ffffffff8000669c:	5f                   	pop    rdi
ffffffff8000669d:	5e                   	pop    rsi
ffffffff8000669e:	5a                   	pop    rdx
ffffffff8000669f:	59                   	pop    rcx
ffffffff800066a0:	5b                   	pop    rbx
ffffffff800066a1:	58                   	pop    rax
ffffffff800066a2:	48 83 c4 08          	add    rsp,0x8
ffffffff800066a6:	48 83 c4 08          	add    rsp,0x8
ffffffff800066aa:	48 cf                	iretq

ffffffff800066ac <isr_21>:
ffffffff800066ac:	6a 00                	push   0x0
ffffffff800066ae:	6a 15                	push   0x15
ffffffff800066b0:	50                   	push   rax
ffffffff800066b1:	53                   	push   rbx
ffffffff800066b2:	51                   	push   rcx
ffffffff800066b3:	52                   	push   rdx
ffffffff800066b4:	56                   	push   rsi
ffffffff800066b5:	57                   	push   rdi
ffffffff800066b6:	55                   	push   rbp
ffffffff800066b7:	41 50                	push   r8
ffffffff800066b9:	41 51                	push   r9
ffffffff800066bb:	41 52                	push   r10
ffffffff800066bd:	41 53                	push   r11
ffffffff800066bf:	41 54                	push   r12
ffffffff800066c1:	41 55                	push   r13
ffffffff800066c3:	41 56                	push   r14
ffffffff800066c5:	41 57                	push   r15
ffffffff800066c7:	48 89 e7             	mov    rdi,rsp
ffffffff800066ca:	41 5f                	pop    r15
ffffffff800066cc:	41 5e                	pop    r14
ffffffff800066ce:	41 5d                	pop    r13
ffffffff800066d0:	41 5c                	pop    r12
ffffffff800066d2:	41 5b                	pop    r11
ffffffff800066d4:	41 5a                	pop    r10
ffffffff800066d6:	41 59                	pop    r9
ffffffff800066d8:	41 58                	pop    r8
ffffffff800066da:	5d                   	pop    rbp
ffffffff800066db:	5f                   	pop    rdi
ffffffff800066dc:	5e                   	pop    rsi
ffffffff800066dd:	5a                   	pop    rdx
ffffffff800066de:	59                   	pop    rcx
ffffffff800066df:	5b                   	pop    rbx
ffffffff800066e0:	58                   	pop    rax
ffffffff800066e1:	48 83 c4 08          	add    rsp,0x8
ffffffff800066e5:	48 83 c4 08          	add    rsp,0x8
ffffffff800066e9:	48 cf                	iretq

ffffffff800066eb <isr_22>:
ffffffff800066eb:	6a 00                	push   0x0
ffffffff800066ed:	6a 16                	push   0x16
ffffffff800066ef:	50                   	push   rax
ffffffff800066f0:	53                   	push   rbx
ffffffff800066f1:	51                   	push   rcx
ffffffff800066f2:	52                   	push   rdx
ffffffff800066f3:	56                   	push   rsi
ffffffff800066f4:	57                   	push   rdi
ffffffff800066f5:	55                   	push   rbp
ffffffff800066f6:	41 50                	push   r8
ffffffff800066f8:	41 51                	push   r9
ffffffff800066fa:	41 52                	push   r10
ffffffff800066fc:	41 53                	push   r11
ffffffff800066fe:	41 54                	push   r12
ffffffff80006700:	41 55                	push   r13
ffffffff80006702:	41 56                	push   r14
ffffffff80006704:	41 57                	push   r15
ffffffff80006706:	48 89 e7             	mov    rdi,rsp
ffffffff80006709:	41 5f                	pop    r15
ffffffff8000670b:	41 5e                	pop    r14
ffffffff8000670d:	41 5d                	pop    r13
ffffffff8000670f:	41 5c                	pop    r12
ffffffff80006711:	41 5b                	pop    r11
ffffffff80006713:	41 5a                	pop    r10
ffffffff80006715:	41 59                	pop    r9
ffffffff80006717:	41 58                	pop    r8
ffffffff80006719:	5d                   	pop    rbp
ffffffff8000671a:	5f                   	pop    rdi
ffffffff8000671b:	5e                   	pop    rsi
ffffffff8000671c:	5a                   	pop    rdx
ffffffff8000671d:	59                   	pop    rcx
ffffffff8000671e:	5b                   	pop    rbx
ffffffff8000671f:	58                   	pop    rax
ffffffff80006720:	48 83 c4 08          	add    rsp,0x8
ffffffff80006724:	48 83 c4 08          	add    rsp,0x8
ffffffff80006728:	48 cf                	iretq

ffffffff8000672a <isr_23>:
ffffffff8000672a:	6a 00                	push   0x0
ffffffff8000672c:	6a 17                	push   0x17
ffffffff8000672e:	50                   	push   rax
ffffffff8000672f:	53                   	push   rbx
ffffffff80006730:	51                   	push   rcx
ffffffff80006731:	52                   	push   rdx
ffffffff80006732:	56                   	push   rsi
ffffffff80006733:	57                   	push   rdi
ffffffff80006734:	55                   	push   rbp
ffffffff80006735:	41 50                	push   r8
ffffffff80006737:	41 51                	push   r9
ffffffff80006739:	41 52                	push   r10
ffffffff8000673b:	41 53                	push   r11
ffffffff8000673d:	41 54                	push   r12
ffffffff8000673f:	41 55                	push   r13
ffffffff80006741:	41 56                	push   r14
ffffffff80006743:	41 57                	push   r15
ffffffff80006745:	48 89 e7             	mov    rdi,rsp
ffffffff80006748:	41 5f                	pop    r15
ffffffff8000674a:	41 5e                	pop    r14
ffffffff8000674c:	41 5d                	pop    r13
ffffffff8000674e:	41 5c                	pop    r12
ffffffff80006750:	41 5b                	pop    r11
ffffffff80006752:	41 5a                	pop    r10
ffffffff80006754:	41 59                	pop    r9
ffffffff80006756:	41 58                	pop    r8
ffffffff80006758:	5d                   	pop    rbp
ffffffff80006759:	5f                   	pop    rdi
ffffffff8000675a:	5e                   	pop    rsi
ffffffff8000675b:	5a                   	pop    rdx
ffffffff8000675c:	59                   	pop    rcx
ffffffff8000675d:	5b                   	pop    rbx
ffffffff8000675e:	58                   	pop    rax
ffffffff8000675f:	48 83 c4 08          	add    rsp,0x8
ffffffff80006763:	48 83 c4 08          	add    rsp,0x8
ffffffff80006767:	48 cf                	iretq

ffffffff80006769 <isr_24>:
ffffffff80006769:	6a 00                	push   0x0
ffffffff8000676b:	6a 18                	push   0x18
ffffffff8000676d:	50                   	push   rax
ffffffff8000676e:	53                   	push   rbx
ffffffff8000676f:	51                   	push   rcx
ffffffff80006770:	52                   	push   rdx
ffffffff80006771:	56                   	push   rsi
ffffffff80006772:	57                   	push   rdi
ffffffff80006773:	55                   	push   rbp
ffffffff80006774:	41 50                	push   r8
ffffffff80006776:	41 51                	push   r9
ffffffff80006778:	41 52                	push   r10
ffffffff8000677a:	41 53                	push   r11
ffffffff8000677c:	41 54                	push   r12
ffffffff8000677e:	41 55                	push   r13
ffffffff80006780:	41 56                	push   r14
ffffffff80006782:	41 57                	push   r15
ffffffff80006784:	48 89 e7             	mov    rdi,rsp
ffffffff80006787:	41 5f                	pop    r15
ffffffff80006789:	41 5e                	pop    r14
ffffffff8000678b:	41 5d                	pop    r13
ffffffff8000678d:	41 5c                	pop    r12
ffffffff8000678f:	41 5b                	pop    r11
ffffffff80006791:	41 5a                	pop    r10
ffffffff80006793:	41 59                	pop    r9
ffffffff80006795:	41 58                	pop    r8
ffffffff80006797:	5d                   	pop    rbp
ffffffff80006798:	5f                   	pop    rdi
ffffffff80006799:	5e                   	pop    rsi
ffffffff8000679a:	5a                   	pop    rdx
ffffffff8000679b:	59                   	pop    rcx
ffffffff8000679c:	5b                   	pop    rbx
ffffffff8000679d:	58                   	pop    rax
ffffffff8000679e:	48 83 c4 08          	add    rsp,0x8
ffffffff800067a2:	48 83 c4 08          	add    rsp,0x8
ffffffff800067a6:	48 cf                	iretq

ffffffff800067a8 <isr_25>:
ffffffff800067a8:	6a 00                	push   0x0
ffffffff800067aa:	6a 19                	push   0x19
ffffffff800067ac:	50                   	push   rax
ffffffff800067ad:	53                   	push   rbx
ffffffff800067ae:	51                   	push   rcx
ffffffff800067af:	52                   	push   rdx
ffffffff800067b0:	56                   	push   rsi
ffffffff800067b1:	57                   	push   rdi
ffffffff800067b2:	55                   	push   rbp
ffffffff800067b3:	41 50                	push   r8
ffffffff800067b5:	41 51                	push   r9
ffffffff800067b7:	41 52                	push   r10
ffffffff800067b9:	41 53                	push   r11
ffffffff800067bb:	41 54                	push   r12
ffffffff800067bd:	41 55                	push   r13
ffffffff800067bf:	41 56                	push   r14
ffffffff800067c1:	41 57                	push   r15
ffffffff800067c3:	48 89 e7             	mov    rdi,rsp
ffffffff800067c6:	41 5f                	pop    r15
ffffffff800067c8:	41 5e                	pop    r14
ffffffff800067ca:	41 5d                	pop    r13
ffffffff800067cc:	41 5c                	pop    r12
ffffffff800067ce:	41 5b                	pop    r11
ffffffff800067d0:	41 5a                	pop    r10
ffffffff800067d2:	41 59                	pop    r9
ffffffff800067d4:	41 58                	pop    r8
ffffffff800067d6:	5d                   	pop    rbp
ffffffff800067d7:	5f                   	pop    rdi
ffffffff800067d8:	5e                   	pop    rsi
ffffffff800067d9:	5a                   	pop    rdx
ffffffff800067da:	59                   	pop    rcx
ffffffff800067db:	5b                   	pop    rbx
ffffffff800067dc:	58                   	pop    rax
ffffffff800067dd:	48 83 c4 08          	add    rsp,0x8
ffffffff800067e1:	48 83 c4 08          	add    rsp,0x8
ffffffff800067e5:	48 cf                	iretq

ffffffff800067e7 <isr_26>:
ffffffff800067e7:	6a 00                	push   0x0
ffffffff800067e9:	6a 1a                	push   0x1a
ffffffff800067eb:	50                   	push   rax
ffffffff800067ec:	53                   	push   rbx
ffffffff800067ed:	51                   	push   rcx
ffffffff800067ee:	52                   	push   rdx
ffffffff800067ef:	56                   	push   rsi
ffffffff800067f0:	57                   	push   rdi
ffffffff800067f1:	55                   	push   rbp
ffffffff800067f2:	41 50                	push   r8
ffffffff800067f4:	41 51                	push   r9
ffffffff800067f6:	41 52                	push   r10
ffffffff800067f8:	41 53                	push   r11
ffffffff800067fa:	41 54                	push   r12
ffffffff800067fc:	41 55                	push   r13
ffffffff800067fe:	41 56                	push   r14
ffffffff80006800:	41 57                	push   r15
ffffffff80006802:	48 89 e7             	mov    rdi,rsp
ffffffff80006805:	41 5f                	pop    r15
ffffffff80006807:	41 5e                	pop    r14
ffffffff80006809:	41 5d                	pop    r13
ffffffff8000680b:	41 5c                	pop    r12
ffffffff8000680d:	41 5b                	pop    r11
ffffffff8000680f:	41 5a                	pop    r10
ffffffff80006811:	41 59                	pop    r9
ffffffff80006813:	41 58                	pop    r8
ffffffff80006815:	5d                   	pop    rbp
ffffffff80006816:	5f                   	pop    rdi
ffffffff80006817:	5e                   	pop    rsi
ffffffff80006818:	5a                   	pop    rdx
ffffffff80006819:	59                   	pop    rcx
ffffffff8000681a:	5b                   	pop    rbx
ffffffff8000681b:	58                   	pop    rax
ffffffff8000681c:	48 83 c4 08          	add    rsp,0x8
ffffffff80006820:	48 83 c4 08          	add    rsp,0x8
ffffffff80006824:	48 cf                	iretq

ffffffff80006826 <isr_27>:
ffffffff80006826:	6a 00                	push   0x0
ffffffff80006828:	6a 1b                	push   0x1b
ffffffff8000682a:	50                   	push   rax
ffffffff8000682b:	53                   	push   rbx
ffffffff8000682c:	51                   	push   rcx
ffffffff8000682d:	52                   	push   rdx
ffffffff8000682e:	56                   	push   rsi
ffffffff8000682f:	57                   	push   rdi
ffffffff80006830:	55                   	push   rbp
ffffffff80006831:	41 50                	push   r8
ffffffff80006833:	41 51                	push   r9
ffffffff80006835:	41 52                	push   r10
ffffffff80006837:	41 53                	push   r11
ffffffff80006839:	41 54                	push   r12
ffffffff8000683b:	41 55                	push   r13
ffffffff8000683d:	41 56                	push   r14
ffffffff8000683f:	41 57                	push   r15
ffffffff80006841:	48 89 e7             	mov    rdi,rsp
ffffffff80006844:	41 5f                	pop    r15
ffffffff80006846:	41 5e                	pop    r14
ffffffff80006848:	41 5d                	pop    r13
ffffffff8000684a:	41 5c                	pop    r12
ffffffff8000684c:	41 5b                	pop    r11
ffffffff8000684e:	41 5a                	pop    r10
ffffffff80006850:	41 59                	pop    r9
ffffffff80006852:	41 58                	pop    r8
ffffffff80006854:	5d                   	pop    rbp
ffffffff80006855:	5f                   	pop    rdi
ffffffff80006856:	5e                   	pop    rsi
ffffffff80006857:	5a                   	pop    rdx
ffffffff80006858:	59                   	pop    rcx
ffffffff80006859:	5b                   	pop    rbx
ffffffff8000685a:	58                   	pop    rax
ffffffff8000685b:	48 83 c4 08          	add    rsp,0x8
ffffffff8000685f:	48 83 c4 08          	add    rsp,0x8
ffffffff80006863:	48 cf                	iretq

ffffffff80006865 <isr_28>:
ffffffff80006865:	6a 00                	push   0x0
ffffffff80006867:	6a 1c                	push   0x1c
ffffffff80006869:	50                   	push   rax
ffffffff8000686a:	53                   	push   rbx
ffffffff8000686b:	51                   	push   rcx
ffffffff8000686c:	52                   	push   rdx
ffffffff8000686d:	56                   	push   rsi
ffffffff8000686e:	57                   	push   rdi
ffffffff8000686f:	55                   	push   rbp
ffffffff80006870:	41 50                	push   r8
ffffffff80006872:	41 51                	push   r9
ffffffff80006874:	41 52                	push   r10
ffffffff80006876:	41 53                	push   r11
ffffffff80006878:	41 54                	push   r12
ffffffff8000687a:	41 55                	push   r13
ffffffff8000687c:	41 56                	push   r14
ffffffff8000687e:	41 57                	push   r15
ffffffff80006880:	48 89 e7             	mov    rdi,rsp
ffffffff80006883:	41 5f                	pop    r15
ffffffff80006885:	41 5e                	pop    r14
ffffffff80006887:	41 5d                	pop    r13
ffffffff80006889:	41 5c                	pop    r12
ffffffff8000688b:	41 5b                	pop    r11
ffffffff8000688d:	41 5a                	pop    r10
ffffffff8000688f:	41 59                	pop    r9
ffffffff80006891:	41 58                	pop    r8
ffffffff80006893:	5d                   	pop    rbp
ffffffff80006894:	5f                   	pop    rdi
ffffffff80006895:	5e                   	pop    rsi
ffffffff80006896:	5a                   	pop    rdx
ffffffff80006897:	59                   	pop    rcx
ffffffff80006898:	5b                   	pop    rbx
ffffffff80006899:	58                   	pop    rax
ffffffff8000689a:	48 83 c4 08          	add    rsp,0x8
ffffffff8000689e:	48 83 c4 08          	add    rsp,0x8
ffffffff800068a2:	48 cf                	iretq

ffffffff800068a4 <isr_29>:
ffffffff800068a4:	6a 00                	push   0x0
ffffffff800068a6:	6a 1d                	push   0x1d
ffffffff800068a8:	50                   	push   rax
ffffffff800068a9:	53                   	push   rbx
ffffffff800068aa:	51                   	push   rcx
ffffffff800068ab:	52                   	push   rdx
ffffffff800068ac:	56                   	push   rsi
ffffffff800068ad:	57                   	push   rdi
ffffffff800068ae:	55                   	push   rbp
ffffffff800068af:	41 50                	push   r8
ffffffff800068b1:	41 51                	push   r9
ffffffff800068b3:	41 52                	push   r10
ffffffff800068b5:	41 53                	push   r11
ffffffff800068b7:	41 54                	push   r12
ffffffff800068b9:	41 55                	push   r13
ffffffff800068bb:	41 56                	push   r14
ffffffff800068bd:	41 57                	push   r15
ffffffff800068bf:	48 89 e7             	mov    rdi,rsp
ffffffff800068c2:	41 5f                	pop    r15
ffffffff800068c4:	41 5e                	pop    r14
ffffffff800068c6:	41 5d                	pop    r13
ffffffff800068c8:	41 5c                	pop    r12
ffffffff800068ca:	41 5b                	pop    r11
ffffffff800068cc:	41 5a                	pop    r10
ffffffff800068ce:	41 59                	pop    r9
ffffffff800068d0:	41 58                	pop    r8
ffffffff800068d2:	5d                   	pop    rbp
ffffffff800068d3:	5f                   	pop    rdi
ffffffff800068d4:	5e                   	pop    rsi
ffffffff800068d5:	5a                   	pop    rdx
ffffffff800068d6:	59                   	pop    rcx
ffffffff800068d7:	5b                   	pop    rbx
ffffffff800068d8:	58                   	pop    rax
ffffffff800068d9:	48 83 c4 08          	add    rsp,0x8
ffffffff800068dd:	48 83 c4 08          	add    rsp,0x8
ffffffff800068e1:	48 cf                	iretq

ffffffff800068e3 <isr_30>:
ffffffff800068e3:	6a 00                	push   0x0
ffffffff800068e5:	6a 1e                	push   0x1e
ffffffff800068e7:	50                   	push   rax
ffffffff800068e8:	53                   	push   rbx
ffffffff800068e9:	51                   	push   rcx
ffffffff800068ea:	52                   	push   rdx
ffffffff800068eb:	56                   	push   rsi
ffffffff800068ec:	57                   	push   rdi
ffffffff800068ed:	55                   	push   rbp
ffffffff800068ee:	41 50                	push   r8
ffffffff800068f0:	41 51                	push   r9
ffffffff800068f2:	41 52                	push   r10
ffffffff800068f4:	41 53                	push   r11
ffffffff800068f6:	41 54                	push   r12
ffffffff800068f8:	41 55                	push   r13
ffffffff800068fa:	41 56                	push   r14
ffffffff800068fc:	41 57                	push   r15
ffffffff800068fe:	48 89 e7             	mov    rdi,rsp
ffffffff80006901:	41 5f                	pop    r15
ffffffff80006903:	41 5e                	pop    r14
ffffffff80006905:	41 5d                	pop    r13
ffffffff80006907:	41 5c                	pop    r12
ffffffff80006909:	41 5b                	pop    r11
ffffffff8000690b:	41 5a                	pop    r10
ffffffff8000690d:	41 59                	pop    r9
ffffffff8000690f:	41 58                	pop    r8
ffffffff80006911:	5d                   	pop    rbp
ffffffff80006912:	5f                   	pop    rdi
ffffffff80006913:	5e                   	pop    rsi
ffffffff80006914:	5a                   	pop    rdx
ffffffff80006915:	59                   	pop    rcx
ffffffff80006916:	5b                   	pop    rbx
ffffffff80006917:	58                   	pop    rax
ffffffff80006918:	48 83 c4 08          	add    rsp,0x8
ffffffff8000691c:	48 83 c4 08          	add    rsp,0x8
ffffffff80006920:	48 cf                	iretq

ffffffff80006922 <isr_31>:
ffffffff80006922:	6a 00                	push   0x0
ffffffff80006924:	6a 1f                	push   0x1f
ffffffff80006926:	50                   	push   rax
ffffffff80006927:	53                   	push   rbx
ffffffff80006928:	51                   	push   rcx
ffffffff80006929:	52                   	push   rdx
ffffffff8000692a:	56                   	push   rsi
ffffffff8000692b:	57                   	push   rdi
ffffffff8000692c:	55                   	push   rbp
ffffffff8000692d:	41 50                	push   r8
ffffffff8000692f:	41 51                	push   r9
ffffffff80006931:	41 52                	push   r10
ffffffff80006933:	41 53                	push   r11
ffffffff80006935:	41 54                	push   r12
ffffffff80006937:	41 55                	push   r13
ffffffff80006939:	41 56                	push   r14
ffffffff8000693b:	41 57                	push   r15
ffffffff8000693d:	48 89 e7             	mov    rdi,rsp
ffffffff80006940:	41 5f                	pop    r15
ffffffff80006942:	41 5e                	pop    r14
ffffffff80006944:	41 5d                	pop    r13
ffffffff80006946:	41 5c                	pop    r12
ffffffff80006948:	41 5b                	pop    r11
ffffffff8000694a:	41 5a                	pop    r10
ffffffff8000694c:	41 59                	pop    r9
ffffffff8000694e:	41 58                	pop    r8
ffffffff80006950:	5d                   	pop    rbp
ffffffff80006951:	5f                   	pop    rdi
ffffffff80006952:	5e                   	pop    rsi
ffffffff80006953:	5a                   	pop    rdx
ffffffff80006954:	59                   	pop    rcx
ffffffff80006955:	5b                   	pop    rbx
ffffffff80006956:	58                   	pop    rax
ffffffff80006957:	48 83 c4 08          	add    rsp,0x8
ffffffff8000695b:	48 83 c4 08          	add    rsp,0x8
ffffffff8000695f:	48 cf                	iretq
ffffffff80006961:	0f 1f 80 00 00 00 00 	nop    DWORD PTR [rax+0x0]

ffffffff80006968 <isr_stub_table>:
ffffffff80006968:	88 61 00             	mov    BYTE PTR [rcx+0x0],ah
ffffffff8000696b:	80 ff ff             	cmp    bh,0xff
ffffffff8000696e:	ff                   	(bad)
ffffffff8000696f:	ff c7                	inc    edi
ffffffff80006971:	61                   	(bad)
ffffffff80006972:	00 80 ff ff ff ff    	add    BYTE PTR [rax-0x1],al
ffffffff80006978:	06                   	(bad)
ffffffff80006979:	62                   	(bad)
ffffffff8000697a:	00 80 ff ff ff ff    	add    BYTE PTR [rax-0x1],al
ffffffff80006980:	45 62                	rex.RB (bad)
ffffffff80006982:	00 80 ff ff ff ff    	add    BYTE PTR [rax-0x1],al
ffffffff80006988:	84 62 00             	test   BYTE PTR [rdx+0x0],ah
ffffffff8000698b:	80 ff ff             	cmp    bh,0xff
ffffffff8000698e:	ff                   	(bad)
ffffffff8000698f:	ff c3                	inc    ebx
ffffffff80006991:	62                   	(bad)
ffffffff80006992:	00 80 ff ff ff ff    	add    BYTE PTR [rax-0x1],al
ffffffff80006998:	02 63 00             	add    ah,BYTE PTR [rbx+0x0]
ffffffff8000699b:	80 ff ff             	cmp    bh,0xff
ffffffff8000699e:	ff                   	(bad)
ffffffff8000699f:	ff 41 63             	inc    DWORD PTR [rcx+0x63]
ffffffff800069a2:	00 80 ff ff ff ff    	add    BYTE PTR [rax-0x1],al
ffffffff800069a8:	80 63 00 80          	and    BYTE PTR [rbx+0x0],0x80
ffffffff800069ac:	ff                   	(bad)
ffffffff800069ad:	ff                   	(bad)
ffffffff800069ae:	ff                   	(bad)
ffffffff800069af:	ff                   	(bad)
ffffffff800069b0:	be 63 00 80 ff       	mov    esi,0xff800063
ffffffff800069b5:	ff                   	(bad)
ffffffff800069b6:	ff                   	(bad)
ffffffff800069b7:	ff                   	(bad)
ffffffff800069b8:	fd                   	std
ffffffff800069b9:	63 00                	movsxd eax,DWORD PTR [rax]
ffffffff800069bb:	80 ff ff             	cmp    bh,0xff
ffffffff800069be:	ff                   	(bad)
ffffffff800069bf:	ff                   	(bad)
ffffffff800069c0:	3b 64 00 80          	cmp    esp,DWORD PTR [rax+rax*1-0x80]
ffffffff800069c4:	ff                   	(bad)
ffffffff800069c5:	ff                   	(bad)
ffffffff800069c6:	ff                   	(bad)
ffffffff800069c7:	ff                   	(bad)
ffffffff800069c8:	79 64                	jns    ffffffff80006a2e <isr_stub_table+0xc6>
ffffffff800069ca:	00 80 ff ff ff ff    	add    BYTE PTR [rax-0x1],al
ffffffff800069d0:	b7 64                	mov    bh,0x64
ffffffff800069d2:	00 80 ff ff ff ff    	add    BYTE PTR [rax-0x1],al
ffffffff800069d8:	f5                   	cmc
ffffffff800069d9:	64 00 80 ff ff ff ff 	add    BYTE PTR fs:[rax-0x1],al
ffffffff800069e0:	33 65 00             	xor    esp,DWORD PTR [rbp+0x0]
ffffffff800069e3:	80 ff ff             	cmp    bh,0xff
ffffffff800069e6:	ff                   	(bad)
ffffffff800069e7:	ff 72 65             	push   QWORD PTR [rdx+0x65]
ffffffff800069ea:	00 80 ff ff ff ff    	add    BYTE PTR [rax-0x1],al
ffffffff800069f0:	b1 65                	mov    cl,0x65
ffffffff800069f2:	00 80 ff ff ff ff    	add    BYTE PTR [rax-0x1],al
ffffffff800069f8:	ef                   	out    dx,eax
ffffffff800069f9:	65 00 80 ff ff ff ff 	add    BYTE PTR gs:[rax-0x1],al
ffffffff80006a00:	2e 66 00 80 ff ff ff 	cs data16 add BYTE PTR [rax-0x1],al
ffffffff80006a07:	ff 
ffffffff80006a08:	6d                   	ins    DWORD PTR [rdi],dx
ffffffff80006a09:	66 00 80 ff ff ff ff 	data16 add BYTE PTR [rax-0x1],al
ffffffff80006a10:	ac                   	lods   al,BYTE PTR [rsi]
ffffffff80006a11:	66 00 80 ff ff ff ff 	data16 add BYTE PTR [rax-0x1],al
ffffffff80006a18:	eb 66                	jmp    ffffffff80006a80 <irq0+0x18>
ffffffff80006a1a:	00 80 ff ff ff ff    	add    BYTE PTR [rax-0x1],al
ffffffff80006a20:	2a 67 00             	sub    ah,BYTE PTR [rdi+0x0]
ffffffff80006a23:	80 ff ff             	cmp    bh,0xff
ffffffff80006a26:	ff                   	(bad)
ffffffff80006a27:	ff 69 67             	jmp    FWORD PTR [rcx+0x67]
ffffffff80006a2a:	00 80 ff ff ff ff    	add    BYTE PTR [rax-0x1],al
ffffffff80006a30:	a8 67                	test   al,0x67
ffffffff80006a32:	00 80 ff ff ff ff    	add    BYTE PTR [rax-0x1],al
ffffffff80006a38:	e7 67                	out    0x67,eax
ffffffff80006a3a:	00 80 ff ff ff ff    	add    BYTE PTR [rax-0x1],al
ffffffff80006a40:	26 68 00 80 ff ff    	es push 0xffffffffffff8000
ffffffff80006a46:	ff                   	(bad)
ffffffff80006a47:	ff 65 68             	jmp    QWORD PTR [rbp+0x68]
ffffffff80006a4a:	00 80 ff ff ff ff    	add    BYTE PTR [rax-0x1],al
ffffffff80006a50:	a4                   	movs   BYTE PTR [rdi],BYTE PTR [rsi]
ffffffff80006a51:	68 00 80 ff ff       	push   0xffffffffffff8000
ffffffff80006a56:	ff                   	(bad)
ffffffff80006a57:	ff e3                	jmp    rbx
ffffffff80006a59:	68 00 80 ff ff       	push   0xffffffffffff8000
ffffffff80006a5e:	ff                   	(bad)
ffffffff80006a5f:	ff 22                	jmp    QWORD PTR [rdx]
ffffffff80006a61:	69 00 80 ff ff ff    	imul   eax,DWORD PTR [rax],0xffffff80
ffffffff80006a67:	ff                   	.byte 0xff

ffffffff80006a68 <irq0>:
ffffffff80006a68:	6a 00                	push   0x0
ffffffff80006a6a:	6a 20                	push   0x20
ffffffff80006a6c:	50                   	push   rax
ffffffff80006a6d:	53                   	push   rbx
ffffffff80006a6e:	51                   	push   rcx
ffffffff80006a6f:	52                   	push   rdx
ffffffff80006a70:	56                   	push   rsi
ffffffff80006a71:	57                   	push   rdi
ffffffff80006a72:	55                   	push   rbp
ffffffff80006a73:	41 50                	push   r8
ffffffff80006a75:	41 51                	push   r9
ffffffff80006a77:	41 52                	push   r10
ffffffff80006a79:	41 53                	push   r11
ffffffff80006a7b:	41 54                	push   r12
ffffffff80006a7d:	41 55                	push   r13
ffffffff80006a7f:	41 56                	push   r14
ffffffff80006a81:	41 57                	push   r15
ffffffff80006a83:	48 89 e7             	mov    rdi,rsp
ffffffff80006a86:	e8 25 af ff ff       	call   ffffffff800019b0 <timer_handle>
ffffffff80006a8b:	48 89 c4             	mov    rsp,rax
ffffffff80006a8e:	b0 20                	mov    al,0x20
ffffffff80006a90:	e6 20                	out    0x20,al
ffffffff80006a92:	41 5f                	pop    r15
ffffffff80006a94:	41 5e                	pop    r14
ffffffff80006a96:	41 5d                	pop    r13
ffffffff80006a98:	41 5c                	pop    r12
ffffffff80006a9a:	41 5b                	pop    r11
ffffffff80006a9c:	41 5a                	pop    r10
ffffffff80006a9e:	41 59                	pop    r9
ffffffff80006aa0:	41 58                	pop    r8
ffffffff80006aa2:	5d                   	pop    rbp
ffffffff80006aa3:	5f                   	pop    rdi
ffffffff80006aa4:	5e                   	pop    rsi
ffffffff80006aa5:	5a                   	pop    rdx
ffffffff80006aa6:	59                   	pop    rcx
ffffffff80006aa7:	5b                   	pop    rbx
ffffffff80006aa8:	58                   	pop    rax
ffffffff80006aa9:	48 83 c4 10          	add    rsp,0x10
ffffffff80006aad:	48 cf                	iretq

ffffffff80006aaf <irq1>:
ffffffff80006aaf:	6a 00                	push   0x0
ffffffff80006ab1:	6a 21                	push   0x21
ffffffff80006ab3:	50                   	push   rax
ffffffff80006ab4:	53                   	push   rbx
ffffffff80006ab5:	51                   	push   rcx
ffffffff80006ab6:	52                   	push   rdx
ffffffff80006ab7:	56                   	push   rsi
ffffffff80006ab8:	57                   	push   rdi
ffffffff80006ab9:	55                   	push   rbp
ffffffff80006aba:	41 50                	push   r8
ffffffff80006abc:	41 51                	push   r9
ffffffff80006abe:	41 52                	push   r10
ffffffff80006ac0:	41 53                	push   r11
ffffffff80006ac2:	41 54                	push   r12
ffffffff80006ac4:	41 55                	push   r13
ffffffff80006ac6:	41 56                	push   r14
ffffffff80006ac8:	41 57                	push   r15
ffffffff80006aca:	48 c7 c7 01 00 00 00 	mov    rdi,0x1
ffffffff80006ad1:	48 8d 34 24          	lea    rsi,[rsp]
ffffffff80006ad5:	e8 26 af ff ff       	call   ffffffff80001a00 <irq_handler>
ffffffff80006ada:	41 5f                	pop    r15
ffffffff80006adc:	41 5e                	pop    r14
ffffffff80006ade:	41 5d                	pop    r13
ffffffff80006ae0:	41 5c                	pop    r12
ffffffff80006ae2:	41 5b                	pop    r11
ffffffff80006ae4:	41 5a                	pop    r10
ffffffff80006ae6:	41 59                	pop    r9
ffffffff80006ae8:	41 58                	pop    r8
ffffffff80006aea:	5d                   	pop    rbp
ffffffff80006aeb:	5f                   	pop    rdi
ffffffff80006aec:	5e                   	pop    rsi
ffffffff80006aed:	5a                   	pop    rdx
ffffffff80006aee:	59                   	pop    rcx
ffffffff80006aef:	5b                   	pop    rbx
ffffffff80006af0:	58                   	pop    rax
ffffffff80006af1:	48 83 c4 10          	add    rsp,0x10
ffffffff80006af5:	48 cf                	iretq

ffffffff80006af7 <irq2>:
ffffffff80006af7:	6a 00                	push   0x0
ffffffff80006af9:	6a 22                	push   0x22
ffffffff80006afb:	50                   	push   rax
ffffffff80006afc:	53                   	push   rbx
ffffffff80006afd:	51                   	push   rcx
ffffffff80006afe:	52                   	push   rdx
ffffffff80006aff:	56                   	push   rsi
ffffffff80006b00:	57                   	push   rdi
ffffffff80006b01:	55                   	push   rbp
ffffffff80006b02:	41 50                	push   r8
ffffffff80006b04:	41 51                	push   r9
ffffffff80006b06:	41 52                	push   r10
ffffffff80006b08:	41 53                	push   r11
ffffffff80006b0a:	41 54                	push   r12
ffffffff80006b0c:	41 55                	push   r13
ffffffff80006b0e:	41 56                	push   r14
ffffffff80006b10:	41 57                	push   r15
ffffffff80006b12:	48 c7 c7 02 00 00 00 	mov    rdi,0x2
ffffffff80006b19:	48 8d 34 24          	lea    rsi,[rsp]
ffffffff80006b1d:	e8 de ae ff ff       	call   ffffffff80001a00 <irq_handler>
ffffffff80006b22:	41 5f                	pop    r15
ffffffff80006b24:	41 5e                	pop    r14
ffffffff80006b26:	41 5d                	pop    r13
ffffffff80006b28:	41 5c                	pop    r12
ffffffff80006b2a:	41 5b                	pop    r11
ffffffff80006b2c:	41 5a                	pop    r10
ffffffff80006b2e:	41 59                	pop    r9
ffffffff80006b30:	41 58                	pop    r8
ffffffff80006b32:	5d                   	pop    rbp
ffffffff80006b33:	5f                   	pop    rdi
ffffffff80006b34:	5e                   	pop    rsi
ffffffff80006b35:	5a                   	pop    rdx
ffffffff80006b36:	59                   	pop    rcx
ffffffff80006b37:	5b                   	pop    rbx
ffffffff80006b38:	58                   	pop    rax
ffffffff80006b39:	48 83 c4 10          	add    rsp,0x10
ffffffff80006b3d:	48 cf                	iretq

ffffffff80006b3f <irq3>:
ffffffff80006b3f:	6a 00                	push   0x0
ffffffff80006b41:	6a 23                	push   0x23
ffffffff80006b43:	50                   	push   rax
ffffffff80006b44:	53                   	push   rbx
ffffffff80006b45:	51                   	push   rcx
ffffffff80006b46:	52                   	push   rdx
ffffffff80006b47:	56                   	push   rsi
ffffffff80006b48:	57                   	push   rdi
ffffffff80006b49:	55                   	push   rbp
ffffffff80006b4a:	41 50                	push   r8
ffffffff80006b4c:	41 51                	push   r9
ffffffff80006b4e:	41 52                	push   r10
ffffffff80006b50:	41 53                	push   r11
ffffffff80006b52:	41 54                	push   r12
ffffffff80006b54:	41 55                	push   r13
ffffffff80006b56:	41 56                	push   r14
ffffffff80006b58:	41 57                	push   r15
ffffffff80006b5a:	48 c7 c7 03 00 00 00 	mov    rdi,0x3
ffffffff80006b61:	48 8d 34 24          	lea    rsi,[rsp]
ffffffff80006b65:	e8 96 ae ff ff       	call   ffffffff80001a00 <irq_handler>
ffffffff80006b6a:	41 5f                	pop    r15
ffffffff80006b6c:	41 5e                	pop    r14
ffffffff80006b6e:	41 5d                	pop    r13
ffffffff80006b70:	41 5c                	pop    r12
ffffffff80006b72:	41 5b                	pop    r11
ffffffff80006b74:	41 5a                	pop    r10
ffffffff80006b76:	41 59                	pop    r9
ffffffff80006b78:	41 58                	pop    r8
ffffffff80006b7a:	5d                   	pop    rbp
ffffffff80006b7b:	5f                   	pop    rdi
ffffffff80006b7c:	5e                   	pop    rsi
ffffffff80006b7d:	5a                   	pop    rdx
ffffffff80006b7e:	59                   	pop    rcx
ffffffff80006b7f:	5b                   	pop    rbx
ffffffff80006b80:	58                   	pop    rax
ffffffff80006b81:	48 83 c4 10          	add    rsp,0x10
ffffffff80006b85:	48 cf                	iretq

ffffffff80006b87 <irq4>:
ffffffff80006b87:	6a 00                	push   0x0
ffffffff80006b89:	6a 24                	push   0x24
ffffffff80006b8b:	50                   	push   rax
ffffffff80006b8c:	53                   	push   rbx
ffffffff80006b8d:	51                   	push   rcx
ffffffff80006b8e:	52                   	push   rdx
ffffffff80006b8f:	56                   	push   rsi
ffffffff80006b90:	57                   	push   rdi
ffffffff80006b91:	55                   	push   rbp
ffffffff80006b92:	41 50                	push   r8
ffffffff80006b94:	41 51                	push   r9
ffffffff80006b96:	41 52                	push   r10
ffffffff80006b98:	41 53                	push   r11
ffffffff80006b9a:	41 54                	push   r12
ffffffff80006b9c:	41 55                	push   r13
ffffffff80006b9e:	41 56                	push   r14
ffffffff80006ba0:	41 57                	push   r15
ffffffff80006ba2:	48 c7 c7 04 00 00 00 	mov    rdi,0x4
ffffffff80006ba9:	48 8d 34 24          	lea    rsi,[rsp]
ffffffff80006bad:	e8 4e ae ff ff       	call   ffffffff80001a00 <irq_handler>
ffffffff80006bb2:	41 5f                	pop    r15
ffffffff80006bb4:	41 5e                	pop    r14
ffffffff80006bb6:	41 5d                	pop    r13
ffffffff80006bb8:	41 5c                	pop    r12
ffffffff80006bba:	41 5b                	pop    r11
ffffffff80006bbc:	41 5a                	pop    r10
ffffffff80006bbe:	41 59                	pop    r9
ffffffff80006bc0:	41 58                	pop    r8
ffffffff80006bc2:	5d                   	pop    rbp
ffffffff80006bc3:	5f                   	pop    rdi
ffffffff80006bc4:	5e                   	pop    rsi
ffffffff80006bc5:	5a                   	pop    rdx
ffffffff80006bc6:	59                   	pop    rcx
ffffffff80006bc7:	5b                   	pop    rbx
ffffffff80006bc8:	58                   	pop    rax
ffffffff80006bc9:	48 83 c4 10          	add    rsp,0x10
ffffffff80006bcd:	48 cf                	iretq

ffffffff80006bcf <irq5>:
ffffffff80006bcf:	6a 00                	push   0x0
ffffffff80006bd1:	6a 25                	push   0x25
ffffffff80006bd3:	50                   	push   rax
ffffffff80006bd4:	53                   	push   rbx
ffffffff80006bd5:	51                   	push   rcx
ffffffff80006bd6:	52                   	push   rdx
ffffffff80006bd7:	56                   	push   rsi
ffffffff80006bd8:	57                   	push   rdi
ffffffff80006bd9:	55                   	push   rbp
ffffffff80006bda:	41 50                	push   r8
ffffffff80006bdc:	41 51                	push   r9
ffffffff80006bde:	41 52                	push   r10
ffffffff80006be0:	41 53                	push   r11
ffffffff80006be2:	41 54                	push   r12
ffffffff80006be4:	41 55                	push   r13
ffffffff80006be6:	41 56                	push   r14
ffffffff80006be8:	41 57                	push   r15
ffffffff80006bea:	48 c7 c7 05 00 00 00 	mov    rdi,0x5
ffffffff80006bf1:	48 8d 34 24          	lea    rsi,[rsp]
ffffffff80006bf5:	e8 06 ae ff ff       	call   ffffffff80001a00 <irq_handler>
ffffffff80006bfa:	41 5f                	pop    r15
ffffffff80006bfc:	41 5e                	pop    r14
ffffffff80006bfe:	41 5d                	pop    r13
ffffffff80006c00:	41 5c                	pop    r12
ffffffff80006c02:	41 5b                	pop    r11
ffffffff80006c04:	41 5a                	pop    r10
ffffffff80006c06:	41 59                	pop    r9
ffffffff80006c08:	41 58                	pop    r8
ffffffff80006c0a:	5d                   	pop    rbp
ffffffff80006c0b:	5f                   	pop    rdi
ffffffff80006c0c:	5e                   	pop    rsi
ffffffff80006c0d:	5a                   	pop    rdx
ffffffff80006c0e:	59                   	pop    rcx
ffffffff80006c0f:	5b                   	pop    rbx
ffffffff80006c10:	58                   	pop    rax
ffffffff80006c11:	48 83 c4 10          	add    rsp,0x10
ffffffff80006c15:	48 cf                	iretq

ffffffff80006c17 <irq6>:
ffffffff80006c17:	6a 00                	push   0x0
ffffffff80006c19:	6a 26                	push   0x26
ffffffff80006c1b:	50                   	push   rax
ffffffff80006c1c:	53                   	push   rbx
ffffffff80006c1d:	51                   	push   rcx
ffffffff80006c1e:	52                   	push   rdx
ffffffff80006c1f:	56                   	push   rsi
ffffffff80006c20:	57                   	push   rdi
ffffffff80006c21:	55                   	push   rbp
ffffffff80006c22:	41 50                	push   r8
ffffffff80006c24:	41 51                	push   r9
ffffffff80006c26:	41 52                	push   r10
ffffffff80006c28:	41 53                	push   r11
ffffffff80006c2a:	41 54                	push   r12
ffffffff80006c2c:	41 55                	push   r13
ffffffff80006c2e:	41 56                	push   r14
ffffffff80006c30:	41 57                	push   r15
ffffffff80006c32:	48 c7 c7 06 00 00 00 	mov    rdi,0x6
ffffffff80006c39:	48 8d 34 24          	lea    rsi,[rsp]
ffffffff80006c3d:	e8 be ad ff ff       	call   ffffffff80001a00 <irq_handler>
ffffffff80006c42:	41 5f                	pop    r15
ffffffff80006c44:	41 5e                	pop    r14
ffffffff80006c46:	41 5d                	pop    r13
ffffffff80006c48:	41 5c                	pop    r12
ffffffff80006c4a:	41 5b                	pop    r11
ffffffff80006c4c:	41 5a                	pop    r10
ffffffff80006c4e:	41 59                	pop    r9
ffffffff80006c50:	41 58                	pop    r8
ffffffff80006c52:	5d                   	pop    rbp
ffffffff80006c53:	5f                   	pop    rdi
ffffffff80006c54:	5e                   	pop    rsi
ffffffff80006c55:	5a                   	pop    rdx
ffffffff80006c56:	59                   	pop    rcx
ffffffff80006c57:	5b                   	pop    rbx
ffffffff80006c58:	58                   	pop    rax
ffffffff80006c59:	48 83 c4 10          	add    rsp,0x10
ffffffff80006c5d:	48 cf                	iretq

ffffffff80006c5f <irq7>:
ffffffff80006c5f:	6a 00                	push   0x0
ffffffff80006c61:	6a 27                	push   0x27
ffffffff80006c63:	50                   	push   rax
ffffffff80006c64:	53                   	push   rbx
ffffffff80006c65:	51                   	push   rcx
ffffffff80006c66:	52                   	push   rdx
ffffffff80006c67:	56                   	push   rsi
ffffffff80006c68:	57                   	push   rdi
ffffffff80006c69:	55                   	push   rbp
ffffffff80006c6a:	41 50                	push   r8
ffffffff80006c6c:	41 51                	push   r9
ffffffff80006c6e:	41 52                	push   r10
ffffffff80006c70:	41 53                	push   r11
ffffffff80006c72:	41 54                	push   r12
ffffffff80006c74:	41 55                	push   r13
ffffffff80006c76:	41 56                	push   r14
ffffffff80006c78:	41 57                	push   r15
ffffffff80006c7a:	48 c7 c7 07 00 00 00 	mov    rdi,0x7
ffffffff80006c81:	48 8d 34 24          	lea    rsi,[rsp]
ffffffff80006c85:	e8 76 ad ff ff       	call   ffffffff80001a00 <irq_handler>
ffffffff80006c8a:	41 5f                	pop    r15
ffffffff80006c8c:	41 5e                	pop    r14
ffffffff80006c8e:	41 5d                	pop    r13
ffffffff80006c90:	41 5c                	pop    r12
ffffffff80006c92:	41 5b                	pop    r11
ffffffff80006c94:	41 5a                	pop    r10
ffffffff80006c96:	41 59                	pop    r9
ffffffff80006c98:	41 58                	pop    r8
ffffffff80006c9a:	5d                   	pop    rbp
ffffffff80006c9b:	5f                   	pop    rdi
ffffffff80006c9c:	5e                   	pop    rsi
ffffffff80006c9d:	5a                   	pop    rdx
ffffffff80006c9e:	59                   	pop    rcx
ffffffff80006c9f:	5b                   	pop    rbx
ffffffff80006ca0:	58                   	pop    rax
ffffffff80006ca1:	48 83 c4 10          	add    rsp,0x10
ffffffff80006ca5:	48 cf                	iretq

ffffffff80006ca7 <irq8>:
ffffffff80006ca7:	6a 00                	push   0x0
ffffffff80006ca9:	6a 28                	push   0x28
ffffffff80006cab:	50                   	push   rax
ffffffff80006cac:	53                   	push   rbx
ffffffff80006cad:	51                   	push   rcx
ffffffff80006cae:	52                   	push   rdx
ffffffff80006caf:	56                   	push   rsi
ffffffff80006cb0:	57                   	push   rdi
ffffffff80006cb1:	55                   	push   rbp
ffffffff80006cb2:	41 50                	push   r8
ffffffff80006cb4:	41 51                	push   r9
ffffffff80006cb6:	41 52                	push   r10
ffffffff80006cb8:	41 53                	push   r11
ffffffff80006cba:	41 54                	push   r12
ffffffff80006cbc:	41 55                	push   r13
ffffffff80006cbe:	41 56                	push   r14
ffffffff80006cc0:	41 57                	push   r15
ffffffff80006cc2:	48 c7 c7 08 00 00 00 	mov    rdi,0x8
ffffffff80006cc9:	48 8d 34 24          	lea    rsi,[rsp]
ffffffff80006ccd:	e8 2e ad ff ff       	call   ffffffff80001a00 <irq_handler>
ffffffff80006cd2:	41 5f                	pop    r15
ffffffff80006cd4:	41 5e                	pop    r14
ffffffff80006cd6:	41 5d                	pop    r13
ffffffff80006cd8:	41 5c                	pop    r12
ffffffff80006cda:	41 5b                	pop    r11
ffffffff80006cdc:	41 5a                	pop    r10
ffffffff80006cde:	41 59                	pop    r9
ffffffff80006ce0:	41 58                	pop    r8
ffffffff80006ce2:	5d                   	pop    rbp
ffffffff80006ce3:	5f                   	pop    rdi
ffffffff80006ce4:	5e                   	pop    rsi
ffffffff80006ce5:	5a                   	pop    rdx
ffffffff80006ce6:	59                   	pop    rcx
ffffffff80006ce7:	5b                   	pop    rbx
ffffffff80006ce8:	58                   	pop    rax
ffffffff80006ce9:	48 83 c4 10          	add    rsp,0x10
ffffffff80006ced:	48 cf                	iretq

ffffffff80006cef <irq9>:
ffffffff80006cef:	6a 00                	push   0x0
ffffffff80006cf1:	6a 29                	push   0x29
ffffffff80006cf3:	50                   	push   rax
ffffffff80006cf4:	53                   	push   rbx
ffffffff80006cf5:	51                   	push   rcx
ffffffff80006cf6:	52                   	push   rdx
ffffffff80006cf7:	56                   	push   rsi
ffffffff80006cf8:	57                   	push   rdi
ffffffff80006cf9:	55                   	push   rbp
ffffffff80006cfa:	41 50                	push   r8
ffffffff80006cfc:	41 51                	push   r9
ffffffff80006cfe:	41 52                	push   r10
ffffffff80006d00:	41 53                	push   r11
ffffffff80006d02:	41 54                	push   r12
ffffffff80006d04:	41 55                	push   r13
ffffffff80006d06:	41 56                	push   r14
ffffffff80006d08:	41 57                	push   r15
ffffffff80006d0a:	48 c7 c7 09 00 00 00 	mov    rdi,0x9
ffffffff80006d11:	48 8d 34 24          	lea    rsi,[rsp]
ffffffff80006d15:	e8 e6 ac ff ff       	call   ffffffff80001a00 <irq_handler>
ffffffff80006d1a:	41 5f                	pop    r15
ffffffff80006d1c:	41 5e                	pop    r14
ffffffff80006d1e:	41 5d                	pop    r13
ffffffff80006d20:	41 5c                	pop    r12
ffffffff80006d22:	41 5b                	pop    r11
ffffffff80006d24:	41 5a                	pop    r10
ffffffff80006d26:	41 59                	pop    r9
ffffffff80006d28:	41 58                	pop    r8
ffffffff80006d2a:	5d                   	pop    rbp
ffffffff80006d2b:	5f                   	pop    rdi
ffffffff80006d2c:	5e                   	pop    rsi
ffffffff80006d2d:	5a                   	pop    rdx
ffffffff80006d2e:	59                   	pop    rcx
ffffffff80006d2f:	5b                   	pop    rbx
ffffffff80006d30:	58                   	pop    rax
ffffffff80006d31:	48 83 c4 10          	add    rsp,0x10
ffffffff80006d35:	48 cf                	iretq

ffffffff80006d37 <irq10>:
ffffffff80006d37:	6a 00                	push   0x0
ffffffff80006d39:	6a 2a                	push   0x2a
ffffffff80006d3b:	50                   	push   rax
ffffffff80006d3c:	53                   	push   rbx
ffffffff80006d3d:	51                   	push   rcx
ffffffff80006d3e:	52                   	push   rdx
ffffffff80006d3f:	56                   	push   rsi
ffffffff80006d40:	57                   	push   rdi
ffffffff80006d41:	55                   	push   rbp
ffffffff80006d42:	41 50                	push   r8
ffffffff80006d44:	41 51                	push   r9
ffffffff80006d46:	41 52                	push   r10
ffffffff80006d48:	41 53                	push   r11
ffffffff80006d4a:	41 54                	push   r12
ffffffff80006d4c:	41 55                	push   r13
ffffffff80006d4e:	41 56                	push   r14
ffffffff80006d50:	41 57                	push   r15
ffffffff80006d52:	48 c7 c7 0a 00 00 00 	mov    rdi,0xa
ffffffff80006d59:	48 8d 34 24          	lea    rsi,[rsp]
ffffffff80006d5d:	e8 9e ac ff ff       	call   ffffffff80001a00 <irq_handler>
ffffffff80006d62:	41 5f                	pop    r15
ffffffff80006d64:	41 5e                	pop    r14
ffffffff80006d66:	41 5d                	pop    r13
ffffffff80006d68:	41 5c                	pop    r12
ffffffff80006d6a:	41 5b                	pop    r11
ffffffff80006d6c:	41 5a                	pop    r10
ffffffff80006d6e:	41 59                	pop    r9
ffffffff80006d70:	41 58                	pop    r8
ffffffff80006d72:	5d                   	pop    rbp
ffffffff80006d73:	5f                   	pop    rdi
ffffffff80006d74:	5e                   	pop    rsi
ffffffff80006d75:	5a                   	pop    rdx
ffffffff80006d76:	59                   	pop    rcx
ffffffff80006d77:	5b                   	pop    rbx
ffffffff80006d78:	58                   	pop    rax
ffffffff80006d79:	48 83 c4 10          	add    rsp,0x10
ffffffff80006d7d:	48 cf                	iretq

ffffffff80006d7f <irq11>:
ffffffff80006d7f:	6a 00                	push   0x0
ffffffff80006d81:	6a 2b                	push   0x2b
ffffffff80006d83:	50                   	push   rax
ffffffff80006d84:	53                   	push   rbx
ffffffff80006d85:	51                   	push   rcx
ffffffff80006d86:	52                   	push   rdx
ffffffff80006d87:	56                   	push   rsi
ffffffff80006d88:	57                   	push   rdi
ffffffff80006d89:	55                   	push   rbp
ffffffff80006d8a:	41 50                	push   r8
ffffffff80006d8c:	41 51                	push   r9
ffffffff80006d8e:	41 52                	push   r10
ffffffff80006d90:	41 53                	push   r11
ffffffff80006d92:	41 54                	push   r12
ffffffff80006d94:	41 55                	push   r13
ffffffff80006d96:	41 56                	push   r14
ffffffff80006d98:	41 57                	push   r15
ffffffff80006d9a:	48 c7 c7 0b 00 00 00 	mov    rdi,0xb
ffffffff80006da1:	48 8d 34 24          	lea    rsi,[rsp]
ffffffff80006da5:	e8 56 ac ff ff       	call   ffffffff80001a00 <irq_handler>
ffffffff80006daa:	41 5f                	pop    r15
ffffffff80006dac:	41 5e                	pop    r14
ffffffff80006dae:	41 5d                	pop    r13
ffffffff80006db0:	41 5c                	pop    r12
ffffffff80006db2:	41 5b                	pop    r11
ffffffff80006db4:	41 5a                	pop    r10
ffffffff80006db6:	41 59                	pop    r9
ffffffff80006db8:	41 58                	pop    r8
ffffffff80006dba:	5d                   	pop    rbp
ffffffff80006dbb:	5f                   	pop    rdi
ffffffff80006dbc:	5e                   	pop    rsi
ffffffff80006dbd:	5a                   	pop    rdx
ffffffff80006dbe:	59                   	pop    rcx
ffffffff80006dbf:	5b                   	pop    rbx
ffffffff80006dc0:	58                   	pop    rax
ffffffff80006dc1:	48 83 c4 10          	add    rsp,0x10
ffffffff80006dc5:	48 cf                	iretq

ffffffff80006dc7 <irq12>:
ffffffff80006dc7:	6a 00                	push   0x0
ffffffff80006dc9:	6a 2c                	push   0x2c
ffffffff80006dcb:	50                   	push   rax
ffffffff80006dcc:	53                   	push   rbx
ffffffff80006dcd:	51                   	push   rcx
ffffffff80006dce:	52                   	push   rdx
ffffffff80006dcf:	56                   	push   rsi
ffffffff80006dd0:	57                   	push   rdi
ffffffff80006dd1:	55                   	push   rbp
ffffffff80006dd2:	41 50                	push   r8
ffffffff80006dd4:	41 51                	push   r9
ffffffff80006dd6:	41 52                	push   r10
ffffffff80006dd8:	41 53                	push   r11
ffffffff80006dda:	41 54                	push   r12
ffffffff80006ddc:	41 55                	push   r13
ffffffff80006dde:	41 56                	push   r14
ffffffff80006de0:	41 57                	push   r15
ffffffff80006de2:	48 c7 c7 0c 00 00 00 	mov    rdi,0xc
ffffffff80006de9:	48 8d 34 24          	lea    rsi,[rsp]
ffffffff80006ded:	e8 0e ac ff ff       	call   ffffffff80001a00 <irq_handler>
ffffffff80006df2:	41 5f                	pop    r15
ffffffff80006df4:	41 5e                	pop    r14
ffffffff80006df6:	41 5d                	pop    r13
ffffffff80006df8:	41 5c                	pop    r12
ffffffff80006dfa:	41 5b                	pop    r11
ffffffff80006dfc:	41 5a                	pop    r10
ffffffff80006dfe:	41 59                	pop    r9
ffffffff80006e00:	41 58                	pop    r8
ffffffff80006e02:	5d                   	pop    rbp
ffffffff80006e03:	5f                   	pop    rdi
ffffffff80006e04:	5e                   	pop    rsi
ffffffff80006e05:	5a                   	pop    rdx
ffffffff80006e06:	59                   	pop    rcx
ffffffff80006e07:	5b                   	pop    rbx
ffffffff80006e08:	58                   	pop    rax
ffffffff80006e09:	48 83 c4 10          	add    rsp,0x10
ffffffff80006e0d:	48 cf                	iretq

ffffffff80006e0f <irq13>:
ffffffff80006e0f:	6a 00                	push   0x0
ffffffff80006e11:	6a 2d                	push   0x2d
ffffffff80006e13:	50                   	push   rax
ffffffff80006e14:	53                   	push   rbx
ffffffff80006e15:	51                   	push   rcx
ffffffff80006e16:	52                   	push   rdx
ffffffff80006e17:	56                   	push   rsi
ffffffff80006e18:	57                   	push   rdi
ffffffff80006e19:	55                   	push   rbp
ffffffff80006e1a:	41 50                	push   r8
ffffffff80006e1c:	41 51                	push   r9
ffffffff80006e1e:	41 52                	push   r10
ffffffff80006e20:	41 53                	push   r11
ffffffff80006e22:	41 54                	push   r12
ffffffff80006e24:	41 55                	push   r13
ffffffff80006e26:	41 56                	push   r14
ffffffff80006e28:	41 57                	push   r15
ffffffff80006e2a:	48 c7 c7 0d 00 00 00 	mov    rdi,0xd
ffffffff80006e31:	48 8d 34 24          	lea    rsi,[rsp]
ffffffff80006e35:	e8 c6 ab ff ff       	call   ffffffff80001a00 <irq_handler>
ffffffff80006e3a:	41 5f                	pop    r15
ffffffff80006e3c:	41 5e                	pop    r14
ffffffff80006e3e:	41 5d                	pop    r13
ffffffff80006e40:	41 5c                	pop    r12
ffffffff80006e42:	41 5b                	pop    r11
ffffffff80006e44:	41 5a                	pop    r10
ffffffff80006e46:	41 59                	pop    r9
ffffffff80006e48:	41 58                	pop    r8
ffffffff80006e4a:	5d                   	pop    rbp
ffffffff80006e4b:	5f                   	pop    rdi
ffffffff80006e4c:	5e                   	pop    rsi
ffffffff80006e4d:	5a                   	pop    rdx
ffffffff80006e4e:	59                   	pop    rcx
ffffffff80006e4f:	5b                   	pop    rbx
ffffffff80006e50:	58                   	pop    rax
ffffffff80006e51:	48 83 c4 10          	add    rsp,0x10
ffffffff80006e55:	48 cf                	iretq

ffffffff80006e57 <irq14>:
ffffffff80006e57:	6a 00                	push   0x0
ffffffff80006e59:	6a 2e                	push   0x2e
ffffffff80006e5b:	50                   	push   rax
ffffffff80006e5c:	53                   	push   rbx
ffffffff80006e5d:	51                   	push   rcx
ffffffff80006e5e:	52                   	push   rdx
ffffffff80006e5f:	56                   	push   rsi
ffffffff80006e60:	57                   	push   rdi
ffffffff80006e61:	55                   	push   rbp
ffffffff80006e62:	41 50                	push   r8
ffffffff80006e64:	41 51                	push   r9
ffffffff80006e66:	41 52                	push   r10
ffffffff80006e68:	41 53                	push   r11
ffffffff80006e6a:	41 54                	push   r12
ffffffff80006e6c:	41 55                	push   r13
ffffffff80006e6e:	41 56                	push   r14
ffffffff80006e70:	41 57                	push   r15
ffffffff80006e72:	48 c7 c7 0e 00 00 00 	mov    rdi,0xe
ffffffff80006e79:	48 8d 34 24          	lea    rsi,[rsp]
ffffffff80006e7d:	e8 7e ab ff ff       	call   ffffffff80001a00 <irq_handler>
ffffffff80006e82:	41 5f                	pop    r15
ffffffff80006e84:	41 5e                	pop    r14
ffffffff80006e86:	41 5d                	pop    r13
ffffffff80006e88:	41 5c                	pop    r12
ffffffff80006e8a:	41 5b                	pop    r11
ffffffff80006e8c:	41 5a                	pop    r10
ffffffff80006e8e:	41 59                	pop    r9
ffffffff80006e90:	41 58                	pop    r8
ffffffff80006e92:	5d                   	pop    rbp
ffffffff80006e93:	5f                   	pop    rdi
ffffffff80006e94:	5e                   	pop    rsi
ffffffff80006e95:	5a                   	pop    rdx
ffffffff80006e96:	59                   	pop    rcx
ffffffff80006e97:	5b                   	pop    rbx
ffffffff80006e98:	58                   	pop    rax
ffffffff80006e99:	48 83 c4 10          	add    rsp,0x10
ffffffff80006e9d:	48 cf                	iretq

ffffffff80006e9f <irq15>:
ffffffff80006e9f:	6a 00                	push   0x0
ffffffff80006ea1:	6a 2f                	push   0x2f
ffffffff80006ea3:	50                   	push   rax
ffffffff80006ea4:	53                   	push   rbx
ffffffff80006ea5:	51                   	push   rcx
ffffffff80006ea6:	52                   	push   rdx
ffffffff80006ea7:	56                   	push   rsi
ffffffff80006ea8:	57                   	push   rdi
ffffffff80006ea9:	55                   	push   rbp
ffffffff80006eaa:	41 50                	push   r8
ffffffff80006eac:	41 51                	push   r9
ffffffff80006eae:	41 52                	push   r10
ffffffff80006eb0:	41 53                	push   r11
ffffffff80006eb2:	41 54                	push   r12
ffffffff80006eb4:	41 55                	push   r13
ffffffff80006eb6:	41 56                	push   r14
ffffffff80006eb8:	41 57                	push   r15
ffffffff80006eba:	48 c7 c7 0f 00 00 00 	mov    rdi,0xf
ffffffff80006ec1:	48 8d 34 24          	lea    rsi,[rsp]
ffffffff80006ec5:	e8 36 ab ff ff       	call   ffffffff80001a00 <irq_handler>
ffffffff80006eca:	41 5f                	pop    r15
ffffffff80006ecc:	41 5e                	pop    r14
ffffffff80006ece:	41 5d                	pop    r13
ffffffff80006ed0:	41 5c                	pop    r12
ffffffff80006ed2:	41 5b                	pop    r11
ffffffff80006ed4:	41 5a                	pop    r10
ffffffff80006ed6:	41 59                	pop    r9
ffffffff80006ed8:	41 58                	pop    r8
ffffffff80006eda:	5d                   	pop    rbp
ffffffff80006edb:	5f                   	pop    rdi
ffffffff80006edc:	5e                   	pop    rsi
ffffffff80006edd:	5a                   	pop    rdx
ffffffff80006ede:	59                   	pop    rcx
ffffffff80006edf:	5b                   	pop    rbx
ffffffff80006ee0:	58                   	pop    rax
ffffffff80006ee1:	48 83 c4 10          	add    rsp,0x10
ffffffff80006ee5:	48 cf                	iretq
ffffffff80006ee7:	90                   	nop

ffffffff80006ee8 <irq_stub_table>:
ffffffff80006ee8:	68 6a 00 80 ff       	push   0xffffffffff80006a
ffffffff80006eed:	ff                   	(bad)
ffffffff80006eee:	ff                   	(bad)
ffffffff80006eef:	ff af 6a 00 80 ff    	jmp    FWORD PTR [rdi-0x7fff96]
ffffffff80006ef5:	ff                   	(bad)
ffffffff80006ef6:	ff                   	(bad)
ffffffff80006ef7:	ff f7                	push   rdi
ffffffff80006ef9:	6a 00                	push   0x0
ffffffff80006efb:	80 ff ff             	cmp    bh,0xff
ffffffff80006efe:	ff                   	(bad)
ffffffff80006eff:	ff                   	(bad)
ffffffff80006f00:	3f                   	(bad)
ffffffff80006f01:	6b 00 80             	imul   eax,DWORD PTR [rax],0xffffff80
ffffffff80006f04:	ff                   	(bad)
ffffffff80006f05:	ff                   	(bad)
ffffffff80006f06:	ff                   	(bad)
ffffffff80006f07:	ff 87 6b 00 80 ff    	inc    DWORD PTR [rdi-0x7fff95]
ffffffff80006f0d:	ff                   	(bad)
ffffffff80006f0e:	ff                   	(bad)
ffffffff80006f0f:	ff cf                	dec    edi
ffffffff80006f11:	6b 00 80             	imul   eax,DWORD PTR [rax],0xffffff80
ffffffff80006f14:	ff                   	(bad)
ffffffff80006f15:	ff                   	(bad)
ffffffff80006f16:	ff                   	(bad)
ffffffff80006f17:	ff 17                	call   QWORD PTR [rdi]
ffffffff80006f19:	6c                   	ins    BYTE PTR [rdi],dx
ffffffff80006f1a:	00 80 ff ff ff ff    	add    BYTE PTR [rax-0x1],al
ffffffff80006f20:	5f                   	pop    rdi
ffffffff80006f21:	6c                   	ins    BYTE PTR [rdi],dx
ffffffff80006f22:	00 80 ff ff ff ff    	add    BYTE PTR [rax-0x1],al
ffffffff80006f28:	a7                   	cmps   DWORD PTR [rsi],DWORD PTR [rdi]
ffffffff80006f29:	6c                   	ins    BYTE PTR [rdi],dx
ffffffff80006f2a:	00 80 ff ff ff ff    	add    BYTE PTR [rax-0x1],al
ffffffff80006f30:	ef                   	out    dx,eax
ffffffff80006f31:	6c                   	ins    BYTE PTR [rdi],dx
ffffffff80006f32:	00 80 ff ff ff ff    	add    BYTE PTR [rax-0x1],al
ffffffff80006f38:	37                   	(bad)
ffffffff80006f39:	6d                   	ins    DWORD PTR [rdi],dx
ffffffff80006f3a:	00 80 ff ff ff ff    	add    BYTE PTR [rax-0x1],al
ffffffff80006f40:	7f 6d                	jg     ffffffff80006faf <irq80+0x47>
ffffffff80006f42:	00 80 ff ff ff ff    	add    BYTE PTR [rax-0x1],al
ffffffff80006f48:	c7                   	(bad)
ffffffff80006f49:	6d                   	ins    DWORD PTR [rdi],dx
ffffffff80006f4a:	00 80 ff ff ff ff    	add    BYTE PTR [rax-0x1],al
ffffffff80006f50:	0f 6e 00             	movd   mm0,DWORD PTR [rax]
ffffffff80006f53:	80 ff ff             	cmp    bh,0xff
ffffffff80006f56:	ff                   	(bad)
ffffffff80006f57:	ff 57 6e             	call   QWORD PTR [rdi+0x6e]
ffffffff80006f5a:	00 80 ff ff ff ff    	add    BYTE PTR [rax-0x1],al
ffffffff80006f60:	9f                   	lahf
ffffffff80006f61:	6e                   	outs   dx,BYTE PTR [rsi]
ffffffff80006f62:	00 80 ff ff ff ff    	add    BYTE PTR [rax-0x1],al

ffffffff80006f68 <irq80>:
ffffffff80006f68:	6a 00                	push   0x0
ffffffff80006f6a:	68 80 00 00 00       	push   0x80
ffffffff80006f6f:	50                   	push   rax
ffffffff80006f70:	53                   	push   rbx
ffffffff80006f71:	51                   	push   rcx
ffffffff80006f72:	52                   	push   rdx
ffffffff80006f73:	56                   	push   rsi
ffffffff80006f74:	57                   	push   rdi
ffffffff80006f75:	55                   	push   rbp
ffffffff80006f76:	41 50                	push   r8
ffffffff80006f78:	41 51                	push   r9
ffffffff80006f7a:	41 52                	push   r10
ffffffff80006f7c:	41 53                	push   r11
ffffffff80006f7e:	41 54                	push   r12
ffffffff80006f80:	41 55                	push   r13
ffffffff80006f82:	41 56                	push   r14
ffffffff80006f84:	41 57                	push   r15
ffffffff80006f86:	48 89 e7             	mov    rdi,rsp
ffffffff80006f89:	e8 72 eb ff ff       	call   ffffffff80005b00 <syscall_dispatch>
ffffffff80006f8e:	41 5f                	pop    r15
ffffffff80006f90:	41 5e                	pop    r14
ffffffff80006f92:	41 5d                	pop    r13
ffffffff80006f94:	41 5c                	pop    r12
ffffffff80006f96:	41 5b                	pop    r11
ffffffff80006f98:	41 5a                	pop    r10
ffffffff80006f9a:	41 59                	pop    r9
ffffffff80006f9c:	41 58                	pop    r8
ffffffff80006f9e:	5d                   	pop    rbp
ffffffff80006f9f:	5f                   	pop    rdi
ffffffff80006fa0:	5e                   	pop    rsi
ffffffff80006fa1:	5a                   	pop    rdx
ffffffff80006fa2:	59                   	pop    rcx
ffffffff80006fa3:	5b                   	pop    rbx
ffffffff80006fa4:	48 83 c4 18          	add    rsp,0x18
ffffffff80006fa8:	48 cf                	iretq
ffffffff80006faa:	66 2e 0f 1f 84 00 00 	cs nop WORD PTR [rax+rax*1+0x0]
ffffffff80006fb1:	00 00 00 
ffffffff80006fb4:	66 2e 0f 1f 84 00 00 	cs nop WORD PTR [rax+rax*1+0x0]
ffffffff80006fbb:	00 00 00 
ffffffff80006fbe:	66 90                	xchg   ax,ax

ffffffff80006fc0 <utoa_base>:
ffffffff80006fc0:	55                   	push   rbp
ffffffff80006fc1:	49 c7 c1 1b 86 00 80 	mov    r9,0xffffffff8000861b
ffffffff80006fc8:	48 c7 c0 16 81 00 80 	mov    rax,0xffffffff80008116
ffffffff80006fcf:	48 89 e5             	mov    rbp,rsp
ffffffff80006fd2:	41 54                	push   r12
ffffffff80006fd4:	53                   	push   rbx
ffffffff80006fd5:	48 83 ec 50          	sub    rsp,0x50
ffffffff80006fd9:	85 d2                	test   edx,edx
ffffffff80006fdb:	4c 0f 45 c8          	cmovne r9,rax
ffffffff80006fdf:	48 85 ff             	test   rdi,rdi
ffffffff80006fe2:	75 64                	jne    ffffffff80007048 <utoa_base+0x88>
ffffffff80006fe4:	c6 45 a0 30          	mov    BYTE PTR [rbp-0x60],0x30
ffffffff80006fe8:	bf 02 00 00 00       	mov    edi,0x2
ffffffff80006fed:	bb 01 00 00 00       	mov    ebx,0x1
ffffffff80006ff2:	4c 63 e3             	movsxd r12,ebx
ffffffff80006ff5:	42 c6 44 25 a0 00    	mov    BYTE PTR [rbp+r12*1-0x60],0x0
ffffffff80006ffb:	e8 00 e7 ff ff       	call   ffffffff80005700 <kmalloc>
ffffffff80007000:	48 89 c7             	mov    rdi,rax
ffffffff80007003:	48 85 c0             	test   rax,rax
ffffffff80007006:	74 30                	je     ffffffff80007038 <utoa_base+0x78>
ffffffff80007008:	8d 43 ff             	lea    eax,[rbx-0x1]
ffffffff8000700b:	4a 8d 34 27          	lea    rsi,[rdi+r12*1]
ffffffff8000700f:	48 8d 54 05 a0       	lea    rdx,[rbp+rax*1-0x60]
ffffffff80007014:	48 89 f8             	mov    rax,rdi
ffffffff80007017:	66 0f 1f 84 00 00 00 	nop    WORD PTR [rax+rax*1+0x0]
ffffffff8000701e:	00 00 
ffffffff80007020:	0f b6 0a             	movzx  ecx,BYTE PTR [rdx]
ffffffff80007023:	48 83 c0 01          	add    rax,0x1
ffffffff80007027:	48 83 ea 01          	sub    rdx,0x1
ffffffff8000702b:	88 48 ff             	mov    BYTE PTR [rax-0x1],cl
ffffffff8000702e:	48 39 f0             	cmp    rax,rsi
ffffffff80007031:	75 ed                	jne    ffffffff80007020 <utoa_base+0x60>
ffffffff80007033:	42 c6 04 27 00       	mov    BYTE PTR [rdi+r12*1],0x0
ffffffff80007038:	48 83 c4 50          	add    rsp,0x50
ffffffff8000703c:	48 89 f8             	mov    rax,rdi
ffffffff8000703f:	5b                   	pop    rbx
ffffffff80007040:	41 5c                	pop    r12
ffffffff80007042:	5d                   	pop    rbp
ffffffff80007043:	c3                   	ret
ffffffff80007044:	0f 1f 40 00          	nop    DWORD PTR [rax+0x0]
ffffffff80007048:	48 89 f9             	mov    rcx,rdi
ffffffff8000704b:	48 63 f6             	movsxd rsi,esi
ffffffff8000704e:	4c 8d 45 a0          	lea    r8,[rbp-0x60]
ffffffff80007052:	31 db                	xor    ebx,ebx
ffffffff80007054:	66 66 2e 0f 1f 84 00 	data16 cs nop WORD PTR [rax+rax*1+0x0]
ffffffff8000705b:	00 00 00 00 
ffffffff8000705f:	66 66 2e 0f 1f 84 00 	data16 cs nop WORD PTR [rax+rax*1+0x0]
ffffffff80007066:	00 00 00 00 
ffffffff8000706a:	66 66 2e 0f 1f 84 00 	data16 cs nop WORD PTR [rax+rax*1+0x0]
ffffffff80007071:	00 00 00 00 
ffffffff80007075:	66 66 2e 0f 1f 84 00 	data16 cs nop WORD PTR [rax+rax*1+0x0]
ffffffff8000707c:	00 00 00 00 
ffffffff80007080:	48 89 c8             	mov    rax,rcx
ffffffff80007083:	31 d2                	xor    edx,edx
ffffffff80007085:	89 df                	mov    edi,ebx
ffffffff80007087:	49 83 c0 01          	add    r8,0x1
ffffffff8000708b:	48 f7 f6             	div    rsi
ffffffff8000708e:	83 c3 01             	add    ebx,0x1
ffffffff80007091:	41 0f b6 14 11       	movzx  edx,BYTE PTR [r9+rdx*1]
ffffffff80007096:	41 88 50 ff          	mov    BYTE PTR [r8-0x1],dl
ffffffff8000709a:	48 89 ca             	mov    rdx,rcx
ffffffff8000709d:	48 89 c1             	mov    rcx,rax
ffffffff800070a0:	48 39 f2             	cmp    rdx,rsi
ffffffff800070a3:	73 db                	jae    ffffffff80007080 <utoa_base+0xc0>
ffffffff800070a5:	83 c7 02             	add    edi,0x2
ffffffff800070a8:	48 63 ff             	movsxd rdi,edi
ffffffff800070ab:	e9 42 ff ff ff       	jmp    ffffffff80006ff2 <utoa_base+0x32>
ffffffff800070b0:	66 2e 0f 1f 84 00 00 	cs nop WORD PTR [rax+rax*1+0x0]
ffffffff800070b7:	00 00 00 
ffffffff800070ba:	66 0f 1f 44 00 00    	nop    WORD PTR [rax+rax*1+0x0]

ffffffff800070c0 <itoa_signed>:
ffffffff800070c0:	48 85 ff             	test   rdi,rdi
ffffffff800070c3:	0f 89 9f 00 00 00    	jns    ffffffff80007168 <itoa_signed+0xa8>
ffffffff800070c9:	55                   	push   rbp
ffffffff800070ca:	48 f7 df             	neg    rdi
ffffffff800070cd:	31 d2                	xor    edx,edx
ffffffff800070cf:	be 0a 00 00 00       	mov    esi,0xa
ffffffff800070d4:	48 89 e5             	mov    rbp,rsp
ffffffff800070d7:	48 83 ec 20          	sub    rsp,0x20
ffffffff800070db:	e8 e0 fe ff ff       	call   ffffffff80006fc0 <utoa_base>
ffffffff800070e0:	49 89 c0             	mov    r8,rax
ffffffff800070e3:	48 85 c0             	test   rax,rax
ffffffff800070e6:	0f 84 c1 00 00 00    	je     ffffffff800071ad <itoa_signed+0xed>
ffffffff800070ec:	80 38 00             	cmp    BYTE PTR [rax],0x0
ffffffff800070ef:	0f 84 83 00 00 00    	je     ffffffff80007178 <itoa_signed+0xb8>
ffffffff800070f5:	ba 01 00 00 00       	mov    edx,0x1
ffffffff800070fa:	66 0f 1f 44 00 00    	nop    WORD PTR [rax+rax*1+0x0]
ffffffff80007100:	48 89 d6             	mov    rsi,rdx
ffffffff80007103:	48 83 c2 01          	add    rdx,0x1
ffffffff80007107:	41 80 7c 10 ff 00    	cmp    BYTE PTR [r8+rdx*1-0x1],0x0
ffffffff8000710d:	75 f1                	jne    ffffffff80007100 <itoa_signed+0x40>
ffffffff8000710f:	48 83 c6 02          	add    rsi,0x2
ffffffff80007113:	4c 89 45 e8          	mov    QWORD PTR [rbp-0x18],r8
ffffffff80007117:	48 89 f7             	mov    rdi,rsi
ffffffff8000711a:	48 89 55 f0          	mov    QWORD PTR [rbp-0x10],rdx
ffffffff8000711e:	48 89 75 f8          	mov    QWORD PTR [rbp-0x8],rsi
ffffffff80007122:	e8 d9 e5 ff ff       	call   ffffffff80005700 <kmalloc>
ffffffff80007127:	48 8b 75 f8          	mov    rsi,QWORD PTR [rbp-0x8]
ffffffff8000712b:	48 8b 55 f0          	mov    rdx,QWORD PTR [rbp-0x10]
ffffffff8000712f:	48 85 c0             	test   rax,rax
ffffffff80007132:	4c 8b 45 e8          	mov    r8,QWORD PTR [rbp-0x18]
ffffffff80007136:	74 6d                	je     ffffffff800071a5 <itoa_signed+0xe5>
ffffffff80007138:	c6 00 2d             	mov    BYTE PTR [rax],0x2d
ffffffff8000713b:	31 c9                	xor    ecx,ecx
ffffffff8000713d:	0f 1f 00             	nop    DWORD PTR [rax]
ffffffff80007140:	48 83 c1 01          	add    rcx,0x1
ffffffff80007144:	41 0f b6 7c 08 ff    	movzx  edi,BYTE PTR [r8+rcx*1-0x1]
ffffffff8000714a:	40 88 3c 08          	mov    BYTE PTR [rax+rcx*1],dil
ffffffff8000714e:	48 39 d1             	cmp    rcx,rdx
ffffffff80007151:	72 ed                	jb     ffffffff80007140 <itoa_signed+0x80>
ffffffff80007153:	4c 89 c7             	mov    rdi,r8
ffffffff80007156:	48 89 45 f8          	mov    QWORD PTR [rbp-0x8],rax
ffffffff8000715a:	e8 d1 e5 ff ff       	call   ffffffff80005730 <kfree>
ffffffff8000715f:	48 8b 45 f8          	mov    rax,QWORD PTR [rbp-0x8]
ffffffff80007163:	c9                   	leave
ffffffff80007164:	c3                   	ret
ffffffff80007165:	0f 1f 00             	nop    DWORD PTR [rax]
ffffffff80007168:	31 d2                	xor    edx,edx
ffffffff8000716a:	be 0a 00 00 00       	mov    esi,0xa
ffffffff8000716f:	e9 4c fe ff ff       	jmp    ffffffff80006fc0 <utoa_base>
ffffffff80007174:	0f 1f 40 00          	nop    DWORD PTR [rax+0x0]
ffffffff80007178:	bf 02 00 00 00       	mov    edi,0x2
ffffffff8000717d:	48 89 45 f8          	mov    QWORD PTR [rbp-0x8],rax
ffffffff80007181:	e8 7a e5 ff ff       	call   ffffffff80005700 <kmalloc>
ffffffff80007186:	4c 8b 45 f8          	mov    r8,QWORD PTR [rbp-0x8]
ffffffff8000718a:	48 85 c0             	test   rax,rax
ffffffff8000718d:	74 11                	je     ffffffff800071a0 <itoa_signed+0xe0>
ffffffff8000718f:	c6 00 2d             	mov    BYTE PTR [rax],0x2d
ffffffff80007192:	41 0f b6 10          	movzx  edx,BYTE PTR [r8]
ffffffff80007196:	be 02 00 00 00       	mov    esi,0x2
ffffffff8000719b:	88 50 01             	mov    BYTE PTR [rax+0x1],dl
ffffffff8000719e:	eb b3                	jmp    ffffffff80007153 <itoa_signed+0x93>
ffffffff800071a0:	be 02 00 00 00       	mov    esi,0x2
ffffffff800071a5:	4c 89 c7             	mov    rdi,r8
ffffffff800071a8:	e8 83 e5 ff ff       	call   ffffffff80005730 <kfree>
ffffffff800071ad:	c9                   	leave
ffffffff800071ae:	31 c0                	xor    eax,eax
ffffffff800071b0:	c3                   	ret
ffffffff800071b1:	66 2e 0f 1f 84 00 00 	cs nop WORD PTR [rax+rax*1+0x0]
ffffffff800071b8:	00 00 00 
ffffffff800071bb:	0f 1f 44 00 00       	nop    DWORD PTR [rax+rax*1+0x0]

ffffffff800071c0 <memcpy>:
ffffffff800071c0:	48 85 d2             	test   rdx,rdx
ffffffff800071c3:	74 1b                	je     ffffffff800071e0 <memcpy+0x20>
ffffffff800071c5:	31 c0                	xor    eax,eax
ffffffff800071c7:	66 0f 1f 84 00 00 00 	nop    WORD PTR [rax+rax*1+0x0]
ffffffff800071ce:	00 00 
ffffffff800071d0:	0f b6 0c 06          	movzx  ecx,BYTE PTR [rsi+rax*1]
ffffffff800071d4:	88 0c 07             	mov    BYTE PTR [rdi+rax*1],cl
ffffffff800071d7:	48 83 c0 01          	add    rax,0x1
ffffffff800071db:	48 39 c2             	cmp    rdx,rax
ffffffff800071de:	75 f0                	jne    ffffffff800071d0 <memcpy+0x10>
ffffffff800071e0:	48 89 f8             	mov    rax,rdi
ffffffff800071e3:	c3                   	ret
ffffffff800071e4:	66 2e 0f 1f 84 00 00 	cs nop WORD PTR [rax+rax*1+0x0]
ffffffff800071eb:	00 00 00 
ffffffff800071ee:	66 90                	xchg   ax,ax

ffffffff800071f0 <memset>:
ffffffff800071f0:	48 89 d1             	mov    rcx,rdx
ffffffff800071f3:	48 89 f8             	mov    rax,rdi
ffffffff800071f6:	48 8d 14 17          	lea    rdx,[rdi+rdx*1]
ffffffff800071fa:	48 85 c9             	test   rcx,rcx
ffffffff800071fd:	74 31                	je     ffffffff80007230 <memset+0x40>
ffffffff800071ff:	48 89 d1             	mov    rcx,rdx
ffffffff80007202:	48 29 f9             	sub    rcx,rdi
ffffffff80007205:	83 e1 01             	and    ecx,0x1
ffffffff80007208:	74 16                	je     ffffffff80007220 <memset+0x30>
ffffffff8000720a:	48 8d 47 01          	lea    rax,[rdi+0x1]
ffffffff8000720e:	40 88 37             	mov    BYTE PTR [rdi],sil
ffffffff80007211:	48 39 d0             	cmp    rax,rdx
ffffffff80007214:	74 1a                	je     ffffffff80007230 <memset+0x40>
ffffffff80007216:	66 2e 0f 1f 84 00 00 	cs nop WORD PTR [rax+rax*1+0x0]
ffffffff8000721d:	00 00 00 
ffffffff80007220:	40 88 30             	mov    BYTE PTR [rax],sil
ffffffff80007223:	48 83 c0 02          	add    rax,0x2
ffffffff80007227:	40 88 70 ff          	mov    BYTE PTR [rax-0x1],sil
ffffffff8000722b:	48 39 d0             	cmp    rax,rdx
ffffffff8000722e:	75 f0                	jne    ffffffff80007220 <memset+0x30>
ffffffff80007230:	48 89 f8             	mov    rax,rdi
ffffffff80007233:	c3                   	ret
ffffffff80007234:	66 2e 0f 1f 84 00 00 	cs nop WORD PTR [rax+rax*1+0x0]
ffffffff8000723b:	00 00 00 
ffffffff8000723e:	66 90                	xchg   ax,ax

ffffffff80007240 <memmove>:
ffffffff80007240:	48 39 f7             	cmp    rdi,rsi
ffffffff80007243:	73 23                	jae    ffffffff80007268 <memmove+0x28>
ffffffff80007245:	48 85 d2             	test   rdx,rdx
ffffffff80007248:	74 16                	je     ffffffff80007260 <memmove+0x20>
ffffffff8000724a:	31 c0                	xor    eax,eax
ffffffff8000724c:	0f 1f 40 00          	nop    DWORD PTR [rax+0x0]
ffffffff80007250:	0f b6 0c 06          	movzx  ecx,BYTE PTR [rsi+rax*1]
ffffffff80007254:	88 0c 07             	mov    BYTE PTR [rdi+rax*1],cl
ffffffff80007257:	48 83 c0 01          	add    rax,0x1
ffffffff8000725b:	48 39 c2             	cmp    rdx,rax
ffffffff8000725e:	75 f0                	jne    ffffffff80007250 <memmove+0x10>
ffffffff80007260:	48 89 f8             	mov    rax,rdi
ffffffff80007263:	c3                   	ret
ffffffff80007264:	0f 1f 40 00          	nop    DWORD PTR [rax+0x0]
ffffffff80007268:	48 39 fe             	cmp    rsi,rdi
ffffffff8000726b:	73 f3                	jae    ffffffff80007260 <memmove+0x20>
ffffffff8000726d:	48 85 d2             	test   rdx,rdx
ffffffff80007270:	74 ee                	je     ffffffff80007260 <memmove+0x20>
ffffffff80007272:	0f 1f 00             	nop    DWORD PTR [rax]
ffffffff80007275:	66 66 2e 0f 1f 84 00 	data16 cs nop WORD PTR [rax+rax*1+0x0]
ffffffff8000727c:	00 00 00 00 
ffffffff80007280:	48 83 ea 01          	sub    rdx,0x1
ffffffff80007284:	0f b6 04 16          	movzx  eax,BYTE PTR [rsi+rdx*1]
ffffffff80007288:	88 04 17             	mov    BYTE PTR [rdi+rdx*1],al
ffffffff8000728b:	75 f3                	jne    ffffffff80007280 <memmove+0x40>
ffffffff8000728d:	48 89 f8             	mov    rax,rdi
ffffffff80007290:	c3                   	ret
ffffffff80007291:	66 2e 0f 1f 84 00 00 	cs nop WORD PTR [rax+rax*1+0x0]
ffffffff80007298:	00 00 00 
ffffffff8000729b:	0f 1f 44 00 00       	nop    DWORD PTR [rax+rax*1+0x0]

ffffffff800072a0 <memcmp>:
ffffffff800072a0:	48 85 d2             	test   rdx,rdx
ffffffff800072a3:	74 3b                	je     ffffffff800072e0 <memcmp+0x40>
ffffffff800072a5:	31 c0                	xor    eax,eax
ffffffff800072a7:	eb 20                	jmp    ffffffff800072c9 <memcmp+0x29>
ffffffff800072a9:	90                   	nop
ffffffff800072aa:	66 66 2e 0f 1f 84 00 	data16 cs nop WORD PTR [rax+rax*1+0x0]
ffffffff800072b1:	00 00 00 00 
ffffffff800072b5:	66 66 2e 0f 1f 84 00 	data16 cs nop WORD PTR [rax+rax*1+0x0]
ffffffff800072bc:	00 00 00 00 
ffffffff800072c0:	48 83 c0 01          	add    rax,0x1
ffffffff800072c4:	48 39 c2             	cmp    rdx,rax
ffffffff800072c7:	74 17                	je     ffffffff800072e0 <memcmp+0x40>
ffffffff800072c9:	0f b6 0c 06          	movzx  ecx,BYTE PTR [rsi+rax*1]
ffffffff800072cd:	38 0c 07             	cmp    BYTE PTR [rdi+rax*1],cl
ffffffff800072d0:	74 ee                	je     ffffffff800072c0 <memcmp+0x20>
ffffffff800072d2:	19 c0                	sbb    eax,eax
ffffffff800072d4:	83 c8 01             	or     eax,0x1
ffffffff800072d7:	c3                   	ret
ffffffff800072d8:	0f 1f 84 00 00 00 00 	nop    DWORD PTR [rax+rax*1+0x0]
ffffffff800072df:	00 
ffffffff800072e0:	31 c0                	xor    eax,eax
ffffffff800072e2:	c3                   	ret
ffffffff800072e3:	66 2e 0f 1f 84 00 00 	cs nop WORD PTR [rax+rax*1+0x0]
ffffffff800072ea:	00 00 00 
ffffffff800072ed:	0f 1f 00             	nop    DWORD PTR [rax]

ffffffff800072f0 <strlen>:
ffffffff800072f0:	31 c0                	xor    eax,eax
ffffffff800072f2:	48 85 ff             	test   rdi,rdi
ffffffff800072f5:	74 19                	je     ffffffff80007310 <strlen+0x20>
ffffffff800072f7:	80 3f 00             	cmp    BYTE PTR [rdi],0x0
ffffffff800072fa:	74 1c                	je     ffffffff80007318 <strlen+0x28>
ffffffff800072fc:	0f 1f 40 00          	nop    DWORD PTR [rax+0x0]
ffffffff80007300:	48 83 c0 01          	add    rax,0x1
ffffffff80007304:	80 3c 07 00          	cmp    BYTE PTR [rdi+rax*1],0x0
ffffffff80007308:	75 f6                	jne    ffffffff80007300 <strlen+0x10>
ffffffff8000730a:	c3                   	ret
ffffffff8000730b:	0f 1f 44 00 00       	nop    DWORD PTR [rax+rax*1+0x0]
ffffffff80007310:	c3                   	ret
ffffffff80007311:	0f 1f 80 00 00 00 00 	nop    DWORD PTR [rax+0x0]
ffffffff80007318:	c3                   	ret
ffffffff80007319:	0f 1f 80 00 00 00 00 	nop    DWORD PTR [rax+0x0]

ffffffff80007320 <strcmp>:
ffffffff80007320:	0f b6 07             	movzx  eax,BYTE PTR [rdi]
ffffffff80007323:	84 c0                	test   al,al
ffffffff80007325:	75 1d                	jne    ffffffff80007344 <strcmp+0x24>
ffffffff80007327:	eb 42                	jmp    ffffffff8000736b <strcmp+0x4b>
ffffffff80007329:	0f 1f 80 00 00 00 00 	nop    DWORD PTR [rax+0x0]
ffffffff80007330:	38 c2                	cmp    dl,al
ffffffff80007332:	75 19                	jne    ffffffff8000734d <strcmp+0x2d>
ffffffff80007334:	0f b6 47 01          	movzx  eax,BYTE PTR [rdi+0x1]
ffffffff80007338:	48 83 c7 01          	add    rdi,0x1
ffffffff8000733c:	84 c0                	test   al,al
ffffffff8000733e:	74 20                	je     ffffffff80007360 <strcmp+0x40>
ffffffff80007340:	48 83 c6 01          	add    rsi,0x1
ffffffff80007344:	0f b6 16             	movzx  edx,BYTE PTR [rsi]
ffffffff80007347:	84 d2                	test   dl,dl
ffffffff80007349:	75 e5                	jne    ffffffff80007330 <strcmp+0x10>
ffffffff8000734b:	38 c2                	cmp    dl,al
ffffffff8000734d:	0f 9e c0             	setle  al
ffffffff80007350:	0f b6 c0             	movzx  eax,al
ffffffff80007353:	8d 44 00 ff          	lea    eax,[rax+rax*1-0x1]
ffffffff80007357:	c3                   	ret
ffffffff80007358:	0f 1f 84 00 00 00 00 	nop    DWORD PTR [rax+rax*1+0x0]
ffffffff8000735f:	00 
ffffffff80007360:	0f b6 56 01          	movzx  edx,BYTE PTR [rsi+0x1]
ffffffff80007364:	31 c0                	xor    eax,eax
ffffffff80007366:	84 d2                	test   dl,dl
ffffffff80007368:	75 e1                	jne    ffffffff8000734b <strcmp+0x2b>
ffffffff8000736a:	c3                   	ret
ffffffff8000736b:	0f b6 16             	movzx  edx,BYTE PTR [rsi]
ffffffff8000736e:	eb f4                	jmp    ffffffff80007364 <strcmp+0x44>
ffffffff80007370:	66 2e 0f 1f 84 00 00 	cs nop WORD PTR [rax+rax*1+0x0]
ffffffff80007377:	00 00 00 
ffffffff8000737a:	66 0f 1f 44 00 00    	nop    WORD PTR [rax+rax*1+0x0]

ffffffff80007380 <npf_utoa_rev>:
ffffffff80007380:	49 89 f2             	mov    r10,rsi
ffffffff80007383:	41 89 d0             	mov    r8d,edx
ffffffff80007386:	49 89 f1             	mov    r9,rsi
ffffffff80007389:	83 c1 37             	add    ecx,0x37
ffffffff8000738c:	eb 39                	jmp    ffffffff800073c7 <npf_utoa_rev+0x47>
ffffffff8000738e:	66 0f 1f 44 00 00    	nop    WORD PTR [rax+rax*1+0x0]
ffffffff80007394:	66 66 2e 0f 1f 84 00 	data16 cs nop WORD PTR [rax+rax*1+0x0]
ffffffff8000739b:	00 00 00 00 
ffffffff8000739f:	66 66 2e 0f 1f 84 00 	data16 cs nop WORD PTR [rax+rax*1+0x0]
ffffffff800073a6:	00 00 00 00 
ffffffff800073aa:	66 66 2e 0f 1f 84 00 	data16 cs nop WORD PTR [rax+rax*1+0x0]
ffffffff800073b1:	00 00 00 00 
ffffffff800073b5:	66 66 2e 0f 1f 84 00 	data16 cs nop WORD PTR [rax+rax*1+0x0]
ffffffff800073bc:	00 00 00 00 
ffffffff800073c0:	49 83 c1 01          	add    r9,0x1
ffffffff800073c4:	48 89 c7             	mov    rdi,rax
ffffffff800073c7:	31 d2                	xor    edx,edx
ffffffff800073c9:	48 89 f8             	mov    rax,rdi
ffffffff800073cc:	be 30 00 00 00       	mov    esi,0x30
ffffffff800073d1:	49 f7 f0             	div    r8
ffffffff800073d4:	48 83 fa 09          	cmp    rdx,0x9
ffffffff800073d8:	0f 47 f1             	cmova  esi,ecx
ffffffff800073db:	01 d6                	add    esi,edx
ffffffff800073dd:	41 88 31             	mov    BYTE PTR [r9],sil
ffffffff800073e0:	4c 39 c7             	cmp    rdi,r8
ffffffff800073e3:	73 db                	jae    ffffffff800073c0 <npf_utoa_rev+0x40>
ffffffff800073e5:	45 29 d1             	sub    r9d,r10d
ffffffff800073e8:	41 8d 41 01          	lea    eax,[r9+0x1]
ffffffff800073ec:	c3                   	ret
ffffffff800073ed:	0f 1f 00             	nop    DWORD PTR [rax]

ffffffff800073f0 <npf_bufputc>:
ffffffff800073f0:	48 8b 46 10          	mov    rax,QWORD PTR [rsi+0x10]
ffffffff800073f4:	48 3b 46 08          	cmp    rax,QWORD PTR [rsi+0x8]
ffffffff800073f8:	73 0f                	jae    ffffffff80007409 <npf_bufputc+0x19>
ffffffff800073fa:	48 8b 16             	mov    rdx,QWORD PTR [rsi]
ffffffff800073fd:	48 8d 48 01          	lea    rcx,[rax+0x1]
ffffffff80007401:	48 89 4e 10          	mov    QWORD PTR [rsi+0x10],rcx
ffffffff80007405:	40 88 3c 02          	mov    BYTE PTR [rdx+rax*1],dil
ffffffff80007409:	c3                   	ret
ffffffff8000740a:	66 0f 1f 44 00 00    	nop    WORD PTR [rax+rax*1+0x0]

ffffffff80007410 <npf_bufputc_nop>:
ffffffff80007410:	c3                   	ret
ffffffff80007411:	66 2e 0f 1f 84 00 00 	cs nop WORD PTR [rax+rax*1+0x0]
ffffffff80007418:	00 00 00 
ffffffff8000741b:	0f 1f 44 00 00       	nop    DWORD PTR [rax+rax*1+0x0]

ffffffff80007420 <npf_vpprintf>:
ffffffff80007420:	55                   	push   rbp
ffffffff80007421:	48 89 e5             	mov    rbp,rsp
ffffffff80007424:	41 57                	push   r15
ffffffff80007426:	41 56                	push   r14
ffffffff80007428:	41 55                	push   r13
ffffffff8000742a:	41 54                	push   r12
ffffffff8000742c:	53                   	push   rbx
ffffffff8000742d:	48 83 ec 48          	sub    rsp,0x48
ffffffff80007431:	0f b6 02             	movzx  eax,BYTE PTR [rdx]
ffffffff80007434:	84 c0                	test   al,al
ffffffff80007436:	0f 84 15 01 00 00    	je     ffffffff80007551 <npf_vpprintf+0x131>
ffffffff8000743c:	48 89 4d 98          	mov    QWORD PTR [rbp-0x68],rcx
ffffffff80007440:	48 89 fb             	mov    rbx,rdi
ffffffff80007443:	49 89 d7             	mov    r15,rdx
ffffffff80007446:	49 89 f4             	mov    r12,rsi
ffffffff80007449:	45 31 ed             	xor    r13d,r13d
ffffffff8000744c:	eb 1d                	jmp    ffffffff8000746b <npf_vpprintf+0x4b>
ffffffff8000744e:	66 90                	xchg   ax,ax
ffffffff80007450:	0f be f8             	movsx  edi,al
ffffffff80007453:	4c 89 e6             	mov    rsi,r12
ffffffff80007456:	41 83 c5 01          	add    r13d,0x1
ffffffff8000745a:	4d 89 f7             	mov    r15,r14
ffffffff8000745d:	ff d3                	call   rbx
ffffffff8000745f:	41 0f b6 07          	movzx  eax,BYTE PTR [r15]
ffffffff80007463:	84 c0                	test   al,al
ffffffff80007465:	0f 84 e9 00 00 00    	je     ffffffff80007554 <npf_vpprintf+0x134>
ffffffff8000746b:	4d 8d 77 01          	lea    r14,[r15+0x1]
ffffffff8000746f:	3c 25                	cmp    al,0x25
ffffffff80007471:	75 dd                	jne    ffffffff80007450 <npf_vpprintf+0x30>
ffffffff80007473:	41 0f b6 57 01       	movzx  edx,BYTE PTR [r15+0x1]
ffffffff80007478:	84 d2                	test   dl,dl
ffffffff8000747a:	74 d4                	je     ffffffff80007450 <npf_vpprintf+0x30>
ffffffff8000747c:	80 fa 20             	cmp    dl,0x20
ffffffff8000747f:	0f 84 a3 00 00 00    	je     ffffffff80007528 <npf_vpprintf+0x108>
ffffffff80007485:	4c 89 ff             	mov    rdi,r15
ffffffff80007488:	4c 89 f1             	mov    rcx,r14
ffffffff8000748b:	45 31 db             	xor    r11d,r11d
ffffffff8000748e:	80 fa 2b             	cmp    dl,0x2b
ffffffff80007491:	75 28                	jne    ffffffff800074bb <npf_vpprintf+0x9b>
ffffffff80007493:	0f b6 71 01          	movzx  esi,BYTE PTR [rcx+0x1]
ffffffff80007497:	48 83 c1 01          	add    rcx,0x1
ffffffff8000749b:	40 84 f6             	test   sil,sil
ffffffff8000749e:	0f 84 cc 00 00 00    	je     ffffffff80007570 <npf_vpprintf+0x150>
ffffffff800074a4:	48 8d 79 ff          	lea    rdi,[rcx-0x1]
ffffffff800074a8:	41 bb 2b 00 00 00    	mov    r11d,0x2b
ffffffff800074ae:	40 80 fe 20          	cmp    sil,0x20
ffffffff800074b2:	74 4c                	je     ffffffff80007500 <npf_vpprintf+0xe0>
ffffffff800074b4:	89 f2                	mov    edx,esi
ffffffff800074b6:	80 fa 2b             	cmp    dl,0x2b
ffffffff800074b9:	74 d8                	je     ffffffff80007493 <npf_vpprintf+0x73>
ffffffff800074bb:	83 ea 68             	sub    edx,0x68
ffffffff800074be:	48 8d 77 02          	lea    rsi,[rdi+0x2]
ffffffff800074c2:	80 fa 12             	cmp    dl,0x12
ffffffff800074c5:	0f 87 b5 00 00 00    	ja     ffffffff80007580 <npf_vpprintf+0x160>
ffffffff800074cb:	0f b6 d2             	movzx  edx,dl
ffffffff800074ce:	ff 24 d5 68 a2 00 80 	jmp    QWORD PTR [rdx*8-0x7fff5d98]
ffffffff800074d5:	0f 1f 00             	nop    DWORD PTR [rax]
ffffffff800074d8:	41 89 d3             	mov    r11d,edx
ffffffff800074db:	0f b6 51 01          	movzx  edx,BYTE PTR [rcx+0x1]
ffffffff800074df:	48 83 c1 01          	add    rcx,0x1
ffffffff800074e3:	84 d2                	test   dl,dl
ffffffff800074e5:	0f 84 95 00 00 00    	je     ffffffff80007580 <npf_vpprintf+0x160>
ffffffff800074eb:	48 8d 79 ff          	lea    rdi,[rcx-0x1]
ffffffff800074ef:	80 fa 20             	cmp    dl,0x20
ffffffff800074f2:	75 9a                	jne    ffffffff8000748e <npf_vpprintf+0x6e>
ffffffff800074f4:	44 89 da             	mov    edx,r11d
ffffffff800074f7:	66 0f 1f 84 00 00 00 	nop    WORD PTR [rax+rax*1+0x0]
ffffffff800074fe:	00 00 
ffffffff80007500:	0f b6 71 01          	movzx  esi,BYTE PTR [rcx+0x1]
ffffffff80007504:	48 83 c1 01          	add    rcx,0x1
ffffffff80007508:	40 84 f6             	test   sil,sil
ffffffff8000750b:	0f 84 7d 07 00 00    	je     ffffffff80007c8e <npf_vpprintf+0x86e>
ffffffff80007511:	40 80 fe 20          	cmp    sil,0x20
ffffffff80007515:	74 c1                	je     ffffffff800074d8 <npf_vpprintf+0xb8>
ffffffff80007517:	41 89 d3             	mov    r11d,edx
ffffffff8000751a:	48 8d 79 ff          	lea    rdi,[rcx-0x1]
ffffffff8000751e:	89 f2                	mov    edx,esi
ffffffff80007520:	e9 69 ff ff ff       	jmp    ffffffff8000748e <npf_vpprintf+0x6e>
ffffffff80007525:	0f 1f 00             	nop    DWORD PTR [rax]
ffffffff80007528:	45 0f b6 5f 02       	movzx  r11d,BYTE PTR [r15+0x2]
ffffffff8000752d:	49 8d 4f 02          	lea    rcx,[r15+0x2]
ffffffff80007531:	45 84 db             	test   r11b,r11b
ffffffff80007534:	0f 84 99 04 00 00    	je     ffffffff800079d3 <npf_vpprintf+0x5b3>
ffffffff8000753a:	41 80 fb 20          	cmp    r11b,0x20
ffffffff8000753e:	74 9b                	je     ffffffff800074db <npf_vpprintf+0xbb>
ffffffff80007540:	44 89 da             	mov    edx,r11d
ffffffff80007543:	4c 89 f7             	mov    rdi,r14
ffffffff80007546:	41 bb 20 00 00 00    	mov    r11d,0x20
ffffffff8000754c:	e9 3d ff ff ff       	jmp    ffffffff8000748e <npf_vpprintf+0x6e>
ffffffff80007551:	45 31 ed             	xor    r13d,r13d
ffffffff80007554:	48 83 c4 48          	add    rsp,0x48
ffffffff80007558:	44 89 e8             	mov    eax,r13d
ffffffff8000755b:	5b                   	pop    rbx
ffffffff8000755c:	41 5c                	pop    r12
ffffffff8000755e:	41 5d                	pop    r13
ffffffff80007560:	41 5e                	pop    r14
ffffffff80007562:	41 5f                	pop    r15
ffffffff80007564:	5d                   	pop    rbp
ffffffff80007565:	c3                   	ret
ffffffff80007566:	66 2e 0f 1f 84 00 00 	cs nop WORD PTR [rax+rax*1+0x0]
ffffffff8000756d:	00 00 00 
ffffffff80007570:	41 bb 2b 00 00 00    	mov    r11d,0x2b
ffffffff80007576:	66 2e 0f 1f 84 00 00 	cs nop WORD PTR [rax+rax*1+0x0]
ffffffff8000757d:	00 00 00 
ffffffff80007580:	48 89 ce             	mov    rsi,rcx
ffffffff80007583:	45 31 c9             	xor    r9d,r9d
ffffffff80007586:	66 2e 0f 1f 84 00 00 	cs nop WORD PTR [rax+rax*1+0x0]
ffffffff8000758d:	00 00 00 
ffffffff80007590:	0f b6 16             	movzx  edx,BYTE PTR [rsi]
ffffffff80007593:	48 8d 4e 01          	lea    rcx,[rsi+0x1]
ffffffff80007597:	80 fa 25             	cmp    dl,0x25
ffffffff8000759a:	74 64                	je     ffffffff80007600 <npf_vpprintf+0x1e0>
ffffffff8000759c:	83 ea 58             	sub    edx,0x58
ffffffff8000759f:	80 fa 20             	cmp    dl,0x20
ffffffff800075a2:	0f 87 a8 fe ff ff    	ja     ffffffff80007450 <npf_vpprintf+0x30>
ffffffff800075a8:	0f b6 d2             	movzx  edx,dl
ffffffff800075ab:	ff 24 d5 00 a3 00 80 	jmp    QWORD PTR [rdx*8-0x7fff5d00]
ffffffff800075b2:	66 0f 1f 44 00 00    	nop    WORD PTR [rax+rax*1+0x0]
ffffffff800075b8:	48 89 ca             	mov    rdx,rcx
ffffffff800075bb:	4c 29 fa             	sub    rdx,r15
ffffffff800075be:	44 39 f9             	cmp    ecx,r15d
ffffffff800075c1:	0f 84 89 fe ff ff    	je     ffffffff80007450 <npf_vpprintf+0x30>
ffffffff800075c7:	48 63 c2             	movsxd rax,edx
ffffffff800075ca:	49 01 c7             	add    r15,rax
ffffffff800075cd:	41 80 f9 08          	cmp    r9b,0x8
ffffffff800075d1:	0f 87 8c 06 00 00    	ja     ffffffff80007c63 <npf_vpprintf+0x843>
ffffffff800075d7:	42 ff 24 cd 08 a4 00 	jmp    QWORD PTR [r9*8-0x7fff5bf8]
ffffffff800075de:	80 
ffffffff800075df:	90                   	nop
ffffffff800075e0:	0f b6 16             	movzx  edx,BYTE PTR [rsi]
ffffffff800075e3:	41 b9 08 00 00 00    	mov    r9d,0x8
ffffffff800075e9:	48 8d 4e 01          	lea    rcx,[rsi+0x1]
ffffffff800075ed:	80 fa 25             	cmp    dl,0x25
ffffffff800075f0:	75 aa                	jne    ffffffff8000759c <npf_vpprintf+0x17c>
ffffffff800075f2:	0f 1f 00             	nop    DWORD PTR [rax]
ffffffff800075f5:	66 66 2e 0f 1f 84 00 	data16 cs nop WORD PTR [rax+rax*1+0x0]
ffffffff800075fc:	00 00 00 00 
ffffffff80007600:	48 89 ca             	mov    rdx,rcx
ffffffff80007603:	4c 29 fa             	sub    rdx,r15
ffffffff80007606:	44 39 f9             	cmp    ecx,r15d
ffffffff80007609:	0f 84 41 fe ff ff    	je     ffffffff80007450 <npf_vpprintf+0x30>
ffffffff8000760f:	c6 45 b0 25          	mov    BYTE PTR [rbp-0x50],0x25
ffffffff80007613:	48 63 c2             	movsxd rax,edx
ffffffff80007616:	c7 45 a8 00 00 00 00 	mov    DWORD PTR [rbp-0x58],0x0
ffffffff8000761d:	49 01 c7             	add    r15,rax
ffffffff80007620:	48 63 45 a8          	movsxd rax,DWORD PTR [rbp-0x58]
ffffffff80007624:	4c 8d 74 05 b0       	lea    r14,[rbp+rax*1-0x50]
ffffffff80007629:	0f 1f 80 00 00 00 00 	nop    DWORD PTR [rax+0x0]
ffffffff80007630:	41 0f be 3e          	movsx  edi,BYTE PTR [r14]
ffffffff80007634:	4c 89 e6             	mov    rsi,r12
ffffffff80007637:	49 83 ee 01          	sub    r14,0x1
ffffffff8000763b:	ff d3                	call   rbx
ffffffff8000763d:	48 8d 45 af          	lea    rax,[rbp-0x51]
ffffffff80007641:	49 39 c6             	cmp    r14,rax
ffffffff80007644:	75 ea                	jne    ffffffff80007630 <npf_vpprintf+0x210>
ffffffff80007646:	8b 45 a8             	mov    eax,DWORD PTR [rbp-0x58]
ffffffff80007649:	46 8d 6c 28 01       	lea    r13d,[rax+r13*1+0x1]
ffffffff8000764e:	e9 0c fe ff ff       	jmp    ffffffff8000745f <npf_vpprintf+0x3f>
ffffffff80007653:	0f 1f 44 00 00       	nop    DWORD PTR [rax+rax*1+0x0]
ffffffff80007658:	41 b9 03 00 00 00    	mov    r9d,0x3
ffffffff8000765e:	80 79 01 6c          	cmp    BYTE PTR [rcx+0x1],0x6c
ffffffff80007662:	0f 85 28 ff ff ff    	jne    ffffffff80007590 <npf_vpprintf+0x170>
ffffffff80007668:	48 8d 77 03          	lea    rsi,[rdi+0x3]
ffffffff8000766c:	41 b9 05 00 00 00    	mov    r9d,0x5
ffffffff80007672:	e9 19 ff ff ff       	jmp    ffffffff80007590 <npf_vpprintf+0x170>
ffffffff80007677:	66 0f 1f 84 00 00 00 	nop    WORD PTR [rax+rax*1+0x0]
ffffffff8000767e:	00 00 
ffffffff80007680:	41 b9 01 00 00 00    	mov    r9d,0x1
ffffffff80007686:	80 79 01 68          	cmp    BYTE PTR [rcx+0x1],0x68
ffffffff8000768a:	0f 85 00 ff ff ff    	jne    ffffffff80007590 <npf_vpprintf+0x170>
ffffffff80007690:	48 8d 77 03          	lea    rsi,[rdi+0x3]
ffffffff80007694:	41 b9 02 00 00 00    	mov    r9d,0x2
ffffffff8000769a:	e9 f1 fe ff ff       	jmp    ffffffff80007590 <npf_vpprintf+0x170>
ffffffff8000769f:	90                   	nop
ffffffff800076a0:	41 b9 06 00 00 00    	mov    r9d,0x6
ffffffff800076a6:	e9 e5 fe ff ff       	jmp    ffffffff80007590 <npf_vpprintf+0x170>
ffffffff800076ab:	48 89 ca             	mov    rdx,rcx
ffffffff800076ae:	4c 29 fa             	sub    rdx,r15
ffffffff800076b1:	44 39 f9             	cmp    ecx,r15d
ffffffff800076b4:	0f 84 96 fd ff ff    	je     ffffffff80007450 <npf_vpprintf+0x30>
ffffffff800076ba:	48 63 d2             	movsxd rdx,edx
ffffffff800076bd:	31 c9                	xor    ecx,ecx
ffffffff800076bf:	49 01 d7             	add    r15,rdx
ffffffff800076c2:	41 80 f9 08          	cmp    r9b,0x8
ffffffff800076c6:	0f 87 af 05 00 00    	ja     ffffffff80007c7b <npf_vpprintf+0x85b>
ffffffff800076cc:	41 0f b6 c1          	movzx  eax,r9b
ffffffff800076d0:	ff 24 c5 50 a4 00 80 	jmp    QWORD PTR [rax*8-0x7fff5bb0]
ffffffff800076d7:	48 89 ca             	mov    rdx,rcx
ffffffff800076da:	4c 29 fa             	sub    rdx,r15
ffffffff800076dd:	44 39 f9             	cmp    ecx,r15d
ffffffff800076e0:	0f 84 6a fd ff ff    	je     ffffffff80007450 <npf_vpprintf+0x30>
ffffffff800076e6:	48 63 c2             	movsxd rax,edx
ffffffff800076e9:	49 01 c7             	add    r15,rax
ffffffff800076ec:	48 8b 45 98          	mov    rax,QWORD PTR [rbp-0x68]
ffffffff800076f0:	8b 00                	mov    eax,DWORD PTR [rax]
ffffffff800076f2:	83 f8 2f             	cmp    eax,0x2f
ffffffff800076f5:	0f 87 95 01 00 00    	ja     ffffffff80007890 <npf_vpprintf+0x470>
ffffffff800076fb:	48 8b 75 98          	mov    rsi,QWORD PTR [rbp-0x68]
ffffffff800076ff:	89 c2                	mov    edx,eax
ffffffff80007701:	83 c0 08             	add    eax,0x8
ffffffff80007704:	89 06                	mov    DWORD PTR [rsi],eax
ffffffff80007706:	48 03 56 10          	add    rdx,QWORD PTR [rsi+0x10]
ffffffff8000770a:	8b 02                	mov    eax,DWORD PTR [rdx]
ffffffff8000770c:	45 31 f6             	xor    r14d,r14d
ffffffff8000770f:	88 45 b0             	mov    BYTE PTR [rbp-0x50],al
ffffffff80007712:	84 c0                	test   al,al
ffffffff80007714:	41 0f 95 c6          	setne  r14b
ffffffff80007718:	41 8d 46 ff          	lea    eax,[r14-0x1]
ffffffff8000771c:	89 45 a8             	mov    DWORD PTR [rbp-0x58],eax
ffffffff8000771f:	45 85 f6             	test   r14d,r14d
ffffffff80007722:	0f 8f f8 fe ff ff    	jg     ffffffff80007620 <npf_vpprintf+0x200>
ffffffff80007728:	e9 32 fd ff ff       	jmp    ffffffff8000745f <npf_vpprintf+0x3f>
ffffffff8000772d:	48 89 ca             	mov    rdx,rcx
ffffffff80007730:	4c 29 fa             	sub    rdx,r15
ffffffff80007733:	44 39 f9             	cmp    ecx,r15d
ffffffff80007736:	0f 84 14 fd ff ff    	je     ffffffff80007450 <npf_vpprintf+0x30>
ffffffff8000773c:	48 63 d2             	movsxd rdx,edx
ffffffff8000773f:	b9 20 00 00 00       	mov    ecx,0x20
ffffffff80007744:	49 01 d7             	add    r15,rdx
ffffffff80007747:	e9 76 ff ff ff       	jmp    ffffffff800076c2 <npf_vpprintf+0x2a2>
ffffffff8000774c:	48 89 ca             	mov    rdx,rcx
ffffffff8000774f:	4c 29 fa             	sub    rdx,r15
ffffffff80007752:	44 39 f9             	cmp    ecx,r15d
ffffffff80007755:	0f 84 f5 fc ff ff    	je     ffffffff80007450 <npf_vpprintf+0x30>
ffffffff8000775b:	48 63 d2             	movsxd rdx,edx
ffffffff8000775e:	49 01 d7             	add    r15,rdx
ffffffff80007761:	41 80 f9 08          	cmp    r9b,0x8
ffffffff80007765:	0f 87 17 05 00 00    	ja     ffffffff80007c82 <npf_vpprintf+0x862>
ffffffff8000776b:	41 0f b6 c1          	movzx  eax,r9b
ffffffff8000776f:	ff 24 c5 98 a4 00 80 	jmp    QWORD PTR [rax*8-0x7fff5b68]
ffffffff80007776:	48 89 ca             	mov    rdx,rcx
ffffffff80007779:	4c 29 fa             	sub    rdx,r15
ffffffff8000777c:	44 39 f9             	cmp    ecx,r15d
ffffffff8000777f:	0f 84 cb fc ff ff    	je     ffffffff80007450 <npf_vpprintf+0x30>
ffffffff80007785:	48 63 c2             	movsxd rax,edx
ffffffff80007788:	49 01 c7             	add    r15,rax
ffffffff8000778b:	48 8b 45 98          	mov    rax,QWORD PTR [rbp-0x68]
ffffffff8000778f:	8b 00                	mov    eax,DWORD PTR [rax]
ffffffff80007791:	83 f8 2f             	cmp    eax,0x2f
ffffffff80007794:	0f 87 0e 01 00 00    	ja     ffffffff800078a8 <npf_vpprintf+0x488>
ffffffff8000779a:	48 8b 75 98          	mov    rsi,QWORD PTR [rbp-0x68]
ffffffff8000779e:	89 c2                	mov    edx,eax
ffffffff800077a0:	83 c0 08             	add    eax,0x8
ffffffff800077a3:	89 06                	mov    DWORD PTR [rsi],eax
ffffffff800077a5:	48 03 56 10          	add    rdx,QWORD PTR [rsi+0x10]
ffffffff800077a9:	48 8b 02             	mov    rax,QWORD PTR [rdx]
ffffffff800077ac:	48 85 c0             	test   rax,rax
ffffffff800077af:	0f 84 aa fc ff ff    	je     ffffffff8000745f <npf_vpprintf+0x3f>
ffffffff800077b5:	80 38 00             	cmp    BYTE PTR [rax],0x0
ffffffff800077b8:	0f 84 a1 fc ff ff    	je     ffffffff8000745f <npf_vpprintf+0x3f>
ffffffff800077be:	31 d2                	xor    edx,edx
ffffffff800077c0:	48 89 d1             	mov    rcx,rdx
ffffffff800077c3:	48 89 55 a0          	mov    QWORD PTR [rbp-0x60],rdx
ffffffff800077c7:	48 8d 52 01          	lea    rdx,[rdx+0x1]
ffffffff800077cb:	80 7c 08 01 00       	cmp    BYTE PTR [rax+rcx*1+0x1],0x0
ffffffff800077d0:	75 ee                	jne    ffffffff800077c0 <npf_vpprintf+0x3a0>
ffffffff800077d2:	49 89 c6             	mov    r14,rax
ffffffff800077d5:	48 8b 45 a0          	mov    rax,QWORD PTR [rbp-0x60]
ffffffff800077d9:	4a 8d 44 30 01       	lea    rax,[rax+r14*1+0x1]
ffffffff800077de:	48 89 45 a8          	mov    QWORD PTR [rbp-0x58],rax
ffffffff800077e2:	0f 1f 00             	nop    DWORD PTR [rax]
ffffffff800077e5:	66 66 2e 0f 1f 84 00 	data16 cs nop WORD PTR [rax+rax*1+0x0]
ffffffff800077ec:	00 00 00 00 
ffffffff800077f0:	41 0f be 3e          	movsx  edi,BYTE PTR [r14]
ffffffff800077f4:	4c 89 e6             	mov    rsi,r12
ffffffff800077f7:	49 83 c6 01          	add    r14,0x1
ffffffff800077fb:	ff d3                	call   rbx
ffffffff800077fd:	4c 39 75 a8          	cmp    QWORD PTR [rbp-0x58],r14
ffffffff80007801:	75 ed                	jne    ffffffff800077f0 <npf_vpprintf+0x3d0>
ffffffff80007803:	48 8b 45 a0          	mov    rax,QWORD PTR [rbp-0x60]
ffffffff80007807:	45 8d 6c 05 01       	lea    r13d,[r13+rax*1+0x1]
ffffffff8000780c:	e9 4e fc ff ff       	jmp    ffffffff8000745f <npf_vpprintf+0x3f>
ffffffff80007811:	48 89 ca             	mov    rdx,rcx
ffffffff80007814:	4c 29 fa             	sub    rdx,r15
ffffffff80007817:	44 39 f9             	cmp    ecx,r15d
ffffffff8000781a:	0f 84 30 fc ff ff    	je     ffffffff80007450 <npf_vpprintf+0x30>
ffffffff80007820:	48 8b 45 98          	mov    rax,QWORD PTR [rbp-0x68]
ffffffff80007824:	48 63 d2             	movsxd rdx,edx
ffffffff80007827:	49 01 d7             	add    r15,rdx
ffffffff8000782a:	8b 00                	mov    eax,DWORD PTR [rax]
ffffffff8000782c:	83 f8 2f             	cmp    eax,0x2f
ffffffff8000782f:	0f 87 f3 00 00 00    	ja     ffffffff80007928 <npf_vpprintf+0x508>
ffffffff80007835:	48 8b 75 98          	mov    rsi,QWORD PTR [rbp-0x68]
ffffffff80007839:	89 c2                	mov    edx,eax
ffffffff8000783b:	83 c0 08             	add    eax,0x8
ffffffff8000783e:	89 06                	mov    DWORD PTR [rsi],eax
ffffffff80007840:	48 03 56 10          	add    rdx,QWORD PTR [rsi+0x10]
ffffffff80007844:	48 8b 3a             	mov    rdi,QWORD PTR [rdx]
ffffffff80007847:	b9 20 00 00 00       	mov    ecx,0x20
ffffffff8000784c:	ba 10 00 00 00       	mov    edx,0x10
ffffffff80007851:	48 8d 75 b0          	lea    rsi,[rbp-0x50]
ffffffff80007855:	e8 26 fb ff ff       	call   ffffffff80007380 <npf_utoa_rev>
ffffffff8000785a:	41 89 c6             	mov    r14d,eax
ffffffff8000785d:	e9 b6 fe ff ff       	jmp    ffffffff80007718 <npf_vpprintf+0x2f8>
ffffffff80007862:	48 89 ca             	mov    rdx,rcx
ffffffff80007865:	4c 29 fa             	sub    rdx,r15
ffffffff80007868:	44 39 f9             	cmp    ecx,r15d
ffffffff8000786b:	0f 84 df fb ff ff    	je     ffffffff80007450 <npf_vpprintf+0x30>
ffffffff80007871:	48 63 d2             	movsxd rdx,edx
ffffffff80007874:	49 01 d7             	add    r15,rdx
ffffffff80007877:	41 80 f9 08          	cmp    r9b,0x8
ffffffff8000787b:	0f 87 e9 03 00 00    	ja     ffffffff80007c6a <npf_vpprintf+0x84a>
ffffffff80007881:	41 0f b6 c1          	movzx  eax,r9b
ffffffff80007885:	ff 24 c5 e0 a4 00 80 	jmp    QWORD PTR [rax*8-0x7fff5b20]
ffffffff8000788c:	0f 1f 40 00          	nop    DWORD PTR [rax+0x0]
ffffffff80007890:	48 8b 75 98          	mov    rsi,QWORD PTR [rbp-0x68]
ffffffff80007894:	48 8b 56 08          	mov    rdx,QWORD PTR [rsi+0x8]
ffffffff80007898:	48 8d 42 08          	lea    rax,[rdx+0x8]
ffffffff8000789c:	48 89 46 08          	mov    QWORD PTR [rsi+0x8],rax
ffffffff800078a0:	e9 65 fe ff ff       	jmp    ffffffff8000770a <npf_vpprintf+0x2ea>
ffffffff800078a5:	0f 1f 00             	nop    DWORD PTR [rax]
ffffffff800078a8:	48 8b 75 98          	mov    rsi,QWORD PTR [rbp-0x68]
ffffffff800078ac:	48 8b 56 08          	mov    rdx,QWORD PTR [rsi+0x8]
ffffffff800078b0:	48 8d 42 08          	lea    rax,[rdx+0x8]
ffffffff800078b4:	48 89 46 08          	mov    QWORD PTR [rsi+0x8],rax
ffffffff800078b8:	e9 ec fe ff ff       	jmp    ffffffff800077a9 <npf_vpprintf+0x389>
ffffffff800078bd:	0f 1f 00             	nop    DWORD PTR [rax]
ffffffff800078c0:	41 b9 07 00 00 00    	mov    r9d,0x7
ffffffff800078c6:	e9 c5 fc ff ff       	jmp    ffffffff80007590 <npf_vpprintf+0x170>
ffffffff800078cb:	48 8b 75 98          	mov    rsi,QWORD PTR [rbp-0x68]
ffffffff800078cf:	8b 06                	mov    eax,DWORD PTR [rsi]
ffffffff800078d1:	83 f8 2f             	cmp    eax,0x2f
ffffffff800078d4:	0f 87 04 01 00 00    	ja     ffffffff800079de <npf_vpprintf+0x5be>
ffffffff800078da:	89 c2                	mov    edx,eax
ffffffff800078dc:	83 c0 08             	add    eax,0x8
ffffffff800078df:	48 03 56 10          	add    rdx,QWORD PTR [rsi+0x10]
ffffffff800078e3:	89 06                	mov    DWORD PTR [rsi],eax
ffffffff800078e5:	48 8b 3a             	mov    rdi,QWORD PTR [rdx]
ffffffff800078e8:	48 89 f8             	mov    rax,rdi
ffffffff800078eb:	48 85 ff             	test   rdi,rdi
ffffffff800078ee:	0f 88 bc 00 00 00    	js     ffffffff800079b0 <npf_vpprintf+0x590>
ffffffff800078f4:	48 89 c7             	mov    rdi,rax
ffffffff800078f7:	48 8d 75 b0          	lea    rsi,[rbp-0x50]
ffffffff800078fb:	b9 20 00 00 00       	mov    ecx,0x20
ffffffff80007900:	ba 0a 00 00 00       	mov    edx,0xa
ffffffff80007905:	e8 76 fa ff ff       	call   ffffffff80007380 <npf_utoa_rev>
ffffffff8000790a:	41 0f be fb          	movsx  edi,r11b
ffffffff8000790e:	41 89 c6             	mov    r14d,eax
ffffffff80007911:	45 84 db             	test   r11b,r11b
ffffffff80007914:	0f 84 fe fd ff ff    	je     ffffffff80007718 <npf_vpprintf+0x2f8>
ffffffff8000791a:	41 83 c5 01          	add    r13d,0x1
ffffffff8000791e:	4c 89 e6             	mov    rsi,r12
ffffffff80007921:	ff d3                	call   rbx
ffffffff80007923:	e9 f0 fd ff ff       	jmp    ffffffff80007718 <npf_vpprintf+0x2f8>
ffffffff80007928:	48 8b 75 98          	mov    rsi,QWORD PTR [rbp-0x68]
ffffffff8000792c:	48 8b 56 08          	mov    rdx,QWORD PTR [rsi+0x8]
ffffffff80007930:	48 8d 42 08          	lea    rax,[rdx+0x8]
ffffffff80007934:	48 89 46 08          	mov    QWORD PTR [rsi+0x8],rax
ffffffff80007938:	e9 07 ff ff ff       	jmp    ffffffff80007844 <npf_vpprintf+0x424>
ffffffff8000793d:	48 8b 75 98          	mov    rsi,QWORD PTR [rbp-0x68]
ffffffff80007941:	8b 06                	mov    eax,DWORD PTR [rsi]
ffffffff80007943:	83 f8 2f             	cmp    eax,0x2f
ffffffff80007946:	0f 87 01 01 00 00    	ja     ffffffff80007a4d <npf_vpprintf+0x62d>
ffffffff8000794c:	41 b9 06 00 00 00    	mov    r9d,0x6
ffffffff80007952:	48 8b 75 98          	mov    rsi,QWORD PTR [rbp-0x68]
ffffffff80007956:	89 c2                	mov    edx,eax
ffffffff80007958:	83 c0 08             	add    eax,0x8
ffffffff8000795b:	48 03 56 10          	add    rdx,QWORD PTR [rsi+0x10]
ffffffff8000795f:	89 06                	mov    DWORD PTR [rsi],eax
ffffffff80007961:	48 8b 3a             	mov    rdi,QWORD PTR [rdx]
ffffffff80007964:	ba 08 00 00 00       	mov    edx,0x8
ffffffff80007969:	41 80 f9 05          	cmp    r9b,0x5
ffffffff8000796d:	0f 84 de fe ff ff    	je     ffffffff80007851 <npf_vpprintf+0x431>
ffffffff80007973:	41 80 f9 07          	cmp    r9b,0x7
ffffffff80007977:	0f 84 c6 00 00 00    	je     ffffffff80007a43 <npf_vpprintf+0x623>
ffffffff8000797d:	ba 10 00 00 00       	mov    edx,0x10
ffffffff80007982:	e9 ca fe ff ff       	jmp    ffffffff80007851 <npf_vpprintf+0x431>
ffffffff80007987:	48 8b 4d 98          	mov    rcx,QWORD PTR [rbp-0x68]
ffffffff8000798b:	8b 01                	mov    eax,DWORD PTR [rcx]
ffffffff8000798d:	83 f8 2f             	cmp    eax,0x2f
ffffffff80007990:	0f 86 33 01 00 00    	jbe    ffffffff80007ac9 <npf_vpprintf+0x6a9>
ffffffff80007996:	48 8b 75 98          	mov    rsi,QWORD PTR [rbp-0x68]
ffffffff8000799a:	48 8b 56 08          	mov    rdx,QWORD PTR [rsi+0x8]
ffffffff8000799e:	48 8d 42 08          	lea    rax,[rdx+0x8]
ffffffff800079a2:	48 89 46 08          	mov    QWORD PTR [rsi+0x8],rax
ffffffff800079a6:	e9 3a ff ff ff       	jmp    ffffffff800078e5 <npf_vpprintf+0x4c5>
ffffffff800079ab:	0f 1f 44 00 00       	nop    DWORD PTR [rax+rax*1+0x0]
ffffffff800079b0:	48 f7 df             	neg    rdi
ffffffff800079b3:	48 8d 75 b0          	lea    rsi,[rbp-0x50]
ffffffff800079b7:	b9 20 00 00 00       	mov    ecx,0x20
ffffffff800079bc:	ba 0a 00 00 00       	mov    edx,0xa
ffffffff800079c1:	e8 ba f9 ff ff       	call   ffffffff80007380 <npf_utoa_rev>
ffffffff800079c6:	bf 2d 00 00 00       	mov    edi,0x2d
ffffffff800079cb:	41 89 c6             	mov    r14d,eax
ffffffff800079ce:	e9 47 ff ff ff       	jmp    ffffffff8000791a <npf_vpprintf+0x4fa>
ffffffff800079d3:	41 bb 20 00 00 00    	mov    r11d,0x20
ffffffff800079d9:	e9 a2 fb ff ff       	jmp    ffffffff80007580 <npf_vpprintf+0x160>
ffffffff800079de:	48 8b 4d 98          	mov    rcx,QWORD PTR [rbp-0x68]
ffffffff800079e2:	48 8b 51 08          	mov    rdx,QWORD PTR [rcx+0x8]
ffffffff800079e6:	48 8d 42 08          	lea    rax,[rdx+0x8]
ffffffff800079ea:	48 89 41 08          	mov    QWORD PTR [rcx+0x8],rax
ffffffff800079ee:	e9 f2 fe ff ff       	jmp    ffffffff800078e5 <npf_vpprintf+0x4c5>
ffffffff800079f3:	48 8b 4d 98          	mov    rcx,QWORD PTR [rbp-0x68]
ffffffff800079f7:	8b 01                	mov    eax,DWORD PTR [rcx]
ffffffff800079f9:	83 f8 2f             	cmp    eax,0x2f
ffffffff800079fc:	0f 86 19 03 00 00    	jbe    ffffffff80007d1b <npf_vpprintf+0x8fb>
ffffffff80007a02:	48 8b 41 08          	mov    rax,QWORD PTR [rcx+0x8]
ffffffff80007a06:	48 8d 50 08          	lea    rdx,[rax+0x8]
ffffffff80007a0a:	48 89 51 08          	mov    QWORD PTR [rcx+0x8],rdx
ffffffff80007a0e:	b9 20 00 00 00       	mov    ecx,0x20
ffffffff80007a13:	48 8b 38             	mov    rdi,QWORD PTR [rax]
ffffffff80007a16:	ba 08 00 00 00       	mov    edx,0x8
ffffffff80007a1b:	e9 31 fe ff ff       	jmp    ffffffff80007851 <npf_vpprintf+0x431>
ffffffff80007a20:	48 8b 4d 98          	mov    rcx,QWORD PTR [rbp-0x68]
ffffffff80007a24:	8b 01                	mov    eax,DWORD PTR [rcx]
ffffffff80007a26:	83 f8 2f             	cmp    eax,0x2f
ffffffff80007a29:	0f 86 09 03 00 00    	jbe    ffffffff80007d38 <npf_vpprintf+0x918>
ffffffff80007a2f:	48 8b 41 08          	mov    rax,QWORD PTR [rcx+0x8]
ffffffff80007a33:	48 8d 50 08          	lea    rdx,[rax+0x8]
ffffffff80007a37:	48 89 51 08          	mov    QWORD PTR [rcx+0x8],rdx
ffffffff80007a3b:	48 8b 38             	mov    rdi,QWORD PTR [rax]
ffffffff80007a3e:	b9 20 00 00 00       	mov    ecx,0x20
ffffffff80007a43:	ba 0a 00 00 00       	mov    edx,0xa
ffffffff80007a48:	e9 04 fe ff ff       	jmp    ffffffff80007851 <npf_vpprintf+0x431>
ffffffff80007a4d:	48 8b 46 08          	mov    rax,QWORD PTR [rsi+0x8]
ffffffff80007a51:	48 8d 50 08          	lea    rdx,[rax+0x8]
ffffffff80007a55:	48 89 56 08          	mov    QWORD PTR [rsi+0x8],rdx
ffffffff80007a59:	48 8b 38             	mov    rdi,QWORD PTR [rax]
ffffffff80007a5c:	e9 1c ff ff ff       	jmp    ffffffff8000797d <npf_vpprintf+0x55d>
ffffffff80007a61:	48 8b 75 98          	mov    rsi,QWORD PTR [rbp-0x68]
ffffffff80007a65:	8b 06                	mov    eax,DWORD PTR [rsi]
ffffffff80007a67:	83 f8 2f             	cmp    eax,0x2f
ffffffff80007a6a:	0f 87 3b 02 00 00    	ja     ffffffff80007cab <npf_vpprintf+0x88b>
ffffffff80007a70:	89 c2                	mov    edx,eax
ffffffff80007a72:	83 c0 08             	add    eax,0x8
ffffffff80007a75:	48 03 56 10          	add    rdx,QWORD PTR [rsi+0x10]
ffffffff80007a79:	89 06                	mov    DWORD PTR [rsi],eax
ffffffff80007a7b:	48 63 3a             	movsxd rdi,DWORD PTR [rdx]
ffffffff80007a7e:	e9 65 fe ff ff       	jmp    ffffffff800078e8 <npf_vpprintf+0x4c8>
ffffffff80007a83:	48 8b 75 98          	mov    rsi,QWORD PTR [rbp-0x68]
ffffffff80007a87:	8b 06                	mov    eax,DWORD PTR [rsi]
ffffffff80007a89:	83 f8 2f             	cmp    eax,0x2f
ffffffff80007a8c:	0f 87 04 02 00 00    	ja     ffffffff80007c96 <npf_vpprintf+0x876>
ffffffff80007a92:	89 c2                	mov    edx,eax
ffffffff80007a94:	83 c0 08             	add    eax,0x8
ffffffff80007a97:	48 03 56 10          	add    rdx,QWORD PTR [rsi+0x10]
ffffffff80007a9b:	89 06                	mov    DWORD PTR [rsi],eax
ffffffff80007a9d:	48 0f bf 3a          	movsx  rdi,WORD PTR [rdx]
ffffffff80007aa1:	e9 42 fe ff ff       	jmp    ffffffff800078e8 <npf_vpprintf+0x4c8>
ffffffff80007aa6:	48 8b 75 98          	mov    rsi,QWORD PTR [rbp-0x68]
ffffffff80007aaa:	8b 06                	mov    eax,DWORD PTR [rsi]
ffffffff80007aac:	83 f8 2f             	cmp    eax,0x2f
ffffffff80007aaf:	0f 87 0b 02 00 00    	ja     ffffffff80007cc0 <npf_vpprintf+0x8a0>
ffffffff80007ab5:	89 c2                	mov    edx,eax
ffffffff80007ab7:	83 c0 08             	add    eax,0x8
ffffffff80007aba:	48 03 56 10          	add    rdx,QWORD PTR [rsi+0x10]
ffffffff80007abe:	89 06                	mov    DWORD PTR [rsi],eax
ffffffff80007ac0:	48 0f be 3a          	movsx  rdi,BYTE PTR [rdx]
ffffffff80007ac4:	e9 1f fe ff ff       	jmp    ffffffff800078e8 <npf_vpprintf+0x4c8>
ffffffff80007ac9:	89 c2                	mov    edx,eax
ffffffff80007acb:	83 c0 08             	add    eax,0x8
ffffffff80007ace:	48 03 51 10          	add    rdx,QWORD PTR [rcx+0x10]
ffffffff80007ad2:	89 01                	mov    DWORD PTR [rcx],eax
ffffffff80007ad4:	e9 0c fe ff ff       	jmp    ffffffff800078e5 <npf_vpprintf+0x4c5>
ffffffff80007ad9:	41 b9 05 00 00 00    	mov    r9d,0x5
ffffffff80007adf:	b9 20 00 00 00       	mov    ecx,0x20
ffffffff80007ae4:	48 8b 75 98          	mov    rsi,QWORD PTR [rbp-0x68]
ffffffff80007ae8:	8b 06                	mov    eax,DWORD PTR [rsi]
ffffffff80007aea:	83 f8 2f             	cmp    eax,0x2f
ffffffff80007aed:	0f 87 f7 01 00 00    	ja     ffffffff80007cea <npf_vpprintf+0x8ca>
ffffffff80007af3:	89 c2                	mov    edx,eax
ffffffff80007af5:	83 c0 08             	add    eax,0x8
ffffffff80007af8:	48 03 56 10          	add    rdx,QWORD PTR [rsi+0x10]
ffffffff80007afc:	89 06                	mov    DWORD PTR [rsi],eax
ffffffff80007afe:	0f b6 3a             	movzx  edi,BYTE PTR [rdx]
ffffffff80007b01:	e9 5e fe ff ff       	jmp    ffffffff80007964 <npf_vpprintf+0x544>
ffffffff80007b06:	41 b9 05 00 00 00    	mov    r9d,0x5
ffffffff80007b0c:	b9 20 00 00 00       	mov    ecx,0x20
ffffffff80007b11:	48 8b 75 98          	mov    rsi,QWORD PTR [rbp-0x68]
ffffffff80007b15:	8b 06                	mov    eax,DWORD PTR [rsi]
ffffffff80007b17:	83 f8 2f             	cmp    eax,0x2f
ffffffff80007b1a:	0f 87 b5 01 00 00    	ja     ffffffff80007cd5 <npf_vpprintf+0x8b5>
ffffffff80007b20:	89 c2                	mov    edx,eax
ffffffff80007b22:	83 c0 08             	add    eax,0x8
ffffffff80007b25:	48 03 56 10          	add    rdx,QWORD PTR [rsi+0x10]
ffffffff80007b29:	89 06                	mov    DWORD PTR [rsi],eax
ffffffff80007b2b:	0f b7 3a             	movzx  edi,WORD PTR [rdx]
ffffffff80007b2e:	e9 31 fe ff ff       	jmp    ffffffff80007964 <npf_vpprintf+0x544>
ffffffff80007b33:	41 b9 07 00 00 00    	mov    r9d,0x7
ffffffff80007b39:	b9 20 00 00 00       	mov    ecx,0x20
ffffffff80007b3e:	eb a4                	jmp    ffffffff80007ae4 <npf_vpprintf+0x6c4>
ffffffff80007b40:	41 b9 07 00 00 00    	mov    r9d,0x7
ffffffff80007b46:	b9 20 00 00 00       	mov    ecx,0x20
ffffffff80007b4b:	eb c4                	jmp    ffffffff80007b11 <npf_vpprintf+0x6f1>
ffffffff80007b4d:	48 8b 4d 98          	mov    rcx,QWORD PTR [rbp-0x68]
ffffffff80007b51:	8b 01                	mov    eax,DWORD PTR [rcx]
ffffffff80007b53:	83 f8 2f             	cmp    eax,0x2f
ffffffff80007b56:	0f 86 ec 01 00 00    	jbe    ffffffff80007d48 <npf_vpprintf+0x928>
ffffffff80007b5c:	48 8b 41 08          	mov    rax,QWORD PTR [rcx+0x8]
ffffffff80007b60:	48 8d 50 08          	lea    rdx,[rax+0x8]
ffffffff80007b64:	48 89 51 08          	mov    QWORD PTR [rcx+0x8],rdx
ffffffff80007b68:	b9 20 00 00 00       	mov    ecx,0x20
ffffffff80007b6d:	8b 38                	mov    edi,DWORD PTR [rax]
ffffffff80007b6f:	e9 cf fe ff ff       	jmp    ffffffff80007a43 <npf_vpprintf+0x623>
ffffffff80007b74:	48 8b 4d 98          	mov    rcx,QWORD PTR [rbp-0x68]
ffffffff80007b78:	8b 01                	mov    eax,DWORD PTR [rcx]
ffffffff80007b7a:	83 f8 2f             	cmp    eax,0x2f
ffffffff80007b7d:	0f 87 7f fe ff ff    	ja     ffffffff80007a02 <npf_vpprintf+0x5e2>
ffffffff80007b83:	b9 20 00 00 00       	mov    ecx,0x20
ffffffff80007b88:	e9 c5 fd ff ff       	jmp    ffffffff80007952 <npf_vpprintf+0x532>
ffffffff80007b8d:	48 8b 4d 98          	mov    rcx,QWORD PTR [rbp-0x68]
ffffffff80007b91:	8b 01                	mov    eax,DWORD PTR [rcx]
ffffffff80007b93:	83 f8 2f             	cmp    eax,0x2f
ffffffff80007b96:	0f 86 8f 01 00 00    	jbe    ffffffff80007d2b <npf_vpprintf+0x90b>
ffffffff80007b9c:	48 8b 41 08          	mov    rax,QWORD PTR [rcx+0x8]
ffffffff80007ba0:	48 8d 50 08          	lea    rdx,[rax+0x8]
ffffffff80007ba4:	48 89 51 08          	mov    QWORD PTR [rcx+0x8],rdx
ffffffff80007ba8:	b9 20 00 00 00       	mov    ecx,0x20
ffffffff80007bad:	8b 38                	mov    edi,DWORD PTR [rax]
ffffffff80007baf:	ba 08 00 00 00       	mov    edx,0x8
ffffffff80007bb4:	e9 98 fc ff ff       	jmp    ffffffff80007851 <npf_vpprintf+0x431>
ffffffff80007bb9:	48 8b 4d 98          	mov    rcx,QWORD PTR [rbp-0x68]
ffffffff80007bbd:	8b 01                	mov    eax,DWORD PTR [rcx]
ffffffff80007bbf:	83 f8 2f             	cmp    eax,0x2f
ffffffff80007bc2:	76 bf                	jbe    ffffffff80007b83 <npf_vpprintf+0x763>
ffffffff80007bc4:	48 8b 41 08          	mov    rax,QWORD PTR [rcx+0x8]
ffffffff80007bc8:	48 8d 50 08          	lea    rdx,[rax+0x8]
ffffffff80007bcc:	48 89 51 08          	mov    QWORD PTR [rcx+0x8],rdx
ffffffff80007bd0:	b9 20 00 00 00       	mov    ecx,0x20
ffffffff80007bd5:	48 8b 38             	mov    rdi,QWORD PTR [rax]
ffffffff80007bd8:	e9 96 fd ff ff       	jmp    ffffffff80007973 <npf_vpprintf+0x553>
ffffffff80007bdd:	48 8b 75 98          	mov    rsi,QWORD PTR [rbp-0x68]
ffffffff80007be1:	8b 06                	mov    eax,DWORD PTR [rsi]
ffffffff80007be3:	83 f8 2f             	cmp    eax,0x2f
ffffffff80007be6:	0f 86 4c 01 00 00    	jbe    ffffffff80007d38 <npf_vpprintf+0x918>
ffffffff80007bec:	48 8b 46 08          	mov    rax,QWORD PTR [rsi+0x8]
ffffffff80007bf0:	b9 20 00 00 00       	mov    ecx,0x20
ffffffff80007bf5:	48 8d 50 08          	lea    rdx,[rax+0x8]
ffffffff80007bf9:	48 89 56 08          	mov    QWORD PTR [rsi+0x8],rdx
ffffffff80007bfd:	48 8b 38             	mov    rdi,QWORD PTR [rax]
ffffffff80007c00:	e9 3e fe ff ff       	jmp    ffffffff80007a43 <npf_vpprintf+0x623>
ffffffff80007c05:	0f 1f 00             	nop    DWORD PTR [rax]
ffffffff80007c08:	41 b9 06 00 00 00    	mov    r9d,0x6
ffffffff80007c0e:	e9 d1 fe ff ff       	jmp    ffffffff80007ae4 <npf_vpprintf+0x6c4>
ffffffff80007c13:	41 b9 06 00 00 00    	mov    r9d,0x6
ffffffff80007c19:	e9 f3 fe ff ff       	jmp    ffffffff80007b11 <npf_vpprintf+0x6f1>
ffffffff80007c1e:	48 8b 75 98          	mov    rsi,QWORD PTR [rbp-0x68]
ffffffff80007c22:	8b 06                	mov    eax,DWORD PTR [rsi]
ffffffff80007c24:	83 f8 2f             	cmp    eax,0x2f
ffffffff80007c27:	0f 86 25 fd ff ff    	jbe    ffffffff80007952 <npf_vpprintf+0x532>
ffffffff80007c2d:	48 8b 46 08          	mov    rax,QWORD PTR [rsi+0x8]
ffffffff80007c31:	48 8d 50 08          	lea    rdx,[rax+0x8]
ffffffff80007c35:	48 89 56 08          	mov    QWORD PTR [rsi+0x8],rdx
ffffffff80007c39:	48 8b 38             	mov    rdi,QWORD PTR [rax]
ffffffff80007c3c:	e9 32 fd ff ff       	jmp    ffffffff80007973 <npf_vpprintf+0x553>
ffffffff80007c41:	48 8b 75 98          	mov    rsi,QWORD PTR [rbp-0x68]
ffffffff80007c45:	8b 06                	mov    eax,DWORD PTR [rsi]
ffffffff80007c47:	83 f8 2f             	cmp    eax,0x2f
ffffffff80007c4a:	0f 86 af 00 00 00    	jbe    ffffffff80007cff <npf_vpprintf+0x8df>
ffffffff80007c50:	48 8b 46 08          	mov    rax,QWORD PTR [rsi+0x8]
ffffffff80007c54:	48 8d 50 08          	lea    rdx,[rax+0x8]
ffffffff80007c58:	48 89 56 08          	mov    QWORD PTR [rsi+0x8],rdx
ffffffff80007c5c:	8b 38                	mov    edi,DWORD PTR [rax]
ffffffff80007c5e:	e9 1a fd ff ff       	jmp    ffffffff8000797d <npf_vpprintf+0x55d>
ffffffff80007c63:	31 c0                	xor    eax,eax
ffffffff80007c65:	e9 8a fc ff ff       	jmp    ffffffff800078f4 <npf_vpprintf+0x4d4>
ffffffff80007c6a:	b9 20 00 00 00       	mov    ecx,0x20
ffffffff80007c6f:	31 ff                	xor    edi,edi
ffffffff80007c71:	ba 08 00 00 00       	mov    edx,0x8
ffffffff80007c76:	e9 d6 fb ff ff       	jmp    ffffffff80007851 <npf_vpprintf+0x431>
ffffffff80007c7b:	31 ff                	xor    edi,edi
ffffffff80007c7d:	e9 fb fc ff ff       	jmp    ffffffff8000797d <npf_vpprintf+0x55d>
ffffffff80007c82:	b9 20 00 00 00       	mov    ecx,0x20
ffffffff80007c87:	31 ff                	xor    edi,edi
ffffffff80007c89:	e9 b5 fd ff ff       	jmp    ffffffff80007a43 <npf_vpprintf+0x623>
ffffffff80007c8e:	41 89 d3             	mov    r11d,edx
ffffffff80007c91:	e9 ea f8 ff ff       	jmp    ffffffff80007580 <npf_vpprintf+0x160>
ffffffff80007c96:	48 8b 4d 98          	mov    rcx,QWORD PTR [rbp-0x68]
ffffffff80007c9a:	48 8b 51 08          	mov    rdx,QWORD PTR [rcx+0x8]
ffffffff80007c9e:	48 8d 42 08          	lea    rax,[rdx+0x8]
ffffffff80007ca2:	48 89 41 08          	mov    QWORD PTR [rcx+0x8],rax
ffffffff80007ca6:	e9 f2 fd ff ff       	jmp    ffffffff80007a9d <npf_vpprintf+0x67d>
ffffffff80007cab:	48 8b 4d 98          	mov    rcx,QWORD PTR [rbp-0x68]
ffffffff80007caf:	48 8b 51 08          	mov    rdx,QWORD PTR [rcx+0x8]
ffffffff80007cb3:	48 8d 42 08          	lea    rax,[rdx+0x8]
ffffffff80007cb7:	48 89 41 08          	mov    QWORD PTR [rcx+0x8],rax
ffffffff80007cbb:	e9 bb fd ff ff       	jmp    ffffffff80007a7b <npf_vpprintf+0x65b>
ffffffff80007cc0:	48 8b 75 98          	mov    rsi,QWORD PTR [rbp-0x68]
ffffffff80007cc4:	48 8b 56 08          	mov    rdx,QWORD PTR [rsi+0x8]
ffffffff80007cc8:	48 8d 42 08          	lea    rax,[rdx+0x8]
ffffffff80007ccc:	48 89 46 08          	mov    QWORD PTR [rsi+0x8],rax
ffffffff80007cd0:	e9 eb fd ff ff       	jmp    ffffffff80007ac0 <npf_vpprintf+0x6a0>
ffffffff80007cd5:	48 8b 75 98          	mov    rsi,QWORD PTR [rbp-0x68]
ffffffff80007cd9:	48 8b 56 08          	mov    rdx,QWORD PTR [rsi+0x8]
ffffffff80007cdd:	48 8d 42 08          	lea    rax,[rdx+0x8]
ffffffff80007ce1:	48 89 46 08          	mov    QWORD PTR [rsi+0x8],rax
ffffffff80007ce5:	e9 41 fe ff ff       	jmp    ffffffff80007b2b <npf_vpprintf+0x70b>
ffffffff80007cea:	48 8b 75 98          	mov    rsi,QWORD PTR [rbp-0x68]
ffffffff80007cee:	48 8b 56 08          	mov    rdx,QWORD PTR [rsi+0x8]
ffffffff80007cf2:	48 8d 42 08          	lea    rax,[rdx+0x8]
ffffffff80007cf6:	48 89 46 08          	mov    QWORD PTR [rsi+0x8],rax
ffffffff80007cfa:	e9 ff fd ff ff       	jmp    ffffffff80007afe <npf_vpprintf+0x6de>
ffffffff80007cff:	41 b9 06 00 00 00    	mov    r9d,0x6
ffffffff80007d05:	48 8b 75 98          	mov    rsi,QWORD PTR [rbp-0x68]
ffffffff80007d09:	89 c2                	mov    edx,eax
ffffffff80007d0b:	83 c0 08             	add    eax,0x8
ffffffff80007d0e:	48 03 56 10          	add    rdx,QWORD PTR [rsi+0x10]
ffffffff80007d12:	89 06                	mov    DWORD PTR [rsi],eax
ffffffff80007d14:	8b 3a                	mov    edi,DWORD PTR [rdx]
ffffffff80007d16:	e9 49 fc ff ff       	jmp    ffffffff80007964 <npf_vpprintf+0x544>
ffffffff80007d1b:	b9 20 00 00 00       	mov    ecx,0x20
ffffffff80007d20:	41 b9 05 00 00 00    	mov    r9d,0x5
ffffffff80007d26:	e9 27 fc ff ff       	jmp    ffffffff80007952 <npf_vpprintf+0x532>
ffffffff80007d2b:	b9 20 00 00 00       	mov    ecx,0x20
ffffffff80007d30:	41 b9 05 00 00 00    	mov    r9d,0x5
ffffffff80007d36:	eb cd                	jmp    ffffffff80007d05 <npf_vpprintf+0x8e5>
ffffffff80007d38:	b9 20 00 00 00       	mov    ecx,0x20
ffffffff80007d3d:	41 b9 07 00 00 00    	mov    r9d,0x7
ffffffff80007d43:	e9 0a fc ff ff       	jmp    ffffffff80007952 <npf_vpprintf+0x532>
ffffffff80007d48:	b9 20 00 00 00       	mov    ecx,0x20
ffffffff80007d4d:	41 b9 07 00 00 00    	mov    r9d,0x7
ffffffff80007d53:	eb b0                	jmp    ffffffff80007d05 <npf_vpprintf+0x8e5>
ffffffff80007d55:	66 2e 0f 1f 84 00 00 	cs nop WORD PTR [rax+rax*1+0x0]
ffffffff80007d5c:	00 00 00 
ffffffff80007d5f:	90                   	nop

ffffffff80007d60 <npf_vsnprintf>:
ffffffff80007d60:	55                   	push   rbp
ffffffff80007d61:	48 89 e5             	mov    rbp,rsp
ffffffff80007d64:	41 54                	push   r12
ffffffff80007d66:	53                   	push   rbx
ffffffff80007d67:	48 83 ec 20          	sub    rsp,0x20
ffffffff80007d6b:	48 89 7d d0          	mov    QWORD PTR [rbp-0x30],rdi
ffffffff80007d6f:	48 89 75 d8          	mov    QWORD PTR [rbp-0x28],rsi
ffffffff80007d73:	48 c7 45 e0 00 00 00 	mov    QWORD PTR [rbp-0x20],0x0
ffffffff80007d7a:	00 
ffffffff80007d7b:	48 85 ff             	test   rdi,rdi
ffffffff80007d7e:	74 40                	je     ffffffff80007dc0 <npf_vsnprintf+0x60>
ffffffff80007d80:	49 89 f4             	mov    r12,rsi
ffffffff80007d83:	48 89 fb             	mov    rbx,rdi
ffffffff80007d86:	48 8d 75 d0          	lea    rsi,[rbp-0x30]
ffffffff80007d8a:	48 c7 c7 f0 73 00 80 	mov    rdi,0xffffffff800073f0
ffffffff80007d91:	e8 8a f6 ff ff       	call   ffffffff80007420 <npf_vpprintf>
ffffffff80007d96:	4d 85 e4             	test   r12,r12
ffffffff80007d99:	74 1b                	je     ffffffff80007db6 <npf_vsnprintf+0x56>
ffffffff80007d9b:	49 8d 54 24 ff       	lea    rdx,[r12-0x1]
ffffffff80007da0:	48 63 c8             	movsxd rcx,eax
ffffffff80007da3:	48 39 ca             	cmp    rdx,rcx
ffffffff80007da6:	48 0f 47 d1          	cmova  rdx,rcx
ffffffff80007daa:	48 01 da             	add    rdx,rbx
ffffffff80007dad:	85 c0                	test   eax,eax
ffffffff80007daf:	48 0f 48 d3          	cmovs  rdx,rbx
ffffffff80007db3:	c6 02 00             	mov    BYTE PTR [rdx],0x0
ffffffff80007db6:	48 83 c4 20          	add    rsp,0x20
ffffffff80007dba:	5b                   	pop    rbx
ffffffff80007dbb:	41 5c                	pop    r12
ffffffff80007dbd:	5d                   	pop    rbp
ffffffff80007dbe:	c3                   	ret
ffffffff80007dbf:	90                   	nop
ffffffff80007dc0:	48 8d 75 d0          	lea    rsi,[rbp-0x30]
ffffffff80007dc4:	48 c7 c7 10 74 00 80 	mov    rdi,0xffffffff80007410
ffffffff80007dcb:	e8 50 f6 ff ff       	call   ffffffff80007420 <npf_vpprintf>
ffffffff80007dd0:	48 83 c4 20          	add    rsp,0x20
ffffffff80007dd4:	5b                   	pop    rbx
ffffffff80007dd5:	41 5c                	pop    r12
ffffffff80007dd7:	5d                   	pop    rbp
ffffffff80007dd8:	c3                   	ret
ffffffff80007dd9:	0f 1f 80 00 00 00 00 	nop    DWORD PTR [rax+0x0]

ffffffff80007de0 <kprintf>:
ffffffff80007de0:	55                   	push   rbp
ffffffff80007de1:	48 89 e5             	mov    rbp,rsp
ffffffff80007de4:	41 55                	push   r13
ffffffff80007de6:	49 89 fd             	mov    r13,rdi
ffffffff80007de9:	41 54                	push   r12
ffffffff80007deb:	53                   	push   rbx
ffffffff80007dec:	48 81 ec d8 00 00 00 	sub    rsp,0xd8
ffffffff80007df3:	48 89 b5 38 ff ff ff 	mov    QWORD PTR [rbp-0xc8],rsi
ffffffff80007dfa:	48 89 95 40 ff ff ff 	mov    QWORD PTR [rbp-0xc0],rdx
ffffffff80007e01:	48 89 8d 48 ff ff ff 	mov    QWORD PTR [rbp-0xb8],rcx
ffffffff80007e08:	4c 89 85 50 ff ff ff 	mov    QWORD PTR [rbp-0xb0],r8
ffffffff80007e0f:	4c 89 8d 58 ff ff ff 	mov    QWORD PTR [rbp-0xa8],r9
ffffffff80007e16:	84 c0                	test   al,al
ffffffff80007e18:	74 26                	je     ffffffff80007e40 <kprintf+0x60>
ffffffff80007e1a:	0f 29 85 60 ff ff ff 	movaps XMMWORD PTR [rbp-0xa0],xmm0
ffffffff80007e21:	0f 29 8d 70 ff ff ff 	movaps XMMWORD PTR [rbp-0x90],xmm1
ffffffff80007e28:	0f 29 55 80          	movaps XMMWORD PTR [rbp-0x80],xmm2
ffffffff80007e2c:	0f 29 5d 90          	movaps XMMWORD PTR [rbp-0x70],xmm3
ffffffff80007e30:	0f 29 65 a0          	movaps XMMWORD PTR [rbp-0x60],xmm4
ffffffff80007e34:	0f 29 6d b0          	movaps XMMWORD PTR [rbp-0x50],xmm5
ffffffff80007e38:	0f 29 75 c0          	movaps XMMWORD PTR [rbp-0x40],xmm6
ffffffff80007e3c:	0f 29 7d d0          	movaps XMMWORD PTR [rbp-0x30],xmm7
ffffffff80007e40:	bb 00 01 00 00       	mov    ebx,0x100
ffffffff80007e45:	eb 64                	jmp    ffffffff80007eab <kprintf+0xcb>
ffffffff80007e47:	66 0f 1f 84 00 00 00 	nop    WORD PTR [rax+rax*1+0x0]
ffffffff80007e4e:	00 00 
ffffffff80007e50:	48 8d 45 10          	lea    rax,[rbp+0x10]
ffffffff80007e54:	4c 89 ea             	mov    rdx,r13
ffffffff80007e57:	48 89 de             	mov    rsi,rbx
ffffffff80007e5a:	4c 89 e7             	mov    rdi,r12
ffffffff80007e5d:	48 89 85 20 ff ff ff 	mov    QWORD PTR [rbp-0xe0],rax
ffffffff80007e64:	48 8d 8d 18 ff ff ff 	lea    rcx,[rbp-0xe8]
ffffffff80007e6b:	48 8d 85 30 ff ff ff 	lea    rax,[rbp-0xd0]
ffffffff80007e72:	c7 85 18 ff ff ff 08 	mov    DWORD PTR [rbp-0xe8],0x8
ffffffff80007e79:	00 00 00 
ffffffff80007e7c:	c7 85 1c ff ff ff 30 	mov    DWORD PTR [rbp-0xe4],0x30
ffffffff80007e83:	00 00 00 
ffffffff80007e86:	48 89 85 28 ff ff ff 	mov    QWORD PTR [rbp-0xd8],rax
ffffffff80007e8d:	e8 ce fe ff ff       	call   ffffffff80007d60 <npf_vsnprintf>
ffffffff80007e92:	85 c0                	test   eax,eax
ffffffff80007e94:	78 3a                	js     ffffffff80007ed0 <kprintf+0xf0>
ffffffff80007e96:	48 98                	cdqe
ffffffff80007e98:	48 39 d8             	cmp    rax,rbx
ffffffff80007e9b:	72 53                	jb     ffffffff80007ef0 <kprintf+0x110>
ffffffff80007e9d:	48 89 de             	mov    rsi,rbx
ffffffff80007ea0:	4c 89 e7             	mov    rdi,r12
ffffffff80007ea3:	48 01 db             	add    rbx,rbx
ffffffff80007ea6:	e8 85 d8 ff ff       	call   ffffffff80005730 <kfree>
ffffffff80007eab:	48 89 df             	mov    rdi,rbx
ffffffff80007eae:	e8 4d d8 ff ff       	call   ffffffff80005700 <kmalloc>
ffffffff80007eb3:	49 89 c4             	mov    r12,rax
ffffffff80007eb6:	48 85 c0             	test   rax,rax
ffffffff80007eb9:	75 95                	jne    ffffffff80007e50 <kprintf+0x70>
ffffffff80007ebb:	48 81 c4 d8 00 00 00 	add    rsp,0xd8
ffffffff80007ec2:	5b                   	pop    rbx
ffffffff80007ec3:	41 5c                	pop    r12
ffffffff80007ec5:	41 5d                	pop    r13
ffffffff80007ec7:	5d                   	pop    rbp
ffffffff80007ec8:	c3                   	ret
ffffffff80007ec9:	0f 1f 80 00 00 00 00 	nop    DWORD PTR [rax+0x0]
ffffffff80007ed0:	48 89 de             	mov    rsi,rbx
ffffffff80007ed3:	4c 89 e7             	mov    rdi,r12
ffffffff80007ed6:	e8 55 d8 ff ff       	call   ffffffff80005730 <kfree>
ffffffff80007edb:	48 81 c4 d8 00 00 00 	add    rsp,0xd8
ffffffff80007ee2:	5b                   	pop    rbx
ffffffff80007ee3:	41 5c                	pop    r12
ffffffff80007ee5:	41 5d                	pop    r13
ffffffff80007ee7:	5d                   	pop    rbp
ffffffff80007ee8:	c3                   	ret
ffffffff80007ee9:	0f 1f 80 00 00 00 00 	nop    DWORD PTR [rax+0x0]
ffffffff80007ef0:	48 c7 c7 ea 85 00 80 	mov    rdi,0xffffffff800085ea
ffffffff80007ef7:	e8 84 c7 ff ff       	call   ffffffff80004680 <device_get_by_name>
ffffffff80007efc:	48 85 c0             	test   rax,rax
ffffffff80007eff:	74 21                	je     ffffffff80007f22 <kprintf+0x142>
ffffffff80007f01:	48 8b 40 20          	mov    rax,QWORD PTR [rax+0x20]
ffffffff80007f05:	48 85 c0             	test   rax,rax
ffffffff80007f08:	74 18                	je     ffffffff80007f22 <kprintf+0x142>
ffffffff80007f0a:	48 8b b8 60 08 00 00 	mov    rdi,QWORD PTR [rax+0x860]
ffffffff80007f11:	48 85 ff             	test   rdi,rdi
ffffffff80007f14:	74 0c                	je     ffffffff80007f22 <kprintf+0x142>
ffffffff80007f16:	48 8d 77 40          	lea    rsi,[rdi+0x40]
ffffffff80007f1a:	4c 89 e2             	mov    rdx,r12
ffffffff80007f1d:	e8 4e a0 ff ff       	call   ffffffff80001f70 <framebuffer_write_string>
ffffffff80007f22:	4c 89 e6             	mov    rsi,r12
ffffffff80007f25:	48 c7 c7 2c 86 00 80 	mov    rdi,0xffffffff8000862c
ffffffff80007f2c:	31 c0                	xor    eax,eax
ffffffff80007f2e:	e8 3d 95 ff ff       	call   ffffffff80001470 <serial_printf>
ffffffff80007f33:	48 81 c4 d8 00 00 00 	add    rsp,0xd8
ffffffff80007f3a:	5b                   	pop    rbx
ffffffff80007f3b:	41 5c                	pop    r12
ffffffff80007f3d:	41 5d                	pop    r13
ffffffff80007f3f:	5d                   	pop    rbp
ffffffff80007f40:	c3                   	ret
